
serialsocket.elf:     file format elf32-littlearm

Sections:
Idx Name          Size      VMA       LMA       File off  Algn
  0 .isr_vector   0000010c  08000000  08000000  00010000  2**0
                  CONTENTS, ALLOC, LOAD, READONLY, DATA
  1 .text         00006360  08000110  08000110  00010110  2**3
                  CONTENTS, ALLOC, LOAD, READONLY, CODE
  2 .rodata       00000428  08006470  08006470  00016470  2**3
                  CONTENTS, ALLOC, LOAD, READONLY, DATA
  3 .ARM.extab    00000000  08006898  08006898  000201d4  2**0
                  CONTENTS
  4 .ARM          00000000  08006898  08006898  000201d4  2**0
                  CONTENTS
  5 .preinit_array 00000000  08006898  08006898  000201d4  2**0
                  CONTENTS, ALLOC, LOAD, DATA
  6 .init_array   00000004  08006898  08006898  00016898  2**2
                  CONTENTS, ALLOC, LOAD, DATA
  7 .fini_array   00000004  0800689c  0800689c  0001689c  2**2
                  CONTENTS, ALLOC, LOAD, DATA
  8 .data         000001d4  20000000  080068a0  00020000  2**2
                  CONTENTS, ALLOC, LOAD, DATA
  9 .bss          000002ac  200001d4  08006a74  000201d4  2**2
                  ALLOC
 10 ._user_heap_stack 00000600  20000480  08006a74  00020480  2**0
                  ALLOC
 11 .ARM.attributes 00000029  00000000  00000000  000201d4  2**0
                  CONTENTS, READONLY
 12 .comment      00000043  00000000  00000000  000201fd  2**0
                  CONTENTS, READONLY
 13 .debug_frame  0000154c  00000000  00000000  00020240  2**2
                  CONTENTS, READONLY, DEBUGGING, OCTETS

Disassembly of section .text:

08000110 <__do_global_dtors_aux>:
 8000110:	b510      	push	{r4, lr}
 8000112:	4c05      	ldr	r4, [pc, #20]	; (8000128 <__do_global_dtors_aux+0x18>)
 8000114:	7823      	ldrb	r3, [r4, #0]
 8000116:	b933      	cbnz	r3, 8000126 <__do_global_dtors_aux+0x16>
 8000118:	4b04      	ldr	r3, [pc, #16]	; (800012c <__do_global_dtors_aux+0x1c>)
 800011a:	b113      	cbz	r3, 8000122 <__do_global_dtors_aux+0x12>
 800011c:	4804      	ldr	r0, [pc, #16]	; (8000130 <__do_global_dtors_aux+0x20>)
 800011e:	f3af 8000 	nop.w
 8000122:	2301      	movs	r3, #1
 8000124:	7023      	strb	r3, [r4, #0]
 8000126:	bd10      	pop	{r4, pc}
 8000128:	200001d4 	.word	0x200001d4
 800012c:	00000000 	.word	0x00000000
 8000130:	08006458 	.word	0x08006458

08000134 <frame_dummy>:
 8000134:	b508      	push	{r3, lr}
 8000136:	4b03      	ldr	r3, [pc, #12]	; (8000144 <frame_dummy+0x10>)
 8000138:	b11b      	cbz	r3, 8000142 <frame_dummy+0xe>
 800013a:	4903      	ldr	r1, [pc, #12]	; (8000148 <frame_dummy+0x14>)
 800013c:	4803      	ldr	r0, [pc, #12]	; (800014c <frame_dummy+0x18>)
 800013e:	f3af 8000 	nop.w
 8000142:	bd08      	pop	{r3, pc}
 8000144:	00000000 	.word	0x00000000
 8000148:	200001d8 	.word	0x200001d8
 800014c:	08006458 	.word	0x08006458

08000150 <strcmp>:
 8000150:	f810 2b01 	ldrb.w	r2, [r0], #1
 8000154:	f811 3b01 	ldrb.w	r3, [r1], #1
 8000158:	2a01      	cmp	r2, #1
 800015a:	bf28      	it	cs
 800015c:	429a      	cmpcs	r2, r3
 800015e:	d0f7      	beq.n	8000150 <strcmp>
 8000160:	1ad0      	subs	r0, r2, r3
 8000162:	4770      	bx	lr

08000164 <strlen>:
 8000164:	4603      	mov	r3, r0
 8000166:	f813 2b01 	ldrb.w	r2, [r3], #1
 800016a:	2a00      	cmp	r2, #0
 800016c:	d1fb      	bne.n	8000166 <strlen+0x2>
 800016e:	1a18      	subs	r0, r3, r0
 8000170:	3801      	subs	r0, #1
 8000172:	4770      	bx	lr

08000174 <__aeabi_drsub>:
 8000174:	f081 4100 	eor.w	r1, r1, #2147483648	; 0x80000000
 8000178:	e002      	b.n	8000180 <__adddf3>
 800017a:	bf00      	nop

0800017c <__aeabi_dsub>:
 800017c:	f083 4300 	eor.w	r3, r3, #2147483648	; 0x80000000

08000180 <__adddf3>:
 8000180:	b530      	push	{r4, r5, lr}
 8000182:	ea4f 0441 	mov.w	r4, r1, lsl #1
 8000186:	ea4f 0543 	mov.w	r5, r3, lsl #1
 800018a:	ea94 0f05 	teq	r4, r5
 800018e:	bf08      	it	eq
 8000190:	ea90 0f02 	teqeq	r0, r2
 8000194:	bf1f      	itttt	ne
 8000196:	ea54 0c00 	orrsne.w	ip, r4, r0
 800019a:	ea55 0c02 	orrsne.w	ip, r5, r2
 800019e:	ea7f 5c64 	mvnsne.w	ip, r4, asr #21
 80001a2:	ea7f 5c65 	mvnsne.w	ip, r5, asr #21
 80001a6:	f000 80e2 	beq.w	800036e <__adddf3+0x1ee>
 80001aa:	ea4f 5454 	mov.w	r4, r4, lsr #21
 80001ae:	ebd4 5555 	rsbs	r5, r4, r5, lsr #21
 80001b2:	bfb8      	it	lt
 80001b4:	426d      	neglt	r5, r5
 80001b6:	dd0c      	ble.n	80001d2 <__adddf3+0x52>
 80001b8:	442c      	add	r4, r5
 80001ba:	ea80 0202 	eor.w	r2, r0, r2
 80001be:	ea81 0303 	eor.w	r3, r1, r3
 80001c2:	ea82 0000 	eor.w	r0, r2, r0
 80001c6:	ea83 0101 	eor.w	r1, r3, r1
 80001ca:	ea80 0202 	eor.w	r2, r0, r2
 80001ce:	ea81 0303 	eor.w	r3, r1, r3
 80001d2:	2d36      	cmp	r5, #54	; 0x36
 80001d4:	bf88      	it	hi
 80001d6:	bd30      	pophi	{r4, r5, pc}
 80001d8:	f011 4f00 	tst.w	r1, #2147483648	; 0x80000000
 80001dc:	ea4f 3101 	mov.w	r1, r1, lsl #12
 80001e0:	f44f 1c80 	mov.w	ip, #1048576	; 0x100000
 80001e4:	ea4c 3111 	orr.w	r1, ip, r1, lsr #12
 80001e8:	d002      	beq.n	80001f0 <__adddf3+0x70>
 80001ea:	4240      	negs	r0, r0
 80001ec:	eb61 0141 	sbc.w	r1, r1, r1, lsl #1
 80001f0:	f013 4f00 	tst.w	r3, #2147483648	; 0x80000000
 80001f4:	ea4f 3303 	mov.w	r3, r3, lsl #12
 80001f8:	ea4c 3313 	orr.w	r3, ip, r3, lsr #12
 80001fc:	d002      	beq.n	8000204 <__adddf3+0x84>
 80001fe:	4252      	negs	r2, r2
 8000200:	eb63 0343 	sbc.w	r3, r3, r3, lsl #1
 8000204:	ea94 0f05 	teq	r4, r5
 8000208:	f000 80a7 	beq.w	800035a <__adddf3+0x1da>
 800020c:	f1a4 0401 	sub.w	r4, r4, #1
 8000210:	f1d5 0e20 	rsbs	lr, r5, #32
 8000214:	db0d      	blt.n	8000232 <__adddf3+0xb2>
 8000216:	fa02 fc0e 	lsl.w	ip, r2, lr
 800021a:	fa22 f205 	lsr.w	r2, r2, r5
 800021e:	1880      	adds	r0, r0, r2
 8000220:	f141 0100 	adc.w	r1, r1, #0
 8000224:	fa03 f20e 	lsl.w	r2, r3, lr
 8000228:	1880      	adds	r0, r0, r2
 800022a:	fa43 f305 	asr.w	r3, r3, r5
 800022e:	4159      	adcs	r1, r3
 8000230:	e00e      	b.n	8000250 <__adddf3+0xd0>
 8000232:	f1a5 0520 	sub.w	r5, r5, #32
 8000236:	f10e 0e20 	add.w	lr, lr, #32
 800023a:	2a01      	cmp	r2, #1
 800023c:	fa03 fc0e 	lsl.w	ip, r3, lr
 8000240:	bf28      	it	cs
 8000242:	f04c 0c02 	orrcs.w	ip, ip, #2
 8000246:	fa43 f305 	asr.w	r3, r3, r5
 800024a:	18c0      	adds	r0, r0, r3
 800024c:	eb51 71e3 	adcs.w	r1, r1, r3, asr #31
 8000250:	f001 4500 	and.w	r5, r1, #2147483648	; 0x80000000
 8000254:	d507      	bpl.n	8000266 <__adddf3+0xe6>
 8000256:	f04f 0e00 	mov.w	lr, #0
 800025a:	f1dc 0c00 	rsbs	ip, ip, #0
 800025e:	eb7e 0000 	sbcs.w	r0, lr, r0
 8000262:	eb6e 0101 	sbc.w	r1, lr, r1
 8000266:	f5b1 1f80 	cmp.w	r1, #1048576	; 0x100000
 800026a:	d31b      	bcc.n	80002a4 <__adddf3+0x124>
 800026c:	f5b1 1f00 	cmp.w	r1, #2097152	; 0x200000
 8000270:	d30c      	bcc.n	800028c <__adddf3+0x10c>
 8000272:	0849      	lsrs	r1, r1, #1
 8000274:	ea5f 0030 	movs.w	r0, r0, rrx
 8000278:	ea4f 0c3c 	mov.w	ip, ip, rrx
 800027c:	f104 0401 	add.w	r4, r4, #1
 8000280:	ea4f 5244 	mov.w	r2, r4, lsl #21
 8000284:	f512 0f80 	cmn.w	r2, #4194304	; 0x400000
 8000288:	f080 809a 	bcs.w	80003c0 <__adddf3+0x240>
 800028c:	f1bc 4f00 	cmp.w	ip, #2147483648	; 0x80000000
 8000290:	bf08      	it	eq
 8000292:	ea5f 0c50 	movseq.w	ip, r0, lsr #1
 8000296:	f150 0000 	adcs.w	r0, r0, #0
 800029a:	eb41 5104 	adc.w	r1, r1, r4, lsl #20
 800029e:	ea41 0105 	orr.w	r1, r1, r5
 80002a2:	bd30      	pop	{r4, r5, pc}
 80002a4:	ea5f 0c4c 	movs.w	ip, ip, lsl #1
 80002a8:	4140      	adcs	r0, r0
 80002aa:	eb41 0101 	adc.w	r1, r1, r1
 80002ae:	3c01      	subs	r4, #1
 80002b0:	bf28      	it	cs
 80002b2:	f5b1 1f80 	cmpcs.w	r1, #1048576	; 0x100000
 80002b6:	d2e9      	bcs.n	800028c <__adddf3+0x10c>
 80002b8:	f091 0f00 	teq	r1, #0
 80002bc:	bf04      	itt	eq
 80002be:	4601      	moveq	r1, r0
 80002c0:	2000      	moveq	r0, #0
 80002c2:	fab1 f381 	clz	r3, r1
 80002c6:	bf08      	it	eq
 80002c8:	3320      	addeq	r3, #32
 80002ca:	f1a3 030b 	sub.w	r3, r3, #11
 80002ce:	f1b3 0220 	subs.w	r2, r3, #32
 80002d2:	da0c      	bge.n	80002ee <__adddf3+0x16e>
 80002d4:	320c      	adds	r2, #12
 80002d6:	dd08      	ble.n	80002ea <__adddf3+0x16a>
 80002d8:	f102 0c14 	add.w	ip, r2, #20
 80002dc:	f1c2 020c 	rsb	r2, r2, #12
 80002e0:	fa01 f00c 	lsl.w	r0, r1, ip
 80002e4:	fa21 f102 	lsr.w	r1, r1, r2
 80002e8:	e00c      	b.n	8000304 <__adddf3+0x184>
 80002ea:	f102 0214 	add.w	r2, r2, #20
 80002ee:	bfd8      	it	le
 80002f0:	f1c2 0c20 	rsble	ip, r2, #32
 80002f4:	fa01 f102 	lsl.w	r1, r1, r2
 80002f8:	fa20 fc0c 	lsr.w	ip, r0, ip
 80002fc:	bfdc      	itt	le
 80002fe:	ea41 010c 	orrle.w	r1, r1, ip
 8000302:	4090      	lslle	r0, r2
 8000304:	1ae4      	subs	r4, r4, r3
 8000306:	bfa2      	ittt	ge
 8000308:	eb01 5104 	addge.w	r1, r1, r4, lsl #20
 800030c:	4329      	orrge	r1, r5
 800030e:	bd30      	popge	{r4, r5, pc}
 8000310:	ea6f 0404 	mvn.w	r4, r4
 8000314:	3c1f      	subs	r4, #31
 8000316:	da1c      	bge.n	8000352 <__adddf3+0x1d2>
 8000318:	340c      	adds	r4, #12
 800031a:	dc0e      	bgt.n	800033a <__adddf3+0x1ba>
 800031c:	f104 0414 	add.w	r4, r4, #20
 8000320:	f1c4 0220 	rsb	r2, r4, #32
 8000324:	fa20 f004 	lsr.w	r0, r0, r4
 8000328:	fa01 f302 	lsl.w	r3, r1, r2
 800032c:	ea40 0003 	orr.w	r0, r0, r3
 8000330:	fa21 f304 	lsr.w	r3, r1, r4
 8000334:	ea45 0103 	orr.w	r1, r5, r3
 8000338:	bd30      	pop	{r4, r5, pc}
 800033a:	f1c4 040c 	rsb	r4, r4, #12
 800033e:	f1c4 0220 	rsb	r2, r4, #32
 8000342:	fa20 f002 	lsr.w	r0, r0, r2
 8000346:	fa01 f304 	lsl.w	r3, r1, r4
 800034a:	ea40 0003 	orr.w	r0, r0, r3
 800034e:	4629      	mov	r1, r5
 8000350:	bd30      	pop	{r4, r5, pc}
 8000352:	fa21 f004 	lsr.w	r0, r1, r4
 8000356:	4629      	mov	r1, r5
 8000358:	bd30      	pop	{r4, r5, pc}
 800035a:	f094 0f00 	teq	r4, #0
 800035e:	f483 1380 	eor.w	r3, r3, #1048576	; 0x100000
 8000362:	bf06      	itte	eq
 8000364:	f481 1180 	eoreq.w	r1, r1, #1048576	; 0x100000
 8000368:	3401      	addeq	r4, #1
 800036a:	3d01      	subne	r5, #1
 800036c:	e74e      	b.n	800020c <__adddf3+0x8c>
 800036e:	ea7f 5c64 	mvns.w	ip, r4, asr #21
 8000372:	bf18      	it	ne
 8000374:	ea7f 5c65 	mvnsne.w	ip, r5, asr #21
 8000378:	d029      	beq.n	80003ce <__adddf3+0x24e>
 800037a:	ea94 0f05 	teq	r4, r5
 800037e:	bf08      	it	eq
 8000380:	ea90 0f02 	teqeq	r0, r2
 8000384:	d005      	beq.n	8000392 <__adddf3+0x212>
 8000386:	ea54 0c00 	orrs.w	ip, r4, r0
 800038a:	bf04      	itt	eq
 800038c:	4619      	moveq	r1, r3
 800038e:	4610      	moveq	r0, r2
 8000390:	bd30      	pop	{r4, r5, pc}
 8000392:	ea91 0f03 	teq	r1, r3
 8000396:	bf1e      	ittt	ne
 8000398:	2100      	movne	r1, #0
 800039a:	2000      	movne	r0, #0
 800039c:	bd30      	popne	{r4, r5, pc}
 800039e:	ea5f 5c54 	movs.w	ip, r4, lsr #21
 80003a2:	d105      	bne.n	80003b0 <__adddf3+0x230>
 80003a4:	0040      	lsls	r0, r0, #1
 80003a6:	4149      	adcs	r1, r1
 80003a8:	bf28      	it	cs
 80003aa:	f041 4100 	orrcs.w	r1, r1, #2147483648	; 0x80000000
 80003ae:	bd30      	pop	{r4, r5, pc}
 80003b0:	f514 0480 	adds.w	r4, r4, #4194304	; 0x400000
 80003b4:	bf3c      	itt	cc
 80003b6:	f501 1180 	addcc.w	r1, r1, #1048576	; 0x100000
 80003ba:	bd30      	popcc	{r4, r5, pc}
 80003bc:	f001 4500 	and.w	r5, r1, #2147483648	; 0x80000000
 80003c0:	f045 41fe 	orr.w	r1, r5, #2130706432	; 0x7f000000
 80003c4:	f441 0170 	orr.w	r1, r1, #15728640	; 0xf00000
 80003c8:	f04f 0000 	mov.w	r0, #0
 80003cc:	bd30      	pop	{r4, r5, pc}
 80003ce:	ea7f 5c64 	mvns.w	ip, r4, asr #21
 80003d2:	bf1a      	itte	ne
 80003d4:	4619      	movne	r1, r3
 80003d6:	4610      	movne	r0, r2
 80003d8:	ea7f 5c65 	mvnseq.w	ip, r5, asr #21
 80003dc:	bf1c      	itt	ne
 80003de:	460b      	movne	r3, r1
 80003e0:	4602      	movne	r2, r0
 80003e2:	ea50 3401 	orrs.w	r4, r0, r1, lsl #12
 80003e6:	bf06      	itte	eq
 80003e8:	ea52 3503 	orrseq.w	r5, r2, r3, lsl #12
 80003ec:	ea91 0f03 	teqeq	r1, r3
 80003f0:	f441 2100 	orrne.w	r1, r1, #524288	; 0x80000
 80003f4:	bd30      	pop	{r4, r5, pc}
 80003f6:	bf00      	nop

080003f8 <__aeabi_ui2d>:
 80003f8:	f090 0f00 	teq	r0, #0
 80003fc:	bf04      	itt	eq
 80003fe:	2100      	moveq	r1, #0
 8000400:	4770      	bxeq	lr
 8000402:	b530      	push	{r4, r5, lr}
 8000404:	f44f 6480 	mov.w	r4, #1024	; 0x400
 8000408:	f104 0432 	add.w	r4, r4, #50	; 0x32
 800040c:	f04f 0500 	mov.w	r5, #0
 8000410:	f04f 0100 	mov.w	r1, #0
 8000414:	e750      	b.n	80002b8 <__adddf3+0x138>
 8000416:	bf00      	nop

08000418 <__aeabi_i2d>:
 8000418:	f090 0f00 	teq	r0, #0
 800041c:	bf04      	itt	eq
 800041e:	2100      	moveq	r1, #0
 8000420:	4770      	bxeq	lr
 8000422:	b530      	push	{r4, r5, lr}
 8000424:	f44f 6480 	mov.w	r4, #1024	; 0x400
 8000428:	f104 0432 	add.w	r4, r4, #50	; 0x32
 800042c:	f010 4500 	ands.w	r5, r0, #2147483648	; 0x80000000
 8000430:	bf48      	it	mi
 8000432:	4240      	negmi	r0, r0
 8000434:	f04f 0100 	mov.w	r1, #0
 8000438:	e73e      	b.n	80002b8 <__adddf3+0x138>
 800043a:	bf00      	nop

0800043c <__aeabi_f2d>:
 800043c:	0042      	lsls	r2, r0, #1
 800043e:	ea4f 01e2 	mov.w	r1, r2, asr #3
 8000442:	ea4f 0131 	mov.w	r1, r1, rrx
 8000446:	ea4f 7002 	mov.w	r0, r2, lsl #28
 800044a:	bf1f      	itttt	ne
 800044c:	f012 437f 	andsne.w	r3, r2, #4278190080	; 0xff000000
 8000450:	f093 4f7f 	teqne	r3, #4278190080	; 0xff000000
 8000454:	f081 5160 	eorne.w	r1, r1, #939524096	; 0x38000000
 8000458:	4770      	bxne	lr
 800045a:	f032 427f 	bics.w	r2, r2, #4278190080	; 0xff000000
 800045e:	bf08      	it	eq
 8000460:	4770      	bxeq	lr
 8000462:	f093 4f7f 	teq	r3, #4278190080	; 0xff000000
 8000466:	bf04      	itt	eq
 8000468:	f441 2100 	orreq.w	r1, r1, #524288	; 0x80000
 800046c:	4770      	bxeq	lr
 800046e:	b530      	push	{r4, r5, lr}
 8000470:	f44f 7460 	mov.w	r4, #896	; 0x380
 8000474:	f001 4500 	and.w	r5, r1, #2147483648	; 0x80000000
 8000478:	f021 4100 	bic.w	r1, r1, #2147483648	; 0x80000000
 800047c:	e71c      	b.n	80002b8 <__adddf3+0x138>
 800047e:	bf00      	nop

08000480 <__aeabi_ul2d>:
 8000480:	ea50 0201 	orrs.w	r2, r0, r1
 8000484:	bf08      	it	eq
 8000486:	4770      	bxeq	lr
 8000488:	b530      	push	{r4, r5, lr}
 800048a:	f04f 0500 	mov.w	r5, #0
 800048e:	e00a      	b.n	80004a6 <__aeabi_l2d+0x16>

08000490 <__aeabi_l2d>:
 8000490:	ea50 0201 	orrs.w	r2, r0, r1
 8000494:	bf08      	it	eq
 8000496:	4770      	bxeq	lr
 8000498:	b530      	push	{r4, r5, lr}
 800049a:	f011 4500 	ands.w	r5, r1, #2147483648	; 0x80000000
 800049e:	d502      	bpl.n	80004a6 <__aeabi_l2d+0x16>
 80004a0:	4240      	negs	r0, r0
 80004a2:	eb61 0141 	sbc.w	r1, r1, r1, lsl #1
 80004a6:	f44f 6480 	mov.w	r4, #1024	; 0x400
 80004aa:	f104 0432 	add.w	r4, r4, #50	; 0x32
 80004ae:	ea5f 5c91 	movs.w	ip, r1, lsr #22
 80004b2:	f43f aed8 	beq.w	8000266 <__adddf3+0xe6>
 80004b6:	f04f 0203 	mov.w	r2, #3
 80004ba:	ea5f 0cdc 	movs.w	ip, ip, lsr #3
 80004be:	bf18      	it	ne
 80004c0:	3203      	addne	r2, #3
 80004c2:	ea5f 0cdc 	movs.w	ip, ip, lsr #3
 80004c6:	bf18      	it	ne
 80004c8:	3203      	addne	r2, #3
 80004ca:	eb02 02dc 	add.w	r2, r2, ip, lsr #3
 80004ce:	f1c2 0320 	rsb	r3, r2, #32
 80004d2:	fa00 fc03 	lsl.w	ip, r0, r3
 80004d6:	fa20 f002 	lsr.w	r0, r0, r2
 80004da:	fa01 fe03 	lsl.w	lr, r1, r3
 80004de:	ea40 000e 	orr.w	r0, r0, lr
 80004e2:	fa21 f102 	lsr.w	r1, r1, r2
 80004e6:	4414      	add	r4, r2
 80004e8:	e6bd      	b.n	8000266 <__adddf3+0xe6>
 80004ea:	bf00      	nop

080004ec <__aeabi_dmul>:
 80004ec:	b570      	push	{r4, r5, r6, lr}
 80004ee:	f04f 0cff 	mov.w	ip, #255	; 0xff
 80004f2:	f44c 6ce0 	orr.w	ip, ip, #1792	; 0x700
 80004f6:	ea1c 5411 	ands.w	r4, ip, r1, lsr #20
 80004fa:	bf1d      	ittte	ne
 80004fc:	ea1c 5513 	andsne.w	r5, ip, r3, lsr #20
 8000500:	ea94 0f0c 	teqne	r4, ip
 8000504:	ea95 0f0c 	teqne	r5, ip
 8000508:	f000 f8de 	bleq	80006c8 <__aeabi_dmul+0x1dc>
 800050c:	442c      	add	r4, r5
 800050e:	ea81 0603 	eor.w	r6, r1, r3
 8000512:	ea21 514c 	bic.w	r1, r1, ip, lsl #21
 8000516:	ea23 534c 	bic.w	r3, r3, ip, lsl #21
 800051a:	ea50 3501 	orrs.w	r5, r0, r1, lsl #12
 800051e:	bf18      	it	ne
 8000520:	ea52 3503 	orrsne.w	r5, r2, r3, lsl #12
 8000524:	f441 1180 	orr.w	r1, r1, #1048576	; 0x100000
 8000528:	f443 1380 	orr.w	r3, r3, #1048576	; 0x100000
 800052c:	d038      	beq.n	80005a0 <__aeabi_dmul+0xb4>
 800052e:	fba0 ce02 	umull	ip, lr, r0, r2
 8000532:	f04f 0500 	mov.w	r5, #0
 8000536:	fbe1 e502 	umlal	lr, r5, r1, r2
 800053a:	f006 4200 	and.w	r2, r6, #2147483648	; 0x80000000
 800053e:	fbe0 e503 	umlal	lr, r5, r0, r3
 8000542:	f04f 0600 	mov.w	r6, #0
 8000546:	fbe1 5603 	umlal	r5, r6, r1, r3
 800054a:	f09c 0f00 	teq	ip, #0
 800054e:	bf18      	it	ne
 8000550:	f04e 0e01 	orrne.w	lr, lr, #1
 8000554:	f1a4 04ff 	sub.w	r4, r4, #255	; 0xff
 8000558:	f5b6 7f00 	cmp.w	r6, #512	; 0x200
 800055c:	f564 7440 	sbc.w	r4, r4, #768	; 0x300
 8000560:	d204      	bcs.n	800056c <__aeabi_dmul+0x80>
 8000562:	ea5f 0e4e 	movs.w	lr, lr, lsl #1
 8000566:	416d      	adcs	r5, r5
 8000568:	eb46 0606 	adc.w	r6, r6, r6
 800056c:	ea42 21c6 	orr.w	r1, r2, r6, lsl #11
 8000570:	ea41 5155 	orr.w	r1, r1, r5, lsr #21
 8000574:	ea4f 20c5 	mov.w	r0, r5, lsl #11
 8000578:	ea40 505e 	orr.w	r0, r0, lr, lsr #21
 800057c:	ea4f 2ece 	mov.w	lr, lr, lsl #11
 8000580:	f1b4 0cfd 	subs.w	ip, r4, #253	; 0xfd
 8000584:	bf88      	it	hi
 8000586:	f5bc 6fe0 	cmphi.w	ip, #1792	; 0x700
 800058a:	d81e      	bhi.n	80005ca <__aeabi_dmul+0xde>
 800058c:	f1be 4f00 	cmp.w	lr, #2147483648	; 0x80000000
 8000590:	bf08      	it	eq
 8000592:	ea5f 0e50 	movseq.w	lr, r0, lsr #1
 8000596:	f150 0000 	adcs.w	r0, r0, #0
 800059a:	eb41 5104 	adc.w	r1, r1, r4, lsl #20
 800059e:	bd70      	pop	{r4, r5, r6, pc}
 80005a0:	f006 4600 	and.w	r6, r6, #2147483648	; 0x80000000
 80005a4:	ea46 0101 	orr.w	r1, r6, r1
 80005a8:	ea40 0002 	orr.w	r0, r0, r2
 80005ac:	ea81 0103 	eor.w	r1, r1, r3
 80005b0:	ebb4 045c 	subs.w	r4, r4, ip, lsr #1
 80005b4:	bfc2      	ittt	gt
 80005b6:	ebd4 050c 	rsbsgt	r5, r4, ip
 80005ba:	ea41 5104 	orrgt.w	r1, r1, r4, lsl #20
 80005be:	bd70      	popgt	{r4, r5, r6, pc}
 80005c0:	f441 1180 	orr.w	r1, r1, #1048576	; 0x100000
 80005c4:	f04f 0e00 	mov.w	lr, #0
 80005c8:	3c01      	subs	r4, #1
 80005ca:	f300 80ab 	bgt.w	8000724 <__aeabi_dmul+0x238>
 80005ce:	f114 0f36 	cmn.w	r4, #54	; 0x36
 80005d2:	bfde      	ittt	le
 80005d4:	2000      	movle	r0, #0
 80005d6:	f001 4100 	andle.w	r1, r1, #2147483648	; 0x80000000
 80005da:	bd70      	pople	{r4, r5, r6, pc}
 80005dc:	f1c4 0400 	rsb	r4, r4, #0
 80005e0:	3c20      	subs	r4, #32
 80005e2:	da35      	bge.n	8000650 <__aeabi_dmul+0x164>
 80005e4:	340c      	adds	r4, #12
 80005e6:	dc1b      	bgt.n	8000620 <__aeabi_dmul+0x134>
 80005e8:	f104 0414 	add.w	r4, r4, #20
 80005ec:	f1c4 0520 	rsb	r5, r4, #32
 80005f0:	fa00 f305 	lsl.w	r3, r0, r5
 80005f4:	fa20 f004 	lsr.w	r0, r0, r4
 80005f8:	fa01 f205 	lsl.w	r2, r1, r5
 80005fc:	ea40 0002 	orr.w	r0, r0, r2
 8000600:	f001 4200 	and.w	r2, r1, #2147483648	; 0x80000000
 8000604:	f021 4100 	bic.w	r1, r1, #2147483648	; 0x80000000
 8000608:	eb10 70d3 	adds.w	r0, r0, r3, lsr #31
 800060c:	fa21 f604 	lsr.w	r6, r1, r4
 8000610:	eb42 0106 	adc.w	r1, r2, r6
 8000614:	ea5e 0e43 	orrs.w	lr, lr, r3, lsl #1
 8000618:	bf08      	it	eq
 800061a:	ea20 70d3 	biceq.w	r0, r0, r3, lsr #31
 800061e:	bd70      	pop	{r4, r5, r6, pc}
 8000620:	f1c4 040c 	rsb	r4, r4, #12
 8000624:	f1c4 0520 	rsb	r5, r4, #32
 8000628:	fa00 f304 	lsl.w	r3, r0, r4
 800062c:	fa20 f005 	lsr.w	r0, r0, r5
 8000630:	fa01 f204 	lsl.w	r2, r1, r4
 8000634:	ea40 0002 	orr.w	r0, r0, r2
 8000638:	f001 4100 	and.w	r1, r1, #2147483648	; 0x80000000
 800063c:	eb10 70d3 	adds.w	r0, r0, r3, lsr #31
 8000640:	f141 0100 	adc.w	r1, r1, #0
 8000644:	ea5e 0e43 	orrs.w	lr, lr, r3, lsl #1
 8000648:	bf08      	it	eq
 800064a:	ea20 70d3 	biceq.w	r0, r0, r3, lsr #31
 800064e:	bd70      	pop	{r4, r5, r6, pc}
 8000650:	f1c4 0520 	rsb	r5, r4, #32
 8000654:	fa00 f205 	lsl.w	r2, r0, r5
 8000658:	ea4e 0e02 	orr.w	lr, lr, r2
 800065c:	fa20 f304 	lsr.w	r3, r0, r4
 8000660:	fa01 f205 	lsl.w	r2, r1, r5
 8000664:	ea43 0302 	orr.w	r3, r3, r2
 8000668:	fa21 f004 	lsr.w	r0, r1, r4
 800066c:	f001 4100 	and.w	r1, r1, #2147483648	; 0x80000000
 8000670:	fa21 f204 	lsr.w	r2, r1, r4
 8000674:	ea20 0002 	bic.w	r0, r0, r2
 8000678:	eb00 70d3 	add.w	r0, r0, r3, lsr #31
 800067c:	ea5e 0e43 	orrs.w	lr, lr, r3, lsl #1
 8000680:	bf08      	it	eq
 8000682:	ea20 70d3 	biceq.w	r0, r0, r3, lsr #31
 8000686:	bd70      	pop	{r4, r5, r6, pc}
 8000688:	f094 0f00 	teq	r4, #0
 800068c:	d10f      	bne.n	80006ae <__aeabi_dmul+0x1c2>
 800068e:	f001 4600 	and.w	r6, r1, #2147483648	; 0x80000000
 8000692:	0040      	lsls	r0, r0, #1
 8000694:	eb41 0101 	adc.w	r1, r1, r1
 8000698:	f411 1f80 	tst.w	r1, #1048576	; 0x100000
 800069c:	bf08      	it	eq
 800069e:	3c01      	subeq	r4, #1
 80006a0:	d0f7      	beq.n	8000692 <__aeabi_dmul+0x1a6>
 80006a2:	ea41 0106 	orr.w	r1, r1, r6
 80006a6:	f095 0f00 	teq	r5, #0
 80006aa:	bf18      	it	ne
 80006ac:	4770      	bxne	lr
 80006ae:	f003 4600 	and.w	r6, r3, #2147483648	; 0x80000000
 80006b2:	0052      	lsls	r2, r2, #1
 80006b4:	eb43 0303 	adc.w	r3, r3, r3
 80006b8:	f413 1f80 	tst.w	r3, #1048576	; 0x100000
 80006bc:	bf08      	it	eq
 80006be:	3d01      	subeq	r5, #1
 80006c0:	d0f7      	beq.n	80006b2 <__aeabi_dmul+0x1c6>
 80006c2:	ea43 0306 	orr.w	r3, r3, r6
 80006c6:	4770      	bx	lr
 80006c8:	ea94 0f0c 	teq	r4, ip
 80006cc:	ea0c 5513 	and.w	r5, ip, r3, lsr #20
 80006d0:	bf18      	it	ne
 80006d2:	ea95 0f0c 	teqne	r5, ip
 80006d6:	d00c      	beq.n	80006f2 <__aeabi_dmul+0x206>
 80006d8:	ea50 0641 	orrs.w	r6, r0, r1, lsl #1
 80006dc:	bf18      	it	ne
 80006de:	ea52 0643 	orrsne.w	r6, r2, r3, lsl #1
 80006e2:	d1d1      	bne.n	8000688 <__aeabi_dmul+0x19c>
 80006e4:	ea81 0103 	eor.w	r1, r1, r3
 80006e8:	f001 4100 	and.w	r1, r1, #2147483648	; 0x80000000
 80006ec:	f04f 0000 	mov.w	r0, #0
 80006f0:	bd70      	pop	{r4, r5, r6, pc}
 80006f2:	ea50 0641 	orrs.w	r6, r0, r1, lsl #1
 80006f6:	bf06      	itte	eq
 80006f8:	4610      	moveq	r0, r2
 80006fa:	4619      	moveq	r1, r3
 80006fc:	ea52 0643 	orrsne.w	r6, r2, r3, lsl #1
 8000700:	d019      	beq.n	8000736 <__aeabi_dmul+0x24a>
 8000702:	ea94 0f0c 	teq	r4, ip
 8000706:	d102      	bne.n	800070e <__aeabi_dmul+0x222>
 8000708:	ea50 3601 	orrs.w	r6, r0, r1, lsl #12
 800070c:	d113      	bne.n	8000736 <__aeabi_dmul+0x24a>
 800070e:	ea95 0f0c 	teq	r5, ip
 8000712:	d105      	bne.n	8000720 <__aeabi_dmul+0x234>
 8000714:	ea52 3603 	orrs.w	r6, r2, r3, lsl #12
 8000718:	bf1c      	itt	ne
 800071a:	4610      	movne	r0, r2
 800071c:	4619      	movne	r1, r3
 800071e:	d10a      	bne.n	8000736 <__aeabi_dmul+0x24a>
 8000720:	ea81 0103 	eor.w	r1, r1, r3
 8000724:	f001 4100 	and.w	r1, r1, #2147483648	; 0x80000000
 8000728:	f041 41fe 	orr.w	r1, r1, #2130706432	; 0x7f000000
 800072c:	f441 0170 	orr.w	r1, r1, #15728640	; 0xf00000
 8000730:	f04f 0000 	mov.w	r0, #0
 8000734:	bd70      	pop	{r4, r5, r6, pc}
 8000736:	f041 41fe 	orr.w	r1, r1, #2130706432	; 0x7f000000
 800073a:	f441 0178 	orr.w	r1, r1, #16252928	; 0xf80000
 800073e:	bd70      	pop	{r4, r5, r6, pc}

08000740 <__aeabi_ddiv>:
 8000740:	b570      	push	{r4, r5, r6, lr}
 8000742:	f04f 0cff 	mov.w	ip, #255	; 0xff
 8000746:	f44c 6ce0 	orr.w	ip, ip, #1792	; 0x700
 800074a:	ea1c 5411 	ands.w	r4, ip, r1, lsr #20
 800074e:	bf1d      	ittte	ne
 8000750:	ea1c 5513 	andsne.w	r5, ip, r3, lsr #20
 8000754:	ea94 0f0c 	teqne	r4, ip
 8000758:	ea95 0f0c 	teqne	r5, ip
 800075c:	f000 f8a7 	bleq	80008ae <__aeabi_ddiv+0x16e>
 8000760:	eba4 0405 	sub.w	r4, r4, r5
 8000764:	ea81 0e03 	eor.w	lr, r1, r3
 8000768:	ea52 3503 	orrs.w	r5, r2, r3, lsl #12
 800076c:	ea4f 3101 	mov.w	r1, r1, lsl #12
 8000770:	f000 8088 	beq.w	8000884 <__aeabi_ddiv+0x144>
 8000774:	ea4f 3303 	mov.w	r3, r3, lsl #12
 8000778:	f04f 5580 	mov.w	r5, #268435456	; 0x10000000
 800077c:	ea45 1313 	orr.w	r3, r5, r3, lsr #4
 8000780:	ea43 6312 	orr.w	r3, r3, r2, lsr #24
 8000784:	ea4f 2202 	mov.w	r2, r2, lsl #8
 8000788:	ea45 1511 	orr.w	r5, r5, r1, lsr #4
 800078c:	ea45 6510 	orr.w	r5, r5, r0, lsr #24
 8000790:	ea4f 2600 	mov.w	r6, r0, lsl #8
 8000794:	f00e 4100 	and.w	r1, lr, #2147483648	; 0x80000000
 8000798:	429d      	cmp	r5, r3
 800079a:	bf08      	it	eq
 800079c:	4296      	cmpeq	r6, r2
 800079e:	f144 04fd 	adc.w	r4, r4, #253	; 0xfd
 80007a2:	f504 7440 	add.w	r4, r4, #768	; 0x300
 80007a6:	d202      	bcs.n	80007ae <__aeabi_ddiv+0x6e>
 80007a8:	085b      	lsrs	r3, r3, #1
 80007aa:	ea4f 0232 	mov.w	r2, r2, rrx
 80007ae:	1ab6      	subs	r6, r6, r2
 80007b0:	eb65 0503 	sbc.w	r5, r5, r3
 80007b4:	085b      	lsrs	r3, r3, #1
 80007b6:	ea4f 0232 	mov.w	r2, r2, rrx
 80007ba:	f44f 1080 	mov.w	r0, #1048576	; 0x100000
 80007be:	f44f 2c00 	mov.w	ip, #524288	; 0x80000
 80007c2:	ebb6 0e02 	subs.w	lr, r6, r2
 80007c6:	eb75 0e03 	sbcs.w	lr, r5, r3
 80007ca:	bf22      	ittt	cs
 80007cc:	1ab6      	subcs	r6, r6, r2
 80007ce:	4675      	movcs	r5, lr
 80007d0:	ea40 000c 	orrcs.w	r0, r0, ip
 80007d4:	085b      	lsrs	r3, r3, #1
 80007d6:	ea4f 0232 	mov.w	r2, r2, rrx
 80007da:	ebb6 0e02 	subs.w	lr, r6, r2
 80007de:	eb75 0e03 	sbcs.w	lr, r5, r3
 80007e2:	bf22      	ittt	cs
 80007e4:	1ab6      	subcs	r6, r6, r2
 80007e6:	4675      	movcs	r5, lr
 80007e8:	ea40 005c 	orrcs.w	r0, r0, ip, lsr #1
 80007ec:	085b      	lsrs	r3, r3, #1
 80007ee:	ea4f 0232 	mov.w	r2, r2, rrx
 80007f2:	ebb6 0e02 	subs.w	lr, r6, r2
 80007f6:	eb75 0e03 	sbcs.w	lr, r5, r3
 80007fa:	bf22      	ittt	cs
 80007fc:	1ab6      	subcs	r6, r6, r2
 80007fe:	4675      	movcs	r5, lr
 8000800:	ea40 009c 	orrcs.w	r0, r0, ip, lsr #2
 8000804:	085b      	lsrs	r3, r3, #1
 8000806:	ea4f 0232 	mov.w	r2, r2, rrx
 800080a:	ebb6 0e02 	subs.w	lr, r6, r2
 800080e:	eb75 0e03 	sbcs.w	lr, r5, r3
 8000812:	bf22      	ittt	cs
 8000814:	1ab6      	subcs	r6, r6, r2
 8000816:	4675      	movcs	r5, lr
 8000818:	ea40 00dc 	orrcs.w	r0, r0, ip, lsr #3
 800081c:	ea55 0e06 	orrs.w	lr, r5, r6
 8000820:	d018      	beq.n	8000854 <__aeabi_ddiv+0x114>
 8000822:	ea4f 1505 	mov.w	r5, r5, lsl #4
 8000826:	ea45 7516 	orr.w	r5, r5, r6, lsr #28
 800082a:	ea4f 1606 	mov.w	r6, r6, lsl #4
 800082e:	ea4f 03c3 	mov.w	r3, r3, lsl #3
 8000832:	ea43 7352 	orr.w	r3, r3, r2, lsr #29
 8000836:	ea4f 02c2 	mov.w	r2, r2, lsl #3
 800083a:	ea5f 1c1c 	movs.w	ip, ip, lsr #4
 800083e:	d1c0      	bne.n	80007c2 <__aeabi_ddiv+0x82>
 8000840:	f411 1f80 	tst.w	r1, #1048576	; 0x100000
 8000844:	d10b      	bne.n	800085e <__aeabi_ddiv+0x11e>
 8000846:	ea41 0100 	orr.w	r1, r1, r0
 800084a:	f04f 0000 	mov.w	r0, #0
 800084e:	f04f 4c00 	mov.w	ip, #2147483648	; 0x80000000
 8000852:	e7b6      	b.n	80007c2 <__aeabi_ddiv+0x82>
 8000854:	f411 1f80 	tst.w	r1, #1048576	; 0x100000
 8000858:	bf04      	itt	eq
 800085a:	4301      	orreq	r1, r0
 800085c:	2000      	moveq	r0, #0
 800085e:	f1b4 0cfd 	subs.w	ip, r4, #253	; 0xfd
 8000862:	bf88      	it	hi
 8000864:	f5bc 6fe0 	cmphi.w	ip, #1792	; 0x700
 8000868:	f63f aeaf 	bhi.w	80005ca <__aeabi_dmul+0xde>
 800086c:	ebb5 0c03 	subs.w	ip, r5, r3
 8000870:	bf04      	itt	eq
 8000872:	ebb6 0c02 	subseq.w	ip, r6, r2
 8000876:	ea5f 0c50 	movseq.w	ip, r0, lsr #1
 800087a:	f150 0000 	adcs.w	r0, r0, #0
 800087e:	eb41 5104 	adc.w	r1, r1, r4, lsl #20
 8000882:	bd70      	pop	{r4, r5, r6, pc}
 8000884:	f00e 4e00 	and.w	lr, lr, #2147483648	; 0x80000000
 8000888:	ea4e 3111 	orr.w	r1, lr, r1, lsr #12
 800088c:	eb14 045c 	adds.w	r4, r4, ip, lsr #1
 8000890:	bfc2      	ittt	gt
 8000892:	ebd4 050c 	rsbsgt	r5, r4, ip
 8000896:	ea41 5104 	orrgt.w	r1, r1, r4, lsl #20
 800089a:	bd70      	popgt	{r4, r5, r6, pc}
 800089c:	f441 1180 	orr.w	r1, r1, #1048576	; 0x100000
 80008a0:	f04f 0e00 	mov.w	lr, #0
 80008a4:	3c01      	subs	r4, #1
 80008a6:	e690      	b.n	80005ca <__aeabi_dmul+0xde>
 80008a8:	ea45 0e06 	orr.w	lr, r5, r6
 80008ac:	e68d      	b.n	80005ca <__aeabi_dmul+0xde>
 80008ae:	ea0c 5513 	and.w	r5, ip, r3, lsr #20
 80008b2:	ea94 0f0c 	teq	r4, ip
 80008b6:	bf08      	it	eq
 80008b8:	ea95 0f0c 	teqeq	r5, ip
 80008bc:	f43f af3b 	beq.w	8000736 <__aeabi_dmul+0x24a>
 80008c0:	ea94 0f0c 	teq	r4, ip
 80008c4:	d10a      	bne.n	80008dc <__aeabi_ddiv+0x19c>
 80008c6:	ea50 3401 	orrs.w	r4, r0, r1, lsl #12
 80008ca:	f47f af34 	bne.w	8000736 <__aeabi_dmul+0x24a>
 80008ce:	ea95 0f0c 	teq	r5, ip
 80008d2:	f47f af25 	bne.w	8000720 <__aeabi_dmul+0x234>
 80008d6:	4610      	mov	r0, r2
 80008d8:	4619      	mov	r1, r3
 80008da:	e72c      	b.n	8000736 <__aeabi_dmul+0x24a>
 80008dc:	ea95 0f0c 	teq	r5, ip
 80008e0:	d106      	bne.n	80008f0 <__aeabi_ddiv+0x1b0>
 80008e2:	ea52 3503 	orrs.w	r5, r2, r3, lsl #12
 80008e6:	f43f aefd 	beq.w	80006e4 <__aeabi_dmul+0x1f8>
 80008ea:	4610      	mov	r0, r2
 80008ec:	4619      	mov	r1, r3
 80008ee:	e722      	b.n	8000736 <__aeabi_dmul+0x24a>
 80008f0:	ea50 0641 	orrs.w	r6, r0, r1, lsl #1
 80008f4:	bf18      	it	ne
 80008f6:	ea52 0643 	orrsne.w	r6, r2, r3, lsl #1
 80008fa:	f47f aec5 	bne.w	8000688 <__aeabi_dmul+0x19c>
 80008fe:	ea50 0441 	orrs.w	r4, r0, r1, lsl #1
 8000902:	f47f af0d 	bne.w	8000720 <__aeabi_dmul+0x234>
 8000906:	ea52 0543 	orrs.w	r5, r2, r3, lsl #1
 800090a:	f47f aeeb 	bne.w	80006e4 <__aeabi_dmul+0x1f8>
 800090e:	e712      	b.n	8000736 <__aeabi_dmul+0x24a>

08000910 <__gedf2>:
 8000910:	f04f 3cff 	mov.w	ip, #4294967295
 8000914:	e006      	b.n	8000924 <__cmpdf2+0x4>
 8000916:	bf00      	nop

08000918 <__ledf2>:
 8000918:	f04f 0c01 	mov.w	ip, #1
 800091c:	e002      	b.n	8000924 <__cmpdf2+0x4>
 800091e:	bf00      	nop

08000920 <__cmpdf2>:
 8000920:	f04f 0c01 	mov.w	ip, #1
 8000924:	f84d cd04 	str.w	ip, [sp, #-4]!
 8000928:	ea4f 0c41 	mov.w	ip, r1, lsl #1
 800092c:	ea7f 5c6c 	mvns.w	ip, ip, asr #21
 8000930:	ea4f 0c43 	mov.w	ip, r3, lsl #1
 8000934:	bf18      	it	ne
 8000936:	ea7f 5c6c 	mvnsne.w	ip, ip, asr #21
 800093a:	d01b      	beq.n	8000974 <__cmpdf2+0x54>
 800093c:	b001      	add	sp, #4
 800093e:	ea50 0c41 	orrs.w	ip, r0, r1, lsl #1
 8000942:	bf0c      	ite	eq
 8000944:	ea52 0c43 	orrseq.w	ip, r2, r3, lsl #1
 8000948:	ea91 0f03 	teqne	r1, r3
 800094c:	bf02      	ittt	eq
 800094e:	ea90 0f02 	teqeq	r0, r2
 8000952:	2000      	moveq	r0, #0
 8000954:	4770      	bxeq	lr
 8000956:	f110 0f00 	cmn.w	r0, #0
 800095a:	ea91 0f03 	teq	r1, r3
 800095e:	bf58      	it	pl
 8000960:	4299      	cmppl	r1, r3
 8000962:	bf08      	it	eq
 8000964:	4290      	cmpeq	r0, r2
 8000966:	bf2c      	ite	cs
 8000968:	17d8      	asrcs	r0, r3, #31
 800096a:	ea6f 70e3 	mvncc.w	r0, r3, asr #31
 800096e:	f040 0001 	orr.w	r0, r0, #1
 8000972:	4770      	bx	lr
 8000974:	ea4f 0c41 	mov.w	ip, r1, lsl #1
 8000978:	ea7f 5c6c 	mvns.w	ip, ip, asr #21
 800097c:	d102      	bne.n	8000984 <__cmpdf2+0x64>
 800097e:	ea50 3c01 	orrs.w	ip, r0, r1, lsl #12
 8000982:	d107      	bne.n	8000994 <__cmpdf2+0x74>
 8000984:	ea4f 0c43 	mov.w	ip, r3, lsl #1
 8000988:	ea7f 5c6c 	mvns.w	ip, ip, asr #21
 800098c:	d1d6      	bne.n	800093c <__cmpdf2+0x1c>
 800098e:	ea52 3c03 	orrs.w	ip, r2, r3, lsl #12
 8000992:	d0d3      	beq.n	800093c <__cmpdf2+0x1c>
 8000994:	f85d 0b04 	ldr.w	r0, [sp], #4
 8000998:	4770      	bx	lr
 800099a:	bf00      	nop

0800099c <__aeabi_cdrcmple>:
 800099c:	4684      	mov	ip, r0
 800099e:	4610      	mov	r0, r2
 80009a0:	4662      	mov	r2, ip
 80009a2:	468c      	mov	ip, r1
 80009a4:	4619      	mov	r1, r3
 80009a6:	4663      	mov	r3, ip
 80009a8:	e000      	b.n	80009ac <__aeabi_cdcmpeq>
 80009aa:	bf00      	nop

080009ac <__aeabi_cdcmpeq>:
 80009ac:	b501      	push	{r0, lr}
 80009ae:	f7ff ffb7 	bl	8000920 <__cmpdf2>
 80009b2:	2800      	cmp	r0, #0
 80009b4:	bf48      	it	mi
 80009b6:	f110 0f00 	cmnmi.w	r0, #0
 80009ba:	bd01      	pop	{r0, pc}

080009bc <__aeabi_dcmpeq>:
 80009bc:	f84d ed08 	str.w	lr, [sp, #-8]!
 80009c0:	f7ff fff4 	bl	80009ac <__aeabi_cdcmpeq>
 80009c4:	bf0c      	ite	eq
 80009c6:	2001      	moveq	r0, #1
 80009c8:	2000      	movne	r0, #0
 80009ca:	f85d fb08 	ldr.w	pc, [sp], #8
 80009ce:	bf00      	nop

080009d0 <__aeabi_dcmplt>:
 80009d0:	f84d ed08 	str.w	lr, [sp, #-8]!
 80009d4:	f7ff ffea 	bl	80009ac <__aeabi_cdcmpeq>
 80009d8:	bf34      	ite	cc
 80009da:	2001      	movcc	r0, #1
 80009dc:	2000      	movcs	r0, #0
 80009de:	f85d fb08 	ldr.w	pc, [sp], #8
 80009e2:	bf00      	nop

080009e4 <__aeabi_dcmple>:
 80009e4:	f84d ed08 	str.w	lr, [sp, #-8]!
 80009e8:	f7ff ffe0 	bl	80009ac <__aeabi_cdcmpeq>
 80009ec:	bf94      	ite	ls
 80009ee:	2001      	movls	r0, #1
 80009f0:	2000      	movhi	r0, #0
 80009f2:	f85d fb08 	ldr.w	pc, [sp], #8
 80009f6:	bf00      	nop

080009f8 <__aeabi_dcmpge>:
 80009f8:	f84d ed08 	str.w	lr, [sp, #-8]!
 80009fc:	f7ff ffce 	bl	800099c <__aeabi_cdrcmple>
 8000a00:	bf94      	ite	ls
 8000a02:	2001      	movls	r0, #1
 8000a04:	2000      	movhi	r0, #0
 8000a06:	f85d fb08 	ldr.w	pc, [sp], #8
 8000a0a:	bf00      	nop

08000a0c <__aeabi_dcmpgt>:
 8000a0c:	f84d ed08 	str.w	lr, [sp, #-8]!
 8000a10:	f7ff ffc4 	bl	800099c <__aeabi_cdrcmple>
 8000a14:	bf34      	ite	cc
 8000a16:	2001      	movcc	r0, #1
 8000a18:	2000      	movcs	r0, #0
 8000a1a:	f85d fb08 	ldr.w	pc, [sp], #8
 8000a1e:	bf00      	nop

08000a20 <__aeabi_dcmpun>:
 8000a20:	ea4f 0c41 	mov.w	ip, r1, lsl #1
 8000a24:	ea7f 5c6c 	mvns.w	ip, ip, asr #21
 8000a28:	d102      	bne.n	8000a30 <__aeabi_dcmpun+0x10>
 8000a2a:	ea50 3c01 	orrs.w	ip, r0, r1, lsl #12
 8000a2e:	d10a      	bne.n	8000a46 <__aeabi_dcmpun+0x26>
 8000a30:	ea4f 0c43 	mov.w	ip, r3, lsl #1
 8000a34:	ea7f 5c6c 	mvns.w	ip, ip, asr #21
 8000a38:	d102      	bne.n	8000a40 <__aeabi_dcmpun+0x20>
 8000a3a:	ea52 3c03 	orrs.w	ip, r2, r3, lsl #12
 8000a3e:	d102      	bne.n	8000a46 <__aeabi_dcmpun+0x26>
 8000a40:	f04f 0000 	mov.w	r0, #0
 8000a44:	4770      	bx	lr
 8000a46:	f04f 0001 	mov.w	r0, #1
 8000a4a:	4770      	bx	lr

08000a4c <__aeabi_d2iz>:
 8000a4c:	ea4f 0241 	mov.w	r2, r1, lsl #1
 8000a50:	f512 1200 	adds.w	r2, r2, #2097152	; 0x200000
 8000a54:	d215      	bcs.n	8000a82 <__aeabi_d2iz+0x36>
 8000a56:	d511      	bpl.n	8000a7c <__aeabi_d2iz+0x30>
 8000a58:	f46f 7378 	mvn.w	r3, #992	; 0x3e0
 8000a5c:	ebb3 5262 	subs.w	r2, r3, r2, asr #21
 8000a60:	d912      	bls.n	8000a88 <__aeabi_d2iz+0x3c>
 8000a62:	ea4f 23c1 	mov.w	r3, r1, lsl #11
 8000a66:	f043 4300 	orr.w	r3, r3, #2147483648	; 0x80000000
 8000a6a:	ea43 5350 	orr.w	r3, r3, r0, lsr #21
 8000a6e:	f011 4f00 	tst.w	r1, #2147483648	; 0x80000000
 8000a72:	fa23 f002 	lsr.w	r0, r3, r2
 8000a76:	bf18      	it	ne
 8000a78:	4240      	negne	r0, r0
 8000a7a:	4770      	bx	lr
 8000a7c:	f04f 0000 	mov.w	r0, #0
 8000a80:	4770      	bx	lr
 8000a82:	ea50 3001 	orrs.w	r0, r0, r1, lsl #12
 8000a86:	d105      	bne.n	8000a94 <__aeabi_d2iz+0x48>
 8000a88:	f011 4000 	ands.w	r0, r1, #2147483648	; 0x80000000
 8000a8c:	bf08      	it	eq
 8000a8e:	f06f 4000 	mvneq.w	r0, #2147483648	; 0x80000000
 8000a92:	4770      	bx	lr
 8000a94:	f04f 0000 	mov.w	r0, #0
 8000a98:	4770      	bx	lr
 8000a9a:	bf00      	nop

08000a9c <__aeabi_d2f>:
 8000a9c:	ea4f 0241 	mov.w	r2, r1, lsl #1
 8000aa0:	f1b2 43e0 	subs.w	r3, r2, #1879048192	; 0x70000000
 8000aa4:	bf24      	itt	cs
 8000aa6:	f5b3 1c00 	subscs.w	ip, r3, #2097152	; 0x200000
 8000aaa:	f1dc 5cfe 	rsbscs	ip, ip, #532676608	; 0x1fc00000
 8000aae:	d90d      	bls.n	8000acc <__aeabi_d2f+0x30>
 8000ab0:	f001 4c00 	and.w	ip, r1, #2147483648	; 0x80000000
 8000ab4:	ea4f 02c0 	mov.w	r2, r0, lsl #3
 8000ab8:	ea4c 7050 	orr.w	r0, ip, r0, lsr #29
 8000abc:	f1b2 4f00 	cmp.w	r2, #2147483648	; 0x80000000
 8000ac0:	eb40 0083 	adc.w	r0, r0, r3, lsl #2
 8000ac4:	bf08      	it	eq
 8000ac6:	f020 0001 	biceq.w	r0, r0, #1
 8000aca:	4770      	bx	lr
 8000acc:	f011 4f80 	tst.w	r1, #1073741824	; 0x40000000
 8000ad0:	d121      	bne.n	8000b16 <__aeabi_d2f+0x7a>
 8000ad2:	f113 7238 	adds.w	r2, r3, #48234496	; 0x2e00000
 8000ad6:	bfbc      	itt	lt
 8000ad8:	f001 4000 	andlt.w	r0, r1, #2147483648	; 0x80000000
 8000adc:	4770      	bxlt	lr
 8000ade:	f441 1180 	orr.w	r1, r1, #1048576	; 0x100000
 8000ae2:	ea4f 5252 	mov.w	r2, r2, lsr #21
 8000ae6:	f1c2 0218 	rsb	r2, r2, #24
 8000aea:	f1c2 0c20 	rsb	ip, r2, #32
 8000aee:	fa10 f30c 	lsls.w	r3, r0, ip
 8000af2:	fa20 f002 	lsr.w	r0, r0, r2
 8000af6:	bf18      	it	ne
 8000af8:	f040 0001 	orrne.w	r0, r0, #1
 8000afc:	ea4f 23c1 	mov.w	r3, r1, lsl #11
 8000b00:	ea4f 23d3 	mov.w	r3, r3, lsr #11
 8000b04:	fa03 fc0c 	lsl.w	ip, r3, ip
 8000b08:	ea40 000c 	orr.w	r0, r0, ip
 8000b0c:	fa23 f302 	lsr.w	r3, r3, r2
 8000b10:	ea4f 0343 	mov.w	r3, r3, lsl #1
 8000b14:	e7cc      	b.n	8000ab0 <__aeabi_d2f+0x14>
 8000b16:	ea7f 5362 	mvns.w	r3, r2, asr #21
 8000b1a:	d107      	bne.n	8000b2c <__aeabi_d2f+0x90>
 8000b1c:	ea50 3301 	orrs.w	r3, r0, r1, lsl #12
 8000b20:	bf1e      	ittt	ne
 8000b22:	f04f 40fe 	movne.w	r0, #2130706432	; 0x7f000000
 8000b26:	f440 0040 	orrne.w	r0, r0, #12582912	; 0xc00000
 8000b2a:	4770      	bxne	lr
 8000b2c:	f001 4000 	and.w	r0, r1, #2147483648	; 0x80000000
 8000b30:	f040 40fe 	orr.w	r0, r0, #2130706432	; 0x7f000000
 8000b34:	f440 0000 	orr.w	r0, r0, #8388608	; 0x800000
 8000b38:	4770      	bx	lr
 8000b3a:	bf00      	nop

08000b3c <toggleLedPin>:
 8000b3c:	b510      	push	{r4, lr}
 8000b3e:	4c0e      	ldr	r4, [pc, #56]	; (8000b78 <toggleLedPin+0x3c>)
 8000b40:	b086      	sub	sp, #24
 8000b42:	f44f 5100 	mov.w	r1, #8192	; 0x2000
 8000b46:	4620      	mov	r0, r4
 8000b48:	f001 f81e 	bl	8001b88 <HAL_GPIO_ReadPin>
 8000b4c:	4a0b      	ldr	r2, [pc, #44]	; (8000b7c <toggleLedPin+0x40>)
 8000b4e:	4603      	mov	r3, r0
 8000b50:	2114      	movs	r1, #20
 8000b52:	a801      	add	r0, sp, #4
 8000b54:	f002 fe3c 	bl	80037d0 <sniprintf>
 8000b58:	f44f 5100 	mov.w	r1, #8192	; 0x2000
 8000b5c:	4620      	mov	r0, r4
 8000b5e:	f001 f81e 	bl	8001b9e <HAL_GPIO_TogglePin>
 8000b62:	a801      	add	r0, sp, #4
 8000b64:	f7ff fafe 	bl	8000164 <strlen>
 8000b68:	2364      	movs	r3, #100	; 0x64
 8000b6a:	b282      	uxth	r2, r0
 8000b6c:	a901      	add	r1, sp, #4
 8000b6e:	4804      	ldr	r0, [pc, #16]	; (8000b80 <toggleLedPin+0x44>)
 8000b70:	f001 fefb 	bl	800296a <HAL_UART_Transmit>
 8000b74:	b006      	add	sp, #24
 8000b76:	bd10      	pop	{r4, pc}
 8000b78:	40011000 	.word	0x40011000
 8000b7c:	0800647c 	.word	0x0800647c
 8000b80:	200002e0 	.word	0x200002e0

08000b84 <SystemClock_Config>:
 8000b84:	b510      	push	{r4, lr}
 8000b86:	2414      	movs	r4, #20
 8000b88:	b094      	sub	sp, #80	; 0x50
 8000b8a:	4622      	mov	r2, r4
 8000b8c:	2100      	movs	r1, #0
 8000b8e:	a80c      	add	r0, sp, #48	; 0x30
 8000b90:	f002 fee1 	bl	8003956 <memset>
 8000b94:	4622      	mov	r2, r4
 8000b96:	eb0d 0004 	add.w	r0, sp, r4
 8000b9a:	2100      	movs	r1, #0
 8000b9c:	f002 fedb 	bl	8003956 <memset>
 8000ba0:	2100      	movs	r1, #0
 8000ba2:	2210      	movs	r2, #16
 8000ba4:	a801      	add	r0, sp, #4
 8000ba6:	f002 fed6 	bl	8003956 <memset>
 8000baa:	2402      	movs	r4, #2
 8000bac:	2201      	movs	r2, #1
 8000bae:	f44f 3380 	mov.w	r3, #65536	; 0x10000
 8000bb2:	e9cd 230a 	strd	r2, r3, [sp, #40]	; 0x28
 8000bb6:	e9cd 4311 	strd	r4, r3, [sp, #68]	; 0x44
 8000bba:	f44f 13e0 	mov.w	r3, #1835008	; 0x1c0000
 8000bbe:	a80a      	add	r0, sp, #40	; 0x28
 8000bc0:	920e      	str	r2, [sp, #56]	; 0x38
 8000bc2:	9313      	str	r3, [sp, #76]	; 0x4c
 8000bc4:	f001 f800 	bl	8001bc8 <HAL_RCC_OscConfig>
 8000bc8:	230f      	movs	r3, #15
 8000bca:	f44f 6280 	mov.w	r2, #1024	; 0x400
 8000bce:	e9cd 3405 	strd	r3, r4, [sp, #20]
 8000bd2:	2300      	movs	r3, #0
 8000bd4:	4621      	mov	r1, r4
 8000bd6:	a805      	add	r0, sp, #20
 8000bd8:	e9cd 3207 	strd	r3, r2, [sp, #28]
 8000bdc:	9309      	str	r3, [sp, #36]	; 0x24
 8000bde:	f001 f9b5 	bl	8001f4c <HAL_RCC_ClockConfig>
 8000be2:	f44f 4300 	mov.w	r3, #32768	; 0x8000
 8000be6:	a801      	add	r0, sp, #4
 8000be8:	9401      	str	r4, [sp, #4]
 8000bea:	9303      	str	r3, [sp, #12]
 8000bec:	f001 fa6a 	bl	80020c4 <HAL_RCCEx_PeriphCLKConfig>
 8000bf0:	b014      	add	sp, #80	; 0x50
 8000bf2:	bd10      	pop	{r4, pc}
 8000bf4:	0000      	movs	r0, r0
	...

08000bf8 <main>:
 8000bf8:	e92d 4ff0 	stmdb	sp!, {r4, r5, r6, r7, r8, r9, sl, fp, lr}
 8000bfc:	2510      	movs	r5, #16
 8000bfe:	b09d      	sub	sp, #116	; 0x74
 8000c00:	f000 fb7a 	bl	80012f8 <HAL_Init>
 8000c04:	f7ff ffbe 	bl	8000b84 <SystemClock_Config>
 8000c08:	462a      	mov	r2, r5
 8000c0a:	2100      	movs	r1, #0
 8000c0c:	a80f      	add	r0, sp, #60	; 0x3c
 8000c0e:	f002 fea2 	bl	8003956 <memset>
 8000c12:	4b9b      	ldr	r3, [pc, #620]	; (8000e80 <main+0x288>)
 8000c14:	f44f 5100 	mov.w	r1, #8192	; 0x2000
 8000c18:	699a      	ldr	r2, [r3, #24]
 8000c1a:	489a      	ldr	r0, [pc, #616]	; (8000e84 <main+0x28c>)
 8000c1c:	432a      	orrs	r2, r5
 8000c1e:	619a      	str	r2, [r3, #24]
 8000c20:	699a      	ldr	r2, [r3, #24]
 8000c22:	f04f 0901 	mov.w	r9, #1
 8000c26:	402a      	ands	r2, r5
 8000c28:	9205      	str	r2, [sp, #20]
 8000c2a:	9a05      	ldr	r2, [sp, #20]
 8000c2c:	699a      	ldr	r2, [r3, #24]
 8000c2e:	2400      	movs	r4, #0
 8000c30:	f042 0220 	orr.w	r2, r2, #32
 8000c34:	619a      	str	r2, [r3, #24]
 8000c36:	699a      	ldr	r2, [r3, #24]
 8000c38:	f04f 0a0c 	mov.w	sl, #12
 8000c3c:	f002 0220 	and.w	r2, r2, #32
 8000c40:	9206      	str	r2, [sp, #24]
 8000c42:	9a06      	ldr	r2, [sp, #24]
 8000c44:	699a      	ldr	r2, [r3, #24]
 8000c46:	f44f 2b60 	mov.w	fp, #917504	; 0xe0000
 8000c4a:	f042 0204 	orr.w	r2, r2, #4
 8000c4e:	619a      	str	r2, [r3, #24]
 8000c50:	699a      	ldr	r2, [r3, #24]
 8000c52:	f8df 8234 	ldr.w	r8, [pc, #564]	; 8000e88 <main+0x290>
 8000c56:	f002 0204 	and.w	r2, r2, #4
 8000c5a:	9207      	str	r2, [sp, #28]
 8000c5c:	9a07      	ldr	r2, [sp, #28]
 8000c5e:	699a      	ldr	r2, [r3, #24]
 8000c60:	4f8a      	ldr	r7, [pc, #552]	; (8000e8c <main+0x294>)
 8000c62:	f042 0208 	orr.w	r2, r2, #8
 8000c66:	619a      	str	r2, [r3, #24]
 8000c68:	699b      	ldr	r3, [r3, #24]
 8000c6a:	2200      	movs	r2, #0
 8000c6c:	f003 0308 	and.w	r3, r3, #8
 8000c70:	9308      	str	r3, [sp, #32]
 8000c72:	9b08      	ldr	r3, [sp, #32]
 8000c74:	f000 ff8e 	bl	8001b94 <HAL_GPIO_WritePin>
 8000c78:	f44f 5300 	mov.w	r3, #8192	; 0x2000
 8000c7c:	e9cd 390f 	strd	r3, r9, [sp, #60]	; 0x3c
 8000c80:	2302      	movs	r3, #2
 8000c82:	4880      	ldr	r0, [pc, #512]	; (8000e84 <main+0x28c>)
 8000c84:	a90f      	add	r1, sp, #60	; 0x3c
 8000c86:	e9cd 4311 	strd	r4, r3, [sp, #68]	; 0x44
 8000c8a:	f000 fea7 	bl	80019dc <HAL_GPIO_Init>
 8000c8e:	f44f 7280 	mov.w	r2, #256	; 0x100
 8000c92:	4b7f      	ldr	r3, [pc, #508]	; (8000e90 <main+0x298>)
 8000c94:	487f      	ldr	r0, [pc, #508]	; (8000e94 <main+0x29c>)
 8000c96:	a90f      	add	r1, sp, #60	; 0x3c
 8000c98:	e9cd 230f 	strd	r2, r3, [sp, #60]	; 0x3c
 8000c9c:	9411      	str	r4, [sp, #68]	; 0x44
 8000c9e:	f000 fe9d 	bl	80019dc <HAL_GPIO_Init>
 8000ca2:	4622      	mov	r2, r4
 8000ca4:	4621      	mov	r1, r4
 8000ca6:	2017      	movs	r0, #23
 8000ca8:	f000 fdde 	bl	8001868 <HAL_NVIC_SetPriority>
 8000cac:	2017      	movs	r0, #23
 8000cae:	f000 fe0b 	bl	80018c8 <HAL_NVIC_EnableIRQ>
 8000cb2:	f44f 33e1 	mov.w	r3, #115200	; 0x1c200
 8000cb6:	4978      	ldr	r1, [pc, #480]	; (8000e98 <main+0x2a0>)
 8000cb8:	4640      	mov	r0, r8
 8000cba:	e9c8 1300 	strd	r1, r3, [r8]
 8000cbe:	e9c8 4402 	strd	r4, r4, [r8, #8]
 8000cc2:	e9c8 a405 	strd	sl, r4, [r8, #20]
 8000cc6:	f8c8 4010 	str.w	r4, [r8, #16]
 8000cca:	f8c8 401c 	str.w	r4, [r8, #28]
 8000cce:	f001 fe1d 	bl	800290c <HAL_UART_Init>
 8000cd2:	4b72      	ldr	r3, [pc, #456]	; (8000e9c <main+0x2a4>)
 8000cd4:	4638      	mov	r0, r7
 8000cd6:	4e72      	ldr	r6, [pc, #456]	; (8000ea0 <main+0x2a8>)
 8000cd8:	603b      	str	r3, [r7, #0]
 8000cda:	f887 900c 	strb.w	r9, [r7, #12]
 8000cde:	f8c7 9010 	str.w	r9, [r7, #16]
 8000ce2:	e9cd 440f 	strd	r4, r4, [sp, #60]	; 0x3c
 8000ce6:	9411      	str	r4, [sp, #68]	; 0x44
 8000ce8:	60bc      	str	r4, [r7, #8]
 8000cea:	753c      	strb	r4, [r7, #20]
 8000cec:	f8c7 b01c 	str.w	fp, [r7, #28]
 8000cf0:	607c      	str	r4, [r7, #4]
 8000cf2:	f000 fd29 	bl	8001748 <HAL_ADC_Init>
 8000cf6:	a90f      	add	r1, sp, #60	; 0x3c
 8000cf8:	4638      	mov	r0, r7
 8000cfa:	e9cd 590f 	strd	r5, r9, [sp, #60]	; 0x3c
 8000cfe:	9411      	str	r4, [sp, #68]	; 0x44
 8000d00:	f000 fbe0 	bl	80014c4 <HAL_ADC_ConfigChannel>
 8000d04:	4b67      	ldr	r3, [pc, #412]	; (8000ea4 <main+0x2ac>)
 8000d06:	4630      	mov	r0, r6
 8000d08:	6033      	str	r3, [r6, #0]
 8000d0a:	f886 900c 	strb.w	r9, [r6, #12]
 8000d0e:	f8c6 9010 	str.w	r9, [r6, #16]
 8000d12:	e9cd 440f 	strd	r4, r4, [sp, #60]	; 0x3c
 8000d16:	9411      	str	r4, [sp, #68]	; 0x44
 8000d18:	60b4      	str	r4, [r6, #8]
 8000d1a:	7534      	strb	r4, [r6, #20]
 8000d1c:	f8c6 b01c 	str.w	fp, [r6, #28]
 8000d20:	6074      	str	r4, [r6, #4]
 8000d22:	f000 fd11 	bl	8001748 <HAL_ADC_Init>
 8000d26:	2307      	movs	r3, #7
 8000d28:	e9cd 390f 	strd	r3, r9, [sp, #60]	; 0x3c
 8000d2c:	2306      	movs	r3, #6
 8000d2e:	a90f      	add	r1, sp, #60	; 0x3c
 8000d30:	4630      	mov	r0, r6
 8000d32:	9311      	str	r3, [sp, #68]	; 0x44
 8000d34:	f000 fbc6 	bl	80014c4 <HAL_ADC_ConfigChannel>
 8000d38:	462a      	mov	r2, r5
 8000d3a:	4621      	mov	r1, r4
 8000d3c:	a80b      	add	r0, sp, #44	; 0x2c
 8000d3e:	f002 fe0a 	bl	8003956 <memset>
 8000d42:	221c      	movs	r2, #28
 8000d44:	4621      	mov	r1, r4
 8000d46:	a80f      	add	r0, sp, #60	; 0x3c
 8000d48:	e9cd 4409 	strd	r4, r4, [sp, #36]	; 0x24
 8000d4c:	f002 fe03 	bl	8003956 <memset>
 8000d50:	f04f 4380 	mov.w	r3, #1073741824	; 0x40000000
 8000d54:	4d54      	ldr	r5, [pc, #336]	; (8000ea8 <main+0x2b0>)
 8000d56:	e9c5 3400 	strd	r3, r4, [r5]
 8000d5a:	f64f 73ff 	movw	r3, #65535	; 0xffff
 8000d5e:	e9c5 3403 	strd	r3, r4, [r5, #12]
 8000d62:	2380      	movs	r3, #128	; 0x80
 8000d64:	4628      	mov	r0, r5
 8000d66:	61ab      	str	r3, [r5, #24]
 8000d68:	60ac      	str	r4, [r5, #8]
 8000d6a:	f001 fb2b 	bl	80023c4 <HAL_TIM_Base_Init>
 8000d6e:	f44f 5380 	mov.w	r3, #4096	; 0x1000
 8000d72:	a90b      	add	r1, sp, #44	; 0x2c
 8000d74:	4628      	mov	r0, r5
 8000d76:	930b      	str	r3, [sp, #44]	; 0x2c
 8000d78:	f001 fc0b 	bl	8002592 <HAL_TIM_ConfigClockSource>
 8000d7c:	4628      	mov	r0, r5
 8000d7e:	f001 fb4d 	bl	800241c <HAL_TIM_PWM_Init>
 8000d82:	a909      	add	r1, sp, #36	; 0x24
 8000d84:	4628      	mov	r0, r5
 8000d86:	e9cd 4409 	strd	r4, r4, [sp, #36]	; 0x24
 8000d8a:	f001 fcf7 	bl	800277c <HAL_TIMEx_MasterConfigSynchronization>
 8000d8e:	2360      	movs	r3, #96	; 0x60
 8000d90:	2204      	movs	r2, #4
 8000d92:	a90f      	add	r1, sp, #60	; 0x3c
 8000d94:	4628      	mov	r0, r5
 8000d96:	e9cd 340f 	strd	r3, r4, [sp, #60]	; 0x3c
 8000d9a:	9411      	str	r4, [sp, #68]	; 0x44
 8000d9c:	9413      	str	r4, [sp, #76]	; 0x4c
 8000d9e:	f001 fb95 	bl	80024cc <HAL_TIM_PWM_ConfigChannel>
 8000da2:	2208      	movs	r2, #8
 8000da4:	a90f      	add	r1, sp, #60	; 0x3c
 8000da6:	4628      	mov	r0, r5
 8000da8:	f001 fb90 	bl	80024cc <HAL_TIM_PWM_ConfigChannel>
 8000dac:	4652      	mov	r2, sl
 8000dae:	a90f      	add	r1, sp, #60	; 0x3c
 8000db0:	4628      	mov	r0, r5
 8000db2:	f001 fb8b 	bl	80024cc <HAL_TIM_PWM_ConfigChannel>
 8000db6:	4628      	mov	r0, r5
 8000db8:	f000 f97e 	bl	80010b8 <HAL_TIM_MspPostInit>
 8000dbc:	4638      	mov	r0, r7
 8000dbe:	f000 fc3b 	bl	8001638 <HAL_ADC_Start>
 8000dc2:	4630      	mov	r0, r6
 8000dc4:	f000 fc38 	bl	8001638 <HAL_ADC_Start>
 8000dc8:	464a      	mov	r2, r9
 8000dca:	4640      	mov	r0, r8
 8000dcc:	f20f 09a0 	addw	r9, pc, #160	; 0xa0
 8000dd0:	e9d9 8900 	ldrd	r8, r9, [r9]
 8000dd4:	4935      	ldr	r1, [pc, #212]	; (8000eac <main+0x2b4>)
 8000dd6:	f001 ffdc 	bl	8002d92 <HAL_UART_Receive_IT>
 8000dda:	2104      	movs	r1, #4
 8000ddc:	4628      	mov	r0, r5
 8000dde:	f001 fccb 	bl	8002778 <HAL_TIM_PWM_Start>
 8000de2:	2108      	movs	r1, #8
 8000de4:	4628      	mov	r0, r5
 8000de6:	f001 fcc7 	bl	8002778 <HAL_TIM_PWM_Start>
 8000dea:	4651      	mov	r1, sl
 8000dec:	4628      	mov	r0, r5
 8000dee:	f001 fcc3 	bl	8002778 <HAL_TIM_PWM_Start>
 8000df2:	2164      	movs	r1, #100	; 0x64
 8000df4:	4638      	mov	r0, r7
 8000df6:	f000 fab5 	bl	8001364 <HAL_ADC_PollForConversion>
 8000dfa:	2164      	movs	r1, #100	; 0x64
 8000dfc:	4630      	mov	r0, r6
 8000dfe:	f000 fab1 	bl	8001364 <HAL_ADC_PollForConversion>
 8000e02:	4638      	mov	r0, r7
 8000e04:	f000 fb5a 	bl	80014bc <HAL_ADC_GetValue>
 8000e08:	4604      	mov	r4, r0
 8000e0a:	4630      	mov	r0, r6
 8000e0c:	f000 fb56 	bl	80014bc <HAL_ADC_GetValue>
 8000e10:	b2c0      	uxtb	r0, r0
 8000e12:	9002      	str	r0, [sp, #8]
 8000e14:	b2e0      	uxtb	r0, r4
 8000e16:	f7ff faff 	bl	8000418 <__aeabi_i2d>
 8000e1a:	4642      	mov	r2, r8
 8000e1c:	464b      	mov	r3, r9
 8000e1e:	f7ff fb65 	bl	80004ec <__aeabi_dmul>
 8000e22:	4602      	mov	r2, r0
 8000e24:	460b      	mov	r3, r1
 8000e26:	a114      	add	r1, pc, #80	; (adr r1, 8000e78 <main+0x280>)
 8000e28:	e9d1 0100 	ldrd	r0, r1, [r1]
 8000e2c:	f7ff f9a6 	bl	800017c <__aeabi_dsub>
 8000e30:	4b1f      	ldr	r3, [pc, #124]	; (8000eb0 <main+0x2b8>)
 8000e32:	2200      	movs	r2, #0
 8000e34:	f7ff fc84 	bl	8000740 <__aeabi_ddiv>
 8000e38:	f7ff fe30 	bl	8000a9c <__aeabi_d2f>
 8000e3c:	f7ff fafe 	bl	800043c <__aeabi_f2d>
 8000e40:	4a1c      	ldr	r2, [pc, #112]	; (8000eb4 <main+0x2bc>)
 8000e42:	e9cd 0100 	strd	r0, r1, [sp]
 8000e46:	2132      	movs	r1, #50	; 0x32
 8000e48:	a80f      	add	r0, sp, #60	; 0x3c
 8000e4a:	f002 fcc1 	bl	80037d0 <sniprintf>
 8000e4e:	a80f      	add	r0, sp, #60	; 0x3c
 8000e50:	f7ff f988 	bl	8000164 <strlen>
 8000e54:	2364      	movs	r3, #100	; 0x64
 8000e56:	b282      	uxth	r2, r0
 8000e58:	a90f      	add	r1, sp, #60	; 0x3c
 8000e5a:	480b      	ldr	r0, [pc, #44]	; (8000e88 <main+0x290>)
 8000e5c:	f001 fd85 	bl	800296a <HAL_UART_Transmit>
 8000e60:	f44f 707a 	mov.w	r0, #1000	; 0x3e8
 8000e64:	f000 fa6c 	bl	8001340 <HAL_Delay>
 8000e68:	e7c3      	b.n	8000df2 <main+0x1fa>
 8000e6a:	bf00      	nop
 8000e6c:	f3af 8000 	nop.w
 8000e70:	26394fad 	.word	0x26394fad
 8000e74:	3fc7fb8b 	.word	0x3fc7fb8b
 8000e78:	916872b0 	.word	0x916872b0
 8000e7c:	407658ed 	.word	0x407658ed
 8000e80:	40021000 	.word	0x40021000
 8000e84:	40011000 	.word	0x40011000
 8000e88:	200002e0 	.word	0x200002e0
 8000e8c:	20000238 	.word	0x20000238
 8000e90:	10210000 	.word	0x10210000
 8000e94:	40010c00 	.word	0x40010c00
 8000e98:	40013800 	.word	0x40013800
 8000e9c:	40012400 	.word	0x40012400
 8000ea0:	20000268 	.word	0x20000268
 8000ea4:	40012800 	.word	0x40012800
 8000ea8:	20000298 	.word	0x20000298
 8000eac:	200001fc 	.word	0x200001fc
 8000eb0:	40240000 	.word	0x40240000
 8000eb4:	08006489 	.word	0x08006489

08000eb8 <HAL_GPIO_EXTI_Callback>:
 8000eb8:	b538      	push	{r3, r4, r5, lr}
 8000eba:	4604      	mov	r4, r0
 8000ebc:	f000 fa3a 	bl	8001334 <HAL_GetTick>
 8000ec0:	4d07      	ldr	r5, [pc, #28]	; (8000ee0 <HAL_GPIO_EXTI_Callback+0x28>)
 8000ec2:	f5b4 7f80 	cmp.w	r4, #256	; 0x100
 8000ec6:	6028      	str	r0, [r5, #0]
 8000ec8:	d108      	bne.n	8000edc <HAL_GPIO_EXTI_Callback+0x24>
 8000eca:	4c06      	ldr	r4, [pc, #24]	; (8000ee4 <HAL_GPIO_EXTI_Callback+0x2c>)
 8000ecc:	6823      	ldr	r3, [r4, #0]
 8000ece:	1ac0      	subs	r0, r0, r3
 8000ed0:	28c8      	cmp	r0, #200	; 0xc8
 8000ed2:	d903      	bls.n	8000edc <HAL_GPIO_EXTI_Callback+0x24>
 8000ed4:	f7ff fe32 	bl	8000b3c <toggleLedPin>
 8000ed8:	682b      	ldr	r3, [r5, #0]
 8000eda:	6023      	str	r3, [r4, #0]
 8000edc:	bd38      	pop	{r3, r4, r5, pc}
 8000ede:	bf00      	nop
 8000ee0:	20000200 	.word	0x20000200
 8000ee4:	20000328 	.word	0x20000328

08000ee8 <HAL_UART_RxCpltCallback>:
 8000ee8:	b5f0      	push	{r4, r5, r6, r7, lr}
 8000eea:	4c2e      	ldr	r4, [pc, #184]	; (8000fa4 <HAL_UART_RxCpltCallback+0xbc>)
 8000eec:	4b2e      	ldr	r3, [pc, #184]	; (8000fa8 <HAL_UART_RxCpltCallback+0xc0>)
 8000eee:	f994 2000 	ldrsb.w	r2, [r4]
 8000ef2:	7819      	ldrb	r1, [r3, #0]
 8000ef4:	1c53      	adds	r3, r2, #1
 8000ef6:	b25b      	sxtb	r3, r3
 8000ef8:	290d      	cmp	r1, #13
 8000efa:	482c      	ldr	r0, [pc, #176]	; (8000fac <HAL_UART_RxCpltCallback+0xc4>)
 8000efc:	b093      	sub	sp, #76	; 0x4c
 8000efe:	7023      	strb	r3, [r4, #0]
 8000f00:	d001      	beq.n	8000f06 <HAL_UART_RxCpltCallback+0x1e>
 8000f02:	290a      	cmp	r1, #10
 8000f04:	d14b      	bne.n	8000f9e <HAL_UART_RxCpltCallback+0xb6>
 8000f06:	2300      	movs	r3, #0
 8000f08:	4929      	ldr	r1, [pc, #164]	; (8000fb0 <HAL_UART_RxCpltCallback+0xc8>)
 8000f0a:	5483      	strb	r3, [r0, r2]
 8000f0c:	4a27      	ldr	r2, [pc, #156]	; (8000fac <HAL_UART_RxCpltCallback+0xc4>)
 8000f0e:	a803      	add	r0, sp, #12
 8000f10:	f002 fc92 	bl	8003838 <siprintf>
 8000f14:	a803      	add	r0, sp, #12
 8000f16:	f7ff f925 	bl	8000164 <strlen>
 8000f1a:	a903      	add	r1, sp, #12
 8000f1c:	b282      	uxth	r2, r0
 8000f1e:	2364      	movs	r3, #100	; 0x64
 8000f20:	4824      	ldr	r0, [pc, #144]	; (8000fb4 <HAL_UART_RxCpltCallback+0xcc>)
 8000f22:	f001 fd22 	bl	800296a <HAL_UART_Transmit>
 8000f26:	2204      	movs	r2, #4
 8000f28:	4923      	ldr	r1, [pc, #140]	; (8000fb8 <HAL_UART_RxCpltCallback+0xd0>)
 8000f2a:	4820      	ldr	r0, [pc, #128]	; (8000fac <HAL_UART_RxCpltCallback+0xc4>)
 8000f2c:	f002 fd1b 	bl	8003966 <strncmp>
 8000f30:	bb60      	cbnz	r0, 8000f8c <HAL_UART_RxCpltCallback+0xa4>
 8000f32:	4e22      	ldr	r6, [pc, #136]	; (8000fbc <HAL_UART_RxCpltCallback+0xd4>)
 8000f34:	4f22      	ldr	r7, [pc, #136]	; (8000fc0 <HAL_UART_RxCpltCallback+0xd8>)
 8000f36:	4d23      	ldr	r5, [pc, #140]	; (8000fc4 <HAL_UART_RxCpltCallback+0xdc>)
 8000f38:	4633      	mov	r3, r6
 8000f3a:	463a      	mov	r2, r7
 8000f3c:	4922      	ldr	r1, [pc, #136]	; (8000fc8 <HAL_UART_RxCpltCallback+0xe0>)
 8000f3e:	481b      	ldr	r0, [pc, #108]	; (8000fac <HAL_UART_RxCpltCallback+0xc4>)
 8000f40:	9500      	str	r5, [sp, #0]
 8000f42:	f002 fc99 	bl	8003878 <siscanf>
 8000f46:	f64f 70ff 	movw	r0, #65535	; 0xffff
 8000f4a:	f04f 4180 	mov.w	r1, #1073741824	; 0x40000000
 8000f4e:	683a      	ldr	r2, [r7, #0]
 8000f50:	6833      	ldr	r3, [r6, #0]
 8000f52:	eba2 2202 	sub.w	r2, r2, r2, lsl #8
 8000f56:	eba3 2303 	sub.w	r3, r3, r3, lsl #8
 8000f5a:	4403      	add	r3, r0
 8000f5c:	4402      	add	r2, r0
 8000f5e:	638a      	str	r2, [r1, #56]	; 0x38
 8000f60:	63cb      	str	r3, [r1, #60]	; 0x3c
 8000f62:	682b      	ldr	r3, [r5, #0]
 8000f64:	eba3 2303 	sub.w	r3, r3, r3, lsl #8
 8000f68:	4403      	add	r3, r0
 8000f6a:	640b      	str	r3, [r1, #64]	; 0x40
 8000f6c:	2100      	movs	r1, #0
 8000f6e:	f994 2000 	ldrsb.w	r2, [r4]
 8000f72:	480e      	ldr	r0, [pc, #56]	; (8000fac <HAL_UART_RxCpltCallback+0xc4>)
 8000f74:	f002 fcef 	bl	8003956 <memset>
 8000f78:	2300      	movs	r3, #0
 8000f7a:	7023      	strb	r3, [r4, #0]
 8000f7c:	2201      	movs	r2, #1
 8000f7e:	490a      	ldr	r1, [pc, #40]	; (8000fa8 <HAL_UART_RxCpltCallback+0xc0>)
 8000f80:	480c      	ldr	r0, [pc, #48]	; (8000fb4 <HAL_UART_RxCpltCallback+0xcc>)
 8000f82:	b013      	add	sp, #76	; 0x4c
 8000f84:	e8bd 40f0 	ldmia.w	sp!, {r4, r5, r6, r7, lr}
 8000f88:	f001 bf03 	b.w	8002d92 <HAL_UART_Receive_IT>
 8000f8c:	490f      	ldr	r1, [pc, #60]	; (8000fcc <HAL_UART_RxCpltCallback+0xe4>)
 8000f8e:	4807      	ldr	r0, [pc, #28]	; (8000fac <HAL_UART_RxCpltCallback+0xc4>)
 8000f90:	f7ff f8de 	bl	8000150 <strcmp>
 8000f94:	2800      	cmp	r0, #0
 8000f96:	d1e9      	bne.n	8000f6c <HAL_UART_RxCpltCallback+0x84>
 8000f98:	f7ff fdd0 	bl	8000b3c <toggleLedPin>
 8000f9c:	e7e6      	b.n	8000f6c <HAL_UART_RxCpltCallback+0x84>
 8000f9e:	5481      	strb	r1, [r0, r2]
 8000fa0:	e7ec      	b.n	8000f7c <HAL_UART_RxCpltCallback+0x94>
 8000fa2:	bf00      	nop
 8000fa4:	200001fd 	.word	0x200001fd
 8000fa8:	200001fc 	.word	0x200001fc
 8000fac:	20000204 	.word	0x20000204
 8000fb0:	080064b2 	.word	0x080064b2
 8000fb4:	200002e0 	.word	0x200002e0
 8000fb8:	080064b7 	.word	0x080064b7
 8000fbc:	200001f4 	.word	0x200001f4
 8000fc0:	200001f8 	.word	0x200001f8
 8000fc4:	200001f0 	.word	0x200001f0
 8000fc8:	080064bc 	.word	0x080064bc
 8000fcc:	080064c9 	.word	0x080064c9

08000fd0 <HAL_MspInit>:
 8000fd0:	4b0e      	ldr	r3, [pc, #56]	; (800100c <HAL_MspInit+0x3c>)
 8000fd2:	b082      	sub	sp, #8
 8000fd4:	699a      	ldr	r2, [r3, #24]
 8000fd6:	f042 0201 	orr.w	r2, r2, #1
 8000fda:	619a      	str	r2, [r3, #24]
 8000fdc:	699a      	ldr	r2, [r3, #24]
 8000fde:	f002 0201 	and.w	r2, r2, #1
 8000fe2:	9200      	str	r2, [sp, #0]
 8000fe4:	9a00      	ldr	r2, [sp, #0]
 8000fe6:	69da      	ldr	r2, [r3, #28]
 8000fe8:	f042 5280 	orr.w	r2, r2, #268435456	; 0x10000000
 8000fec:	61da      	str	r2, [r3, #28]
 8000fee:	69db      	ldr	r3, [r3, #28]
 8000ff0:	4a07      	ldr	r2, [pc, #28]	; (8001010 <HAL_MspInit+0x40>)
 8000ff2:	f003 5380 	and.w	r3, r3, #268435456	; 0x10000000
 8000ff6:	9301      	str	r3, [sp, #4]
 8000ff8:	9b01      	ldr	r3, [sp, #4]
 8000ffa:	6853      	ldr	r3, [r2, #4]
 8000ffc:	f023 63e0 	bic.w	r3, r3, #117440512	; 0x7000000
 8001000:	f043 7300 	orr.w	r3, r3, #33554432	; 0x2000000
 8001004:	6053      	str	r3, [r2, #4]
 8001006:	b002      	add	sp, #8
 8001008:	4770      	bx	lr
 800100a:	bf00      	nop
 800100c:	40021000 	.word	0x40021000
 8001010:	40010000 	.word	0x40010000

08001014 <HAL_ADC_MspInit>:
 8001014:	2210      	movs	r2, #16
 8001016:	b510      	push	{r4, lr}
 8001018:	4604      	mov	r4, r0
 800101a:	b088      	sub	sp, #32
 800101c:	eb0d 0002 	add.w	r0, sp, r2
 8001020:	2100      	movs	r1, #0
 8001022:	f002 fc98 	bl	8003956 <memset>
 8001026:	6823      	ldr	r3, [r4, #0]
 8001028:	4a16      	ldr	r2, [pc, #88]	; (8001084 <HAL_ADC_MspInit+0x70>)
 800102a:	4293      	cmp	r3, r2
 800102c:	d10b      	bne.n	8001046 <HAL_ADC_MspInit+0x32>
 800102e:	4b16      	ldr	r3, [pc, #88]	; (8001088 <HAL_ADC_MspInit+0x74>)
 8001030:	699a      	ldr	r2, [r3, #24]
 8001032:	f442 7200 	orr.w	r2, r2, #512	; 0x200
 8001036:	619a      	str	r2, [r3, #24]
 8001038:	699b      	ldr	r3, [r3, #24]
 800103a:	f403 7300 	and.w	r3, r3, #512	; 0x200
 800103e:	9301      	str	r3, [sp, #4]
 8001040:	9b01      	ldr	r3, [sp, #4]
 8001042:	b008      	add	sp, #32
 8001044:	bd10      	pop	{r4, pc}
 8001046:	4a11      	ldr	r2, [pc, #68]	; (800108c <HAL_ADC_MspInit+0x78>)
 8001048:	4293      	cmp	r3, r2
 800104a:	d1fa      	bne.n	8001042 <HAL_ADC_MspInit+0x2e>
 800104c:	4b0e      	ldr	r3, [pc, #56]	; (8001088 <HAL_ADC_MspInit+0x74>)
 800104e:	4810      	ldr	r0, [pc, #64]	; (8001090 <HAL_ADC_MspInit+0x7c>)
 8001050:	699a      	ldr	r2, [r3, #24]
 8001052:	a904      	add	r1, sp, #16
 8001054:	f442 6280 	orr.w	r2, r2, #1024	; 0x400
 8001058:	619a      	str	r2, [r3, #24]
 800105a:	699a      	ldr	r2, [r3, #24]
 800105c:	f402 6280 	and.w	r2, r2, #1024	; 0x400
 8001060:	9202      	str	r2, [sp, #8]
 8001062:	9a02      	ldr	r2, [sp, #8]
 8001064:	699a      	ldr	r2, [r3, #24]
 8001066:	f042 0204 	orr.w	r2, r2, #4
 800106a:	619a      	str	r2, [r3, #24]
 800106c:	699b      	ldr	r3, [r3, #24]
 800106e:	2280      	movs	r2, #128	; 0x80
 8001070:	f003 0304 	and.w	r3, r3, #4
 8001074:	9303      	str	r3, [sp, #12]
 8001076:	9b03      	ldr	r3, [sp, #12]
 8001078:	2303      	movs	r3, #3
 800107a:	e9cd 2304 	strd	r2, r3, [sp, #16]
 800107e:	f000 fcad 	bl	80019dc <HAL_GPIO_Init>
 8001082:	e7de      	b.n	8001042 <HAL_ADC_MspInit+0x2e>
 8001084:	40012400 	.word	0x40012400
 8001088:	40021000 	.word	0x40021000
 800108c:	40012800 	.word	0x40012800
 8001090:	40010800 	.word	0x40010800

08001094 <HAL_TIM_Base_MspInit>:
 8001094:	6803      	ldr	r3, [r0, #0]
 8001096:	b082      	sub	sp, #8
 8001098:	f1b3 4f80 	cmp.w	r3, #1073741824	; 0x40000000
 800109c:	d10a      	bne.n	80010b4 <HAL_TIM_Base_MspInit+0x20>
 800109e:	f503 3304 	add.w	r3, r3, #135168	; 0x21000
 80010a2:	69da      	ldr	r2, [r3, #28]
 80010a4:	f042 0201 	orr.w	r2, r2, #1
 80010a8:	61da      	str	r2, [r3, #28]
 80010aa:	69db      	ldr	r3, [r3, #28]
 80010ac:	f003 0301 	and.w	r3, r3, #1
 80010b0:	9301      	str	r3, [sp, #4]
 80010b2:	9b01      	ldr	r3, [sp, #4]
 80010b4:	b002      	add	sp, #8
 80010b6:	4770      	bx	lr

080010b8 <HAL_TIM_MspPostInit>:
 80010b8:	b510      	push	{r4, lr}
 80010ba:	4604      	mov	r4, r0
 80010bc:	b086      	sub	sp, #24
 80010be:	2210      	movs	r2, #16
 80010c0:	2100      	movs	r1, #0
 80010c2:	a802      	add	r0, sp, #8
 80010c4:	f002 fc47 	bl	8003956 <memset>
 80010c8:	6823      	ldr	r3, [r4, #0]
 80010ca:	f1b3 4f80 	cmp.w	r3, #1073741824	; 0x40000000
 80010ce:	d113      	bne.n	80010f8 <HAL_TIM_MspPostInit+0x40>
 80010d0:	f503 3304 	add.w	r3, r3, #135168	; 0x21000
 80010d4:	699a      	ldr	r2, [r3, #24]
 80010d6:	4809      	ldr	r0, [pc, #36]	; (80010fc <HAL_TIM_MspPostInit+0x44>)
 80010d8:	f042 0204 	orr.w	r2, r2, #4
 80010dc:	619a      	str	r2, [r3, #24]
 80010de:	699b      	ldr	r3, [r3, #24]
 80010e0:	220e      	movs	r2, #14
 80010e2:	f003 0304 	and.w	r3, r3, #4
 80010e6:	9301      	str	r3, [sp, #4]
 80010e8:	9b01      	ldr	r3, [sp, #4]
 80010ea:	2302      	movs	r3, #2
 80010ec:	a902      	add	r1, sp, #8
 80010ee:	e9cd 2302 	strd	r2, r3, [sp, #8]
 80010f2:	9305      	str	r3, [sp, #20]
 80010f4:	f000 fc72 	bl	80019dc <HAL_GPIO_Init>
 80010f8:	b006      	add	sp, #24
 80010fa:	bd10      	pop	{r4, pc}
 80010fc:	40010800 	.word	0x40010800

08001100 <HAL_UART_MspInit>:
 8001100:	b510      	push	{r4, lr}
 8001102:	4604      	mov	r4, r0
 8001104:	b086      	sub	sp, #24
 8001106:	2210      	movs	r2, #16
 8001108:	2100      	movs	r1, #0
 800110a:	a802      	add	r0, sp, #8
 800110c:	f002 fc23 	bl	8003956 <memset>
 8001110:	6822      	ldr	r2, [r4, #0]
 8001112:	4b1b      	ldr	r3, [pc, #108]	; (8001180 <HAL_UART_MspInit+0x80>)
 8001114:	429a      	cmp	r2, r3
 8001116:	d130      	bne.n	800117a <HAL_UART_MspInit+0x7a>
 8001118:	f503 4358 	add.w	r3, r3, #55296	; 0xd800
 800111c:	699a      	ldr	r2, [r3, #24]
 800111e:	4819      	ldr	r0, [pc, #100]	; (8001184 <HAL_UART_MspInit+0x84>)
 8001120:	f442 4280 	orr.w	r2, r2, #16384	; 0x4000
 8001124:	619a      	str	r2, [r3, #24]
 8001126:	699a      	ldr	r2, [r3, #24]
 8001128:	a902      	add	r1, sp, #8
 800112a:	f402 4280 	and.w	r2, r2, #16384	; 0x4000
 800112e:	9200      	str	r2, [sp, #0]
 8001130:	9a00      	ldr	r2, [sp, #0]
 8001132:	699a      	ldr	r2, [r3, #24]
 8001134:	2400      	movs	r4, #0
 8001136:	f042 0204 	orr.w	r2, r2, #4
 800113a:	619a      	str	r2, [r3, #24]
 800113c:	699b      	ldr	r3, [r3, #24]
 800113e:	f44f 7200 	mov.w	r2, #512	; 0x200
 8001142:	f003 0304 	and.w	r3, r3, #4
 8001146:	9301      	str	r3, [sp, #4]
 8001148:	9b01      	ldr	r3, [sp, #4]
 800114a:	2302      	movs	r3, #2
 800114c:	e9cd 2302 	strd	r2, r3, [sp, #8]
 8001150:	2303      	movs	r3, #3
 8001152:	9305      	str	r3, [sp, #20]
 8001154:	f000 fc42 	bl	80019dc <HAL_GPIO_Init>
 8001158:	f44f 6380 	mov.w	r3, #1024	; 0x400
 800115c:	4809      	ldr	r0, [pc, #36]	; (8001184 <HAL_UART_MspInit+0x84>)
 800115e:	a902      	add	r1, sp, #8
 8001160:	e9cd 3402 	strd	r3, r4, [sp, #8]
 8001164:	9404      	str	r4, [sp, #16]
 8001166:	f000 fc39 	bl	80019dc <HAL_GPIO_Init>
 800116a:	2025      	movs	r0, #37	; 0x25
 800116c:	4622      	mov	r2, r4
 800116e:	4621      	mov	r1, r4
 8001170:	f000 fb7a 	bl	8001868 <HAL_NVIC_SetPriority>
 8001174:	2025      	movs	r0, #37	; 0x25
 8001176:	f000 fba7 	bl	80018c8 <HAL_NVIC_EnableIRQ>
 800117a:	b006      	add	sp, #24
 800117c:	bd10      	pop	{r4, pc}
 800117e:	bf00      	nop
 8001180:	40013800 	.word	0x40013800
 8001184:	40010800 	.word	0x40010800

08001188 <NMI_Handler>:
 8001188:	e7fe      	b.n	8001188 <NMI_Handler>

0800118a <HardFault_Handler>:
 800118a:	e7fe      	b.n	800118a <HardFault_Handler>

0800118c <MemManage_Handler>:
 800118c:	e7fe      	b.n	800118c <MemManage_Handler>

0800118e <BusFault_Handler>:
 800118e:	e7fe      	b.n	800118e <BusFault_Handler>

08001190 <UsageFault_Handler>:
 8001190:	e7fe      	b.n	8001190 <UsageFault_Handler>

08001192 <SVC_Handler>:
 8001192:	4770      	bx	lr

08001194 <DebugMon_Handler>:
 8001194:	4770      	bx	lr

08001196 <PendSV_Handler>:
 8001196:	4770      	bx	lr

08001198 <SysTick_Handler>:
 8001198:	f000 b8c0 	b.w	800131c <HAL_IncTick>

0800119c <EXTI9_5_IRQHandler>:
 800119c:	f44f 7080 	mov.w	r0, #256	; 0x100
 80011a0:	f000 bd06 	b.w	8001bb0 <HAL_GPIO_EXTI_IRQHandler>

080011a4 <USART1_IRQHandler>:
 80011a4:	4801      	ldr	r0, [pc, #4]	; (80011ac <USART1_IRQHandler+0x8>)
 80011a6:	f001 bc91 	b.w	8002acc <HAL_UART_IRQHandler>
 80011aa:	bf00      	nop
 80011ac:	200002e0 	.word	0x200002e0

080011b0 <_getpid>:
 80011b0:	2001      	movs	r0, #1
 80011b2:	4770      	bx	lr

080011b4 <_kill>:
 80011b4:	b508      	push	{r3, lr}
 80011b6:	f002 fc33 	bl	8003a20 <__errno>
 80011ba:	2316      	movs	r3, #22
 80011bc:	6003      	str	r3, [r0, #0]
 80011be:	f04f 30ff 	mov.w	r0, #4294967295
 80011c2:	bd08      	pop	{r3, pc}

080011c4 <_exit>:
 80011c4:	b508      	push	{r3, lr}
 80011c6:	f002 fc2b 	bl	8003a20 <__errno>
 80011ca:	2316      	movs	r3, #22
 80011cc:	6003      	str	r3, [r0, #0]
 80011ce:	e7fe      	b.n	80011ce <_exit+0xa>

080011d0 <_read>:
 80011d0:	b570      	push	{r4, r5, r6, lr}
 80011d2:	460d      	mov	r5, r1
 80011d4:	4614      	mov	r4, r2
 80011d6:	460e      	mov	r6, r1
 80011d8:	1b73      	subs	r3, r6, r5
 80011da:	429c      	cmp	r4, r3
 80011dc:	dc01      	bgt.n	80011e2 <_read+0x12>
 80011de:	4620      	mov	r0, r4
 80011e0:	bd70      	pop	{r4, r5, r6, pc}
 80011e2:	f3af 8000 	nop.w
 80011e6:	f806 0b01 	strb.w	r0, [r6], #1
 80011ea:	e7f5      	b.n	80011d8 <_read+0x8>

080011ec <_write>:
 80011ec:	b570      	push	{r4, r5, r6, lr}
 80011ee:	460d      	mov	r5, r1
 80011f0:	4614      	mov	r4, r2
 80011f2:	460e      	mov	r6, r1
 80011f4:	1b73      	subs	r3, r6, r5
 80011f6:	429c      	cmp	r4, r3
 80011f8:	dc01      	bgt.n	80011fe <_write+0x12>
 80011fa:	4620      	mov	r0, r4
 80011fc:	bd70      	pop	{r4, r5, r6, pc}
 80011fe:	f816 0b01 	ldrb.w	r0, [r6], #1
 8001202:	f3af 8000 	nop.w
 8001206:	e7f5      	b.n	80011f4 <_write+0x8>

08001208 <_close>:
 8001208:	f04f 30ff 	mov.w	r0, #4294967295
 800120c:	4770      	bx	lr

0800120e <_fstat>:
 800120e:	f44f 5300 	mov.w	r3, #8192	; 0x2000
 8001212:	2000      	movs	r0, #0
 8001214:	604b      	str	r3, [r1, #4]
 8001216:	4770      	bx	lr

08001218 <_isatty>:
 8001218:	2001      	movs	r0, #1
 800121a:	4770      	bx	lr

0800121c <_lseek>:
 800121c:	2000      	movs	r0, #0
 800121e:	4770      	bx	lr

08001220 <_sbrk>:
 8001220:	4a0b      	ldr	r2, [pc, #44]	; (8001250 <_sbrk+0x30>)
 8001222:	4603      	mov	r3, r0
 8001224:	6811      	ldr	r1, [r2, #0]
 8001226:	b510      	push	{r4, lr}
 8001228:	b909      	cbnz	r1, 800122e <_sbrk+0xe>
 800122a:	490a      	ldr	r1, [pc, #40]	; (8001254 <_sbrk+0x34>)
 800122c:	6011      	str	r1, [r2, #0]
 800122e:	6810      	ldr	r0, [r2, #0]
 8001230:	4909      	ldr	r1, [pc, #36]	; (8001258 <_sbrk+0x38>)
 8001232:	4c0a      	ldr	r4, [pc, #40]	; (800125c <_sbrk+0x3c>)
 8001234:	4403      	add	r3, r0
 8001236:	1b09      	subs	r1, r1, r4
 8001238:	428b      	cmp	r3, r1
 800123a:	d906      	bls.n	800124a <_sbrk+0x2a>
 800123c:	f002 fbf0 	bl	8003a20 <__errno>
 8001240:	230c      	movs	r3, #12
 8001242:	6003      	str	r3, [r0, #0]
 8001244:	f04f 30ff 	mov.w	r0, #4294967295
 8001248:	bd10      	pop	{r4, pc}
 800124a:	6013      	str	r3, [r2, #0]
 800124c:	e7fc      	b.n	8001248 <_sbrk+0x28>
 800124e:	bf00      	nop
 8001250:	2000032c 	.word	0x2000032c
 8001254:	20000480 	.word	0x20000480
 8001258:	20002800 	.word	0x20002800
 800125c:	00000400 	.word	0x00000400

08001260 <SystemInit>:
 8001260:	4770      	bx	lr
	...

08001264 <Reset_Handler>:
 8001264:	f7ff fffc 	bl	8001260 <SystemInit>
 8001268:	480b      	ldr	r0, [pc, #44]	; (8001298 <LoopFillZerobss+0xe>)
 800126a:	490c      	ldr	r1, [pc, #48]	; (800129c <LoopFillZerobss+0x12>)
 800126c:	4a0c      	ldr	r2, [pc, #48]	; (80012a0 <LoopFillZerobss+0x16>)
 800126e:	2300      	movs	r3, #0
 8001270:	e002      	b.n	8001278 <LoopCopyDataInit>

08001272 <CopyDataInit>:
 8001272:	58d4      	ldr	r4, [r2, r3]
 8001274:	50c4      	str	r4, [r0, r3]
 8001276:	3304      	adds	r3, #4

08001278 <LoopCopyDataInit>:
 8001278:	18c4      	adds	r4, r0, r3
 800127a:	428c      	cmp	r4, r1
 800127c:	d3f9      	bcc.n	8001272 <CopyDataInit>
 800127e:	4a09      	ldr	r2, [pc, #36]	; (80012a4 <LoopFillZerobss+0x1a>)
 8001280:	4c09      	ldr	r4, [pc, #36]	; (80012a8 <LoopFillZerobss+0x1e>)
 8001282:	2300      	movs	r3, #0
 8001284:	e001      	b.n	800128a <LoopFillZerobss>

08001286 <FillZerobss>:
 8001286:	6013      	str	r3, [r2, #0]
 8001288:	3204      	adds	r2, #4

0800128a <LoopFillZerobss>:
 800128a:	42a2      	cmp	r2, r4
 800128c:	d3fb      	bcc.n	8001286 <FillZerobss>
 800128e:	f002 fbcd 	bl	8003a2c <__libc_init_array>
 8001292:	f7ff fcb1 	bl	8000bf8 <main>
 8001296:	4770      	bx	lr
 8001298:	20000000 	.word	0x20000000
 800129c:	200001d4 	.word	0x200001d4
 80012a0:	080068a0 	.word	0x080068a0
 80012a4:	200001d4 	.word	0x200001d4
 80012a8:	20000480 	.word	0x20000480

080012ac <ADC1_2_IRQHandler>:
 80012ac:	e7fe      	b.n	80012ac <ADC1_2_IRQHandler>
	...

080012b0 <HAL_InitTick>:
 80012b0:	b538      	push	{r3, r4, r5, lr}
 80012b2:	4b0e      	ldr	r3, [pc, #56]	; (80012ec <HAL_InitTick+0x3c>)
 80012b4:	4605      	mov	r5, r0
 80012b6:	781a      	ldrb	r2, [r3, #0]
 80012b8:	f44f 737a 	mov.w	r3, #1000	; 0x3e8
 80012bc:	fbb3 f3f2 	udiv	r3, r3, r2
 80012c0:	4a0b      	ldr	r2, [pc, #44]	; (80012f0 <HAL_InitTick+0x40>)
 80012c2:	6810      	ldr	r0, [r2, #0]
 80012c4:	fbb0 f0f3 	udiv	r0, r0, r3
 80012c8:	f000 fb0c 	bl	80018e4 <HAL_SYSTICK_Config>
 80012cc:	4604      	mov	r4, r0
 80012ce:	b958      	cbnz	r0, 80012e8 <HAL_InitTick+0x38>
 80012d0:	2d0f      	cmp	r5, #15
 80012d2:	d809      	bhi.n	80012e8 <HAL_InitTick+0x38>
 80012d4:	4602      	mov	r2, r0
 80012d6:	4629      	mov	r1, r5
 80012d8:	f04f 30ff 	mov.w	r0, #4294967295
 80012dc:	f000 fac4 	bl	8001868 <HAL_NVIC_SetPriority>
 80012e0:	4620      	mov	r0, r4
 80012e2:	4b04      	ldr	r3, [pc, #16]	; (80012f4 <HAL_InitTick+0x44>)
 80012e4:	601d      	str	r5, [r3, #0]
 80012e6:	bd38      	pop	{r3, r4, r5, pc}
 80012e8:	2001      	movs	r0, #1
 80012ea:	e7fc      	b.n	80012e6 <HAL_InitTick+0x36>
 80012ec:	20000004 	.word	0x20000004
 80012f0:	20000000 	.word	0x20000000
 80012f4:	20000008 	.word	0x20000008

080012f8 <HAL_Init>:
 80012f8:	4a07      	ldr	r2, [pc, #28]	; (8001318 <HAL_Init+0x20>)
 80012fa:	b508      	push	{r3, lr}
 80012fc:	6813      	ldr	r3, [r2, #0]
 80012fe:	2003      	movs	r0, #3
 8001300:	f043 0310 	orr.w	r3, r3, #16
 8001304:	6013      	str	r3, [r2, #0]
 8001306:	f000 fa9d 	bl	8001844 <HAL_NVIC_SetPriorityGrouping>
 800130a:	200f      	movs	r0, #15
 800130c:	f7ff ffd0 	bl	80012b0 <HAL_InitTick>
 8001310:	f7ff fe5e 	bl	8000fd0 <HAL_MspInit>
 8001314:	2000      	movs	r0, #0
 8001316:	bd08      	pop	{r3, pc}
 8001318:	40022000 	.word	0x40022000

0800131c <HAL_IncTick>:
 800131c:	4a03      	ldr	r2, [pc, #12]	; (800132c <HAL_IncTick+0x10>)
 800131e:	4b04      	ldr	r3, [pc, #16]	; (8001330 <HAL_IncTick+0x14>)
 8001320:	6811      	ldr	r1, [r2, #0]
 8001322:	781b      	ldrb	r3, [r3, #0]
 8001324:	440b      	add	r3, r1
 8001326:	6013      	str	r3, [r2, #0]
 8001328:	4770      	bx	lr
 800132a:	bf00      	nop
 800132c:	20000330 	.word	0x20000330
 8001330:	20000004 	.word	0x20000004

08001334 <HAL_GetTick>:
 8001334:	4b01      	ldr	r3, [pc, #4]	; (800133c <HAL_GetTick+0x8>)
 8001336:	6818      	ldr	r0, [r3, #0]
 8001338:	4770      	bx	lr
 800133a:	bf00      	nop
 800133c:	20000330 	.word	0x20000330

08001340 <HAL_Delay>:
 8001340:	b538      	push	{r3, r4, r5, lr}
 8001342:	4604      	mov	r4, r0
 8001344:	f7ff fff6 	bl	8001334 <HAL_GetTick>
 8001348:	4605      	mov	r5, r0
 800134a:	1c63      	adds	r3, r4, #1
 800134c:	bf1e      	ittt	ne
 800134e:	4b04      	ldrne	r3, [pc, #16]	; (8001360 <HAL_Delay+0x20>)
 8001350:	781b      	ldrbne	r3, [r3, #0]
 8001352:	18e4      	addne	r4, r4, r3
 8001354:	f7ff ffee 	bl	8001334 <HAL_GetTick>
 8001358:	1b43      	subs	r3, r0, r5
 800135a:	42a3      	cmp	r3, r4
 800135c:	d3fa      	bcc.n	8001354 <HAL_Delay+0x14>
 800135e:	bd38      	pop	{r3, r4, r5, pc}
 8001360:	20000004 	.word	0x20000004

08001364 <HAL_ADC_PollForConversion>:
 8001364:	b5f7      	push	{r0, r1, r2, r4, r5, r6, r7, lr}
 8001366:	2600      	movs	r6, #0
 8001368:	4604      	mov	r4, r0
 800136a:	460d      	mov	r5, r1
 800136c:	9601      	str	r6, [sp, #4]
 800136e:	f7ff ffe1 	bl	8001334 <HAL_GetTick>
 8001372:	6823      	ldr	r3, [r4, #0]
 8001374:	4607      	mov	r7, r0
 8001376:	689a      	ldr	r2, [r3, #8]
 8001378:	05d2      	lsls	r2, r2, #23
 800137a:	d508      	bpl.n	800138e <HAL_ADC_PollForConversion+0x2a>
 800137c:	2001      	movs	r0, #1
 800137e:	6aa3      	ldr	r3, [r4, #40]	; 0x28
 8001380:	f884 6024 	strb.w	r6, [r4, #36]	; 0x24
 8001384:	f043 0320 	orr.w	r3, r3, #32
 8001388:	62a3      	str	r3, [r4, #40]	; 0x28
 800138a:	b003      	add	sp, #12
 800138c:	bdf0      	pop	{r4, r5, r6, r7, pc}
 800138e:	685a      	ldr	r2, [r3, #4]
 8001390:	05d6      	lsls	r6, r2, #23
 8001392:	d403      	bmi.n	800139c <HAL_ADC_PollForConversion+0x38>
 8001394:	6adb      	ldr	r3, [r3, #44]	; 0x2c
 8001396:	f413 0f70 	tst.w	r3, #15728640	; 0xf00000
 800139a:	d03f      	beq.n	800141c <HAL_ADC_PollForConversion+0xb8>
 800139c:	4b41      	ldr	r3, [pc, #260]	; (80014a4 <HAL_ADC_PollForConversion+0x140>)
 800139e:	2002      	movs	r0, #2
 80013a0:	681e      	ldr	r6, [r3, #0]
 80013a2:	f000 ff09 	bl	80021b8 <HAL_RCCEx_GetPeriphCLKFreq>
 80013a6:	6823      	ldr	r3, [r4, #0]
 80013a8:	4a3f      	ldr	r2, [pc, #252]	; (80014a8 <HAL_ADC_PollForConversion+0x144>)
 80013aa:	6919      	ldr	r1, [r3, #16]
 80013ac:	fbb6 f6f0 	udiv	r6, r6, r0
 80013b0:	4211      	tst	r1, r2
 80013b2:	4a3e      	ldr	r2, [pc, #248]	; (80014ac <HAL_ADC_PollForConversion+0x148>)
 80013b4:	d153      	bne.n	800145e <HAL_ADC_PollForConversion+0xfa>
 80013b6:	68d8      	ldr	r0, [r3, #12]
 80013b8:	493d      	ldr	r1, [pc, #244]	; (80014b0 <HAL_ADC_PollForConversion+0x14c>)
 80013ba:	4208      	tst	r0, r1
 80013bc:	d14f      	bne.n	800145e <HAL_ADC_PollForConversion+0xfa>
 80013be:	6919      	ldr	r1, [r3, #16]
 80013c0:	4211      	tst	r1, r2
 80013c2:	d15d      	bne.n	8001480 <HAL_ADC_PollForConversion+0x11c>
 80013c4:	68da      	ldr	r2, [r3, #12]
 80013c6:	4b3b      	ldr	r3, [pc, #236]	; (80014b4 <HAL_ADC_PollForConversion+0x150>)
 80013c8:	421a      	tst	r2, r3
 80013ca:	bf14      	ite	ne
 80013cc:	2329      	movne	r3, #41	; 0x29
 80013ce:	2314      	moveq	r3, #20
 80013d0:	435e      	muls	r6, r3
 80013d2:	9b01      	ldr	r3, [sp, #4]
 80013d4:	42b3      	cmp	r3, r6
 80013d6:	d225      	bcs.n	8001424 <HAL_ADC_PollForConversion+0xc0>
 80013d8:	1c6a      	adds	r2, r5, #1
 80013da:	d05c      	beq.n	8001496 <HAL_ADC_PollForConversion+0x132>
 80013dc:	2d00      	cmp	r5, #0
 80013de:	d155      	bne.n	800148c <HAL_ADC_PollForConversion+0x128>
 80013e0:	9b01      	ldr	r3, [sp, #4]
 80013e2:	42b3      	cmp	r3, r6
 80013e4:	d257      	bcs.n	8001496 <HAL_ADC_PollForConversion+0x132>
 80013e6:	6aa3      	ldr	r3, [r4, #40]	; 0x28
 80013e8:	f043 0304 	orr.w	r3, r3, #4
 80013ec:	62a3      	str	r3, [r4, #40]	; 0x28
 80013ee:	2300      	movs	r3, #0
 80013f0:	e00b      	b.n	800140a <HAL_ADC_PollForConversion+0xa6>
 80013f2:	1c68      	adds	r0, r5, #1
 80013f4:	d013      	beq.n	800141e <HAL_ADC_PollForConversion+0xba>
 80013f6:	b965      	cbnz	r5, 8001412 <HAL_ADC_PollForConversion+0xae>
 80013f8:	6823      	ldr	r3, [r4, #0]
 80013fa:	681b      	ldr	r3, [r3, #0]
 80013fc:	f013 0302 	ands.w	r3, r3, #2
 8001400:	d10c      	bne.n	800141c <HAL_ADC_PollForConversion+0xb8>
 8001402:	6aa2      	ldr	r2, [r4, #40]	; 0x28
 8001404:	f042 0204 	orr.w	r2, r2, #4
 8001408:	62a2      	str	r2, [r4, #40]	; 0x28
 800140a:	2003      	movs	r0, #3
 800140c:	f884 3024 	strb.w	r3, [r4, #36]	; 0x24
 8001410:	e7bb      	b.n	800138a <HAL_ADC_PollForConversion+0x26>
 8001412:	f7ff ff8f 	bl	8001334 <HAL_GetTick>
 8001416:	1bc0      	subs	r0, r0, r7
 8001418:	42a8      	cmp	r0, r5
 800141a:	d8ed      	bhi.n	80013f8 <HAL_ADC_PollForConversion+0x94>
 800141c:	6822      	ldr	r2, [r4, #0]
 800141e:	6813      	ldr	r3, [r2, #0]
 8001420:	0799      	lsls	r1, r3, #30
 8001422:	d5e6      	bpl.n	80013f2 <HAL_ADC_PollForConversion+0x8e>
 8001424:	f06f 0312 	mvn.w	r3, #18
 8001428:	6822      	ldr	r2, [r4, #0]
 800142a:	6013      	str	r3, [r2, #0]
 800142c:	6aa3      	ldr	r3, [r4, #40]	; 0x28
 800142e:	f443 7300 	orr.w	r3, r3, #512	; 0x200
 8001432:	62a3      	str	r3, [r4, #40]	; 0x28
 8001434:	6893      	ldr	r3, [r2, #8]
 8001436:	f403 2360 	and.w	r3, r3, #917504	; 0xe0000
 800143a:	f5b3 2f60 	cmp.w	r3, #917504	; 0xe0000
 800143e:	d12e      	bne.n	800149e <HAL_ADC_PollForConversion+0x13a>
 8001440:	7b20      	ldrb	r0, [r4, #12]
 8001442:	2800      	cmp	r0, #0
 8001444:	d12b      	bne.n	800149e <HAL_ADC_PollForConversion+0x13a>
 8001446:	6aa3      	ldr	r3, [r4, #40]	; 0x28
 8001448:	f423 7380 	bic.w	r3, r3, #256	; 0x100
 800144c:	62a3      	str	r3, [r4, #40]	; 0x28
 800144e:	6aa3      	ldr	r3, [r4, #40]	; 0x28
 8001450:	04db      	lsls	r3, r3, #19
 8001452:	d424      	bmi.n	800149e <HAL_ADC_PollForConversion+0x13a>
 8001454:	6aa3      	ldr	r3, [r4, #40]	; 0x28
 8001456:	f043 0301 	orr.w	r3, r3, #1
 800145a:	62a3      	str	r3, [r4, #40]	; 0x28
 800145c:	e795      	b.n	800138a <HAL_ADC_PollForConversion+0x26>
 800145e:	6919      	ldr	r1, [r3, #16]
 8001460:	4211      	tst	r1, r2
 8001462:	d103      	bne.n	800146c <HAL_ADC_PollForConversion+0x108>
 8001464:	68d9      	ldr	r1, [r3, #12]
 8001466:	4a13      	ldr	r2, [pc, #76]	; (80014b4 <HAL_ADC_PollForConversion+0x150>)
 8001468:	4211      	tst	r1, r2
 800146a:	d00b      	beq.n	8001484 <HAL_ADC_PollForConversion+0x120>
 800146c:	6919      	ldr	r1, [r3, #16]
 800146e:	4a12      	ldr	r2, [pc, #72]	; (80014b8 <HAL_ADC_PollForConversion+0x154>)
 8001470:	4211      	tst	r1, r2
 8001472:	d109      	bne.n	8001488 <HAL_ADC_PollForConversion+0x124>
 8001474:	68db      	ldr	r3, [r3, #12]
 8001476:	4213      	tst	r3, r2
 8001478:	bf14      	ite	ne
 800147a:	23fc      	movne	r3, #252	; 0xfc
 800147c:	2354      	moveq	r3, #84	; 0x54
 800147e:	e7a7      	b.n	80013d0 <HAL_ADC_PollForConversion+0x6c>
 8001480:	2329      	movs	r3, #41	; 0x29
 8001482:	e7a5      	b.n	80013d0 <HAL_ADC_PollForConversion+0x6c>
 8001484:	2354      	movs	r3, #84	; 0x54
 8001486:	e7a3      	b.n	80013d0 <HAL_ADC_PollForConversion+0x6c>
 8001488:	23fc      	movs	r3, #252	; 0xfc
 800148a:	e7a1      	b.n	80013d0 <HAL_ADC_PollForConversion+0x6c>
 800148c:	f7ff ff52 	bl	8001334 <HAL_GetTick>
 8001490:	1bc0      	subs	r0, r0, r7
 8001492:	42a8      	cmp	r0, r5
 8001494:	d8a4      	bhi.n	80013e0 <HAL_ADC_PollForConversion+0x7c>
 8001496:	9b01      	ldr	r3, [sp, #4]
 8001498:	3301      	adds	r3, #1
 800149a:	9301      	str	r3, [sp, #4]
 800149c:	e799      	b.n	80013d2 <HAL_ADC_PollForConversion+0x6e>
 800149e:	2000      	movs	r0, #0
 80014a0:	e773      	b.n	800138a <HAL_ADC_PollForConversion+0x26>
 80014a2:	bf00      	nop
 80014a4:	20000000 	.word	0x20000000
 80014a8:	24924924 	.word	0x24924924
 80014ac:	12492492 	.word	0x12492492
 80014b0:	00924924 	.word	0x00924924
 80014b4:	00492492 	.word	0x00492492
 80014b8:	00249249 	.word	0x00249249

080014bc <HAL_ADC_GetValue>:
 80014bc:	6803      	ldr	r3, [r0, #0]
 80014be:	6cd8      	ldr	r0, [r3, #76]	; 0x4c
 80014c0:	4770      	bx	lr
	...

080014c4 <HAL_ADC_ConfigChannel>:
 80014c4:	2300      	movs	r3, #0
 80014c6:	b573      	push	{r0, r1, r4, r5, r6, lr}
 80014c8:	9301      	str	r3, [sp, #4]
 80014ca:	f890 3024 	ldrb.w	r3, [r0, #36]	; 0x24
 80014ce:	4604      	mov	r4, r0
 80014d0:	2b01      	cmp	r3, #1
 80014d2:	d06c      	beq.n	80015ae <HAL_ADC_ConfigChannel+0xea>
 80014d4:	2301      	movs	r3, #1
 80014d6:	f880 3024 	strb.w	r3, [r0, #36]	; 0x24
 80014da:	684d      	ldr	r5, [r1, #4]
 80014dc:	6802      	ldr	r2, [r0, #0]
 80014de:	2d06      	cmp	r5, #6
 80014e0:	6808      	ldr	r0, [r1, #0]
 80014e2:	eb05 0385 	add.w	r3, r5, r5, lsl #2
 80014e6:	d822      	bhi.n	800152e <HAL_ADC_ConfigChannel+0x6a>
 80014e8:	261f      	movs	r6, #31
 80014ea:	6b55      	ldr	r5, [r2, #52]	; 0x34
 80014ec:	3b05      	subs	r3, #5
 80014ee:	409e      	lsls	r6, r3
 80014f0:	ea25 0506 	bic.w	r5, r5, r6
 80014f4:	fa00 f303 	lsl.w	r3, r0, r3
 80014f8:	432b      	orrs	r3, r5
 80014fa:	6353      	str	r3, [r2, #52]	; 0x34
 80014fc:	2809      	cmp	r0, #9
 80014fe:	688b      	ldr	r3, [r1, #8]
 8001500:	eb00 0540 	add.w	r5, r0, r0, lsl #1
 8001504:	f04f 0107 	mov.w	r1, #7
 8001508:	d929      	bls.n	800155e <HAL_ADC_ConfigChannel+0x9a>
 800150a:	68d6      	ldr	r6, [r2, #12]
 800150c:	3d1e      	subs	r5, #30
 800150e:	40a9      	lsls	r1, r5
 8001510:	ea26 0101 	bic.w	r1, r6, r1
 8001514:	40ab      	lsls	r3, r5
 8001516:	430b      	orrs	r3, r1
 8001518:	60d3      	str	r3, [r2, #12]
 800151a:	f1a0 0310 	sub.w	r3, r0, #16
 800151e:	2b01      	cmp	r3, #1
 8001520:	d925      	bls.n	800156e <HAL_ADC_ConfigChannel+0xaa>
 8001522:	2000      	movs	r0, #0
 8001524:	2300      	movs	r3, #0
 8001526:	f884 3024 	strb.w	r3, [r4, #36]	; 0x24
 800152a:	b002      	add	sp, #8
 800152c:	bd70      	pop	{r4, r5, r6, pc}
 800152e:	2d0c      	cmp	r5, #12
 8001530:	f04f 051f 	mov.w	r5, #31
 8001534:	d809      	bhi.n	800154a <HAL_ADC_ConfigChannel+0x86>
 8001536:	6b16      	ldr	r6, [r2, #48]	; 0x30
 8001538:	3b23      	subs	r3, #35	; 0x23
 800153a:	409d      	lsls	r5, r3
 800153c:	ea26 0505 	bic.w	r5, r6, r5
 8001540:	fa00 f303 	lsl.w	r3, r0, r3
 8001544:	432b      	orrs	r3, r5
 8001546:	6313      	str	r3, [r2, #48]	; 0x30
 8001548:	e7d8      	b.n	80014fc <HAL_ADC_ConfigChannel+0x38>
 800154a:	6ad6      	ldr	r6, [r2, #44]	; 0x2c
 800154c:	3b41      	subs	r3, #65	; 0x41
 800154e:	409d      	lsls	r5, r3
 8001550:	ea26 0505 	bic.w	r5, r6, r5
 8001554:	fa00 f303 	lsl.w	r3, r0, r3
 8001558:	432b      	orrs	r3, r5
 800155a:	62d3      	str	r3, [r2, #44]	; 0x2c
 800155c:	e7ce      	b.n	80014fc <HAL_ADC_ConfigChannel+0x38>
 800155e:	6910      	ldr	r0, [r2, #16]
 8001560:	40a9      	lsls	r1, r5
 8001562:	ea20 0101 	bic.w	r1, r0, r1
 8001566:	40ab      	lsls	r3, r5
 8001568:	430b      	orrs	r3, r1
 800156a:	6113      	str	r3, [r2, #16]
 800156c:	e7d9      	b.n	8001522 <HAL_ADC_ConfigChannel+0x5e>
 800156e:	4b11      	ldr	r3, [pc, #68]	; (80015b4 <HAL_ADC_ConfigChannel+0xf0>)
 8001570:	429a      	cmp	r2, r3
 8001572:	d116      	bne.n	80015a2 <HAL_ADC_ConfigChannel+0xde>
 8001574:	6893      	ldr	r3, [r2, #8]
 8001576:	021b      	lsls	r3, r3, #8
 8001578:	d4d3      	bmi.n	8001522 <HAL_ADC_ConfigChannel+0x5e>
 800157a:	6893      	ldr	r3, [r2, #8]
 800157c:	2810      	cmp	r0, #16
 800157e:	f443 0300 	orr.w	r3, r3, #8388608	; 0x800000
 8001582:	6093      	str	r3, [r2, #8]
 8001584:	d1cd      	bne.n	8001522 <HAL_ADC_ConfigChannel+0x5e>
 8001586:	4b0c      	ldr	r3, [pc, #48]	; (80015b8 <HAL_ADC_ConfigChannel+0xf4>)
 8001588:	4a0c      	ldr	r2, [pc, #48]	; (80015bc <HAL_ADC_ConfigChannel+0xf8>)
 800158a:	681b      	ldr	r3, [r3, #0]
 800158c:	fbb3 f3f2 	udiv	r3, r3, r2
 8001590:	220a      	movs	r2, #10
 8001592:	4353      	muls	r3, r2
 8001594:	9301      	str	r3, [sp, #4]
 8001596:	9b01      	ldr	r3, [sp, #4]
 8001598:	2b00      	cmp	r3, #0
 800159a:	d0c2      	beq.n	8001522 <HAL_ADC_ConfigChannel+0x5e>
 800159c:	9b01      	ldr	r3, [sp, #4]
 800159e:	3b01      	subs	r3, #1
 80015a0:	e7f8      	b.n	8001594 <HAL_ADC_ConfigChannel+0xd0>
 80015a2:	6aa3      	ldr	r3, [r4, #40]	; 0x28
 80015a4:	2001      	movs	r0, #1
 80015a6:	f043 0320 	orr.w	r3, r3, #32
 80015aa:	62a3      	str	r3, [r4, #40]	; 0x28
 80015ac:	e7ba      	b.n	8001524 <HAL_ADC_ConfigChannel+0x60>
 80015ae:	2002      	movs	r0, #2
 80015b0:	e7bb      	b.n	800152a <HAL_ADC_ConfigChannel+0x66>
 80015b2:	bf00      	nop
 80015b4:	40012400 	.word	0x40012400
 80015b8:	20000000 	.word	0x20000000
 80015bc:	000f4240 	.word	0x000f4240

080015c0 <ADC_Enable>:
 80015c0:	2300      	movs	r3, #0
 80015c2:	b537      	push	{r0, r1, r2, r4, r5, lr}
 80015c4:	9301      	str	r3, [sp, #4]
 80015c6:	6803      	ldr	r3, [r0, #0]
 80015c8:	4604      	mov	r4, r0
 80015ca:	689a      	ldr	r2, [r3, #8]
 80015cc:	07d2      	lsls	r2, r2, #31
 80015ce:	d502      	bpl.n	80015d6 <ADC_Enable+0x16>
 80015d0:	2000      	movs	r0, #0
 80015d2:	b003      	add	sp, #12
 80015d4:	bd30      	pop	{r4, r5, pc}
 80015d6:	689a      	ldr	r2, [r3, #8]
 80015d8:	f042 0201 	orr.w	r2, r2, #1
 80015dc:	609a      	str	r2, [r3, #8]
 80015de:	4b14      	ldr	r3, [pc, #80]	; (8001630 <ADC_Enable+0x70>)
 80015e0:	4a14      	ldr	r2, [pc, #80]	; (8001634 <ADC_Enable+0x74>)
 80015e2:	681b      	ldr	r3, [r3, #0]
 80015e4:	fbb3 f3f2 	udiv	r3, r3, r2
 80015e8:	9301      	str	r3, [sp, #4]
 80015ea:	9b01      	ldr	r3, [sp, #4]
 80015ec:	b9e3      	cbnz	r3, 8001628 <ADC_Enable+0x68>
 80015ee:	f7ff fea1 	bl	8001334 <HAL_GetTick>
 80015f2:	4605      	mov	r5, r0
 80015f4:	6823      	ldr	r3, [r4, #0]
 80015f6:	689b      	ldr	r3, [r3, #8]
 80015f8:	07db      	lsls	r3, r3, #31
 80015fa:	d4e9      	bmi.n	80015d0 <ADC_Enable+0x10>
 80015fc:	f7ff fe9a 	bl	8001334 <HAL_GetTick>
 8001600:	1b40      	subs	r0, r0, r5
 8001602:	2802      	cmp	r0, #2
 8001604:	d9f6      	bls.n	80015f4 <ADC_Enable+0x34>
 8001606:	6823      	ldr	r3, [r4, #0]
 8001608:	689b      	ldr	r3, [r3, #8]
 800160a:	f013 0301 	ands.w	r3, r3, #1
 800160e:	d1f1      	bne.n	80015f4 <ADC_Enable+0x34>
 8001610:	6aa2      	ldr	r2, [r4, #40]	; 0x28
 8001612:	2001      	movs	r0, #1
 8001614:	f042 0210 	orr.w	r2, r2, #16
 8001618:	62a2      	str	r2, [r4, #40]	; 0x28
 800161a:	6ae2      	ldr	r2, [r4, #44]	; 0x2c
 800161c:	f884 3024 	strb.w	r3, [r4, #36]	; 0x24
 8001620:	f042 0201 	orr.w	r2, r2, #1
 8001624:	62e2      	str	r2, [r4, #44]	; 0x2c
 8001626:	e7d4      	b.n	80015d2 <ADC_Enable+0x12>
 8001628:	9b01      	ldr	r3, [sp, #4]
 800162a:	3b01      	subs	r3, #1
 800162c:	e7dc      	b.n	80015e8 <ADC_Enable+0x28>
 800162e:	bf00      	nop
 8001630:	20000000 	.word	0x20000000
 8001634:	000f4240 	.word	0x000f4240

08001638 <HAL_ADC_Start>:
 8001638:	b510      	push	{r4, lr}
 800163a:	f890 3024 	ldrb.w	r3, [r0, #36]	; 0x24
 800163e:	4604      	mov	r4, r0
 8001640:	2b01      	cmp	r3, #1
 8001642:	d054      	beq.n	80016ee <HAL_ADC_Start+0xb6>
 8001644:	2301      	movs	r3, #1
 8001646:	f880 3024 	strb.w	r3, [r0, #36]	; 0x24
 800164a:	f7ff ffb9 	bl	80015c0 <ADC_Enable>
 800164e:	2800      	cmp	r0, #0
 8001650:	d149      	bne.n	80016e6 <HAL_ADC_Start+0xae>
 8001652:	6aa3      	ldr	r3, [r4, #40]	; 0x28
 8001654:	4a27      	ldr	r2, [pc, #156]	; (80016f4 <HAL_ADC_Start+0xbc>)
 8001656:	f423 7340 	bic.w	r3, r3, #768	; 0x300
 800165a:	f023 0301 	bic.w	r3, r3, #1
 800165e:	f443 7380 	orr.w	r3, r3, #256	; 0x100
 8001662:	62a3      	str	r3, [r4, #40]	; 0x28
 8001664:	6823      	ldr	r3, [r4, #0]
 8001666:	4293      	cmp	r3, r2
 8001668:	d104      	bne.n	8001674 <HAL_ADC_Start+0x3c>
 800166a:	4923      	ldr	r1, [pc, #140]	; (80016f8 <HAL_ADC_Start+0xc0>)
 800166c:	684a      	ldr	r2, [r1, #4]
 800166e:	f412 2f70 	tst.w	r2, #983040	; 0xf0000
 8001672:	d12e      	bne.n	80016d2 <HAL_ADC_Start+0x9a>
 8001674:	6aa2      	ldr	r2, [r4, #40]	; 0x28
 8001676:	f422 1280 	bic.w	r2, r2, #1048576	; 0x100000
 800167a:	62a2      	str	r2, [r4, #40]	; 0x28
 800167c:	685a      	ldr	r2, [r3, #4]
 800167e:	0552      	lsls	r2, r2, #21
 8001680:	bf41      	itttt	mi
 8001682:	6aa2      	ldrmi	r2, [r4, #40]	; 0x28
 8001684:	f422 5240 	bicmi.w	r2, r2, #12288	; 0x3000
 8001688:	f442 5280 	orrmi.w	r2, r2, #4096	; 0x1000
 800168c:	62a2      	strmi	r2, [r4, #40]	; 0x28
 800168e:	6aa2      	ldr	r2, [r4, #40]	; 0x28
 8001690:	f412 5280 	ands.w	r2, r2, #4096	; 0x1000
 8001694:	bf1c      	itt	ne
 8001696:	6ae2      	ldrne	r2, [r4, #44]	; 0x2c
 8001698:	f022 0206 	bicne.w	r2, r2, #6
 800169c:	62e2      	str	r2, [r4, #44]	; 0x2c
 800169e:	2200      	movs	r2, #0
 80016a0:	f884 2024 	strb.w	r2, [r4, #36]	; 0x24
 80016a4:	f06f 0202 	mvn.w	r2, #2
 80016a8:	601a      	str	r2, [r3, #0]
 80016aa:	689a      	ldr	r2, [r3, #8]
 80016ac:	f402 2260 	and.w	r2, r2, #917504	; 0xe0000
 80016b0:	f5b2 2f60 	cmp.w	r2, #917504	; 0xe0000
 80016b4:	d113      	bne.n	80016de <HAL_ADC_Start+0xa6>
 80016b6:	4a0f      	ldr	r2, [pc, #60]	; (80016f4 <HAL_ADC_Start+0xbc>)
 80016b8:	4293      	cmp	r3, r2
 80016ba:	d105      	bne.n	80016c8 <HAL_ADC_Start+0x90>
 80016bc:	f5a2 6280 	sub.w	r2, r2, #1024	; 0x400
 80016c0:	6852      	ldr	r2, [r2, #4]
 80016c2:	f412 2f70 	tst.w	r2, #983040	; 0xf0000
 80016c6:	d10a      	bne.n	80016de <HAL_ADC_Start+0xa6>
 80016c8:	689a      	ldr	r2, [r3, #8]
 80016ca:	f442 02a0 	orr.w	r2, r2, #5242880	; 0x500000
 80016ce:	609a      	str	r2, [r3, #8]
 80016d0:	bd10      	pop	{r4, pc}
 80016d2:	6aa2      	ldr	r2, [r4, #40]	; 0x28
 80016d4:	f442 1280 	orr.w	r2, r2, #1048576	; 0x100000
 80016d8:	62a2      	str	r2, [r4, #40]	; 0x28
 80016da:	684a      	ldr	r2, [r1, #4]
 80016dc:	e7cf      	b.n	800167e <HAL_ADC_Start+0x46>
 80016de:	689a      	ldr	r2, [r3, #8]
 80016e0:	f442 1280 	orr.w	r2, r2, #1048576	; 0x100000
 80016e4:	e7f3      	b.n	80016ce <HAL_ADC_Start+0x96>
 80016e6:	2300      	movs	r3, #0
 80016e8:	f884 3024 	strb.w	r3, [r4, #36]	; 0x24
 80016ec:	e7f0      	b.n	80016d0 <HAL_ADC_Start+0x98>
 80016ee:	2002      	movs	r0, #2
 80016f0:	e7ee      	b.n	80016d0 <HAL_ADC_Start+0x98>
 80016f2:	bf00      	nop
 80016f4:	40012800 	.word	0x40012800
 80016f8:	40012400 	.word	0x40012400

080016fc <ADC_ConversionStop_Disable>:
 80016fc:	b538      	push	{r3, r4, r5, lr}
 80016fe:	6803      	ldr	r3, [r0, #0]
 8001700:	4604      	mov	r4, r0
 8001702:	689a      	ldr	r2, [r3, #8]
 8001704:	07d1      	lsls	r1, r2, #31
 8001706:	d401      	bmi.n	800170c <ADC_ConversionStop_Disable+0x10>
 8001708:	2000      	movs	r0, #0
 800170a:	bd38      	pop	{r3, r4, r5, pc}
 800170c:	689a      	ldr	r2, [r3, #8]
 800170e:	f022 0201 	bic.w	r2, r2, #1
 8001712:	609a      	str	r2, [r3, #8]
 8001714:	f7ff fe0e 	bl	8001334 <HAL_GetTick>
 8001718:	4605      	mov	r5, r0
 800171a:	6823      	ldr	r3, [r4, #0]
 800171c:	689b      	ldr	r3, [r3, #8]
 800171e:	07db      	lsls	r3, r3, #31
 8001720:	d5f2      	bpl.n	8001708 <ADC_ConversionStop_Disable+0xc>
 8001722:	f7ff fe07 	bl	8001334 <HAL_GetTick>
 8001726:	1b40      	subs	r0, r0, r5
 8001728:	2802      	cmp	r0, #2
 800172a:	d9f6      	bls.n	800171a <ADC_ConversionStop_Disable+0x1e>
 800172c:	6823      	ldr	r3, [r4, #0]
 800172e:	689b      	ldr	r3, [r3, #8]
 8001730:	07da      	lsls	r2, r3, #31
 8001732:	d5f2      	bpl.n	800171a <ADC_ConversionStop_Disable+0x1e>
 8001734:	6aa3      	ldr	r3, [r4, #40]	; 0x28
 8001736:	2001      	movs	r0, #1
 8001738:	f043 0310 	orr.w	r3, r3, #16
 800173c:	62a3      	str	r3, [r4, #40]	; 0x28
 800173e:	6ae3      	ldr	r3, [r4, #44]	; 0x2c
 8001740:	f043 0301 	orr.w	r3, r3, #1
 8001744:	62e3      	str	r3, [r4, #44]	; 0x2c
 8001746:	e7e0      	b.n	800170a <ADC_ConversionStop_Disable+0xe>

08001748 <HAL_ADC_Init>:
 8001748:	b5f8      	push	{r3, r4, r5, r6, r7, lr}
 800174a:	4604      	mov	r4, r0
 800174c:	2800      	cmp	r0, #0
 800174e:	d06d      	beq.n	800182c <HAL_ADC_Init+0xe4>
 8001750:	6a83      	ldr	r3, [r0, #40]	; 0x28
 8001752:	b923      	cbnz	r3, 800175e <HAL_ADC_Init+0x16>
 8001754:	62c3      	str	r3, [r0, #44]	; 0x2c
 8001756:	f880 3024 	strb.w	r3, [r0, #36]	; 0x24
 800175a:	f7ff fc5b 	bl	8001014 <HAL_ADC_MspInit>
 800175e:	4620      	mov	r0, r4
 8001760:	f7ff ffcc 	bl	80016fc <ADC_ConversionStop_Disable>
 8001764:	6aa3      	ldr	r3, [r4, #40]	; 0x28
 8001766:	f013 0310 	ands.w	r3, r3, #16
 800176a:	d161      	bne.n	8001830 <HAL_ADC_Init+0xe8>
 800176c:	2800      	cmp	r0, #0
 800176e:	d15f      	bne.n	8001830 <HAL_ADC_Init+0xe8>
 8001770:	6aa2      	ldr	r2, [r4, #40]	; 0x28
 8001772:	6861      	ldr	r1, [r4, #4]
 8001774:	f422 5288 	bic.w	r2, r2, #4352	; 0x1100
 8001778:	f022 0202 	bic.w	r2, r2, #2
 800177c:	f042 0202 	orr.w	r2, r2, #2
 8001780:	69e5      	ldr	r5, [r4, #28]
 8001782:	68a6      	ldr	r6, [r4, #8]
 8001784:	62a2      	str	r2, [r4, #40]	; 0x28
 8001786:	7b22      	ldrb	r2, [r4, #12]
 8001788:	4329      	orrs	r1, r5
 800178a:	f5b6 7f80 	cmp.w	r6, #256	; 0x100
 800178e:	ea41 0142 	orr.w	r1, r1, r2, lsl #1
 8001792:	d036      	beq.n	8001802 <HAL_ADC_Init+0xba>
 8001794:	1e77      	subs	r7, r6, #1
 8001796:	427d      	negs	r5, r7
 8001798:	417d      	adcs	r5, r7
 800179a:	022d      	lsls	r5, r5, #8
 800179c:	7d27      	ldrb	r7, [r4, #20]
 800179e:	2f01      	cmp	r7, #1
 80017a0:	d106      	bne.n	80017b0 <HAL_ADC_Init+0x68>
 80017a2:	bb82      	cbnz	r2, 8001806 <HAL_ADC_Init+0xbe>
 80017a4:	69a2      	ldr	r2, [r4, #24]
 80017a6:	3a01      	subs	r2, #1
 80017a8:	ea45 3242 	orr.w	r2, r5, r2, lsl #13
 80017ac:	f442 6500 	orr.w	r5, r2, #2048	; 0x800
 80017b0:	6822      	ldr	r2, [r4, #0]
 80017b2:	f5b6 7f80 	cmp.w	r6, #256	; 0x100
 80017b6:	6857      	ldr	r7, [r2, #4]
 80017b8:	f427 4769 	bic.w	r7, r7, #59648	; 0xe900
 80017bc:	ea45 0507 	orr.w	r5, r5, r7
 80017c0:	6055      	str	r5, [r2, #4]
 80017c2:	6897      	ldr	r7, [r2, #8]
 80017c4:	4d1d      	ldr	r5, [pc, #116]	; (800183c <HAL_ADC_Init+0xf4>)
 80017c6:	ea05 0507 	and.w	r5, r5, r7
 80017ca:	ea45 0501 	orr.w	r5, r5, r1
 80017ce:	6095      	str	r5, [r2, #8]
 80017d0:	d001      	beq.n	80017d6 <HAL_ADC_Init+0x8e>
 80017d2:	2e01      	cmp	r6, #1
 80017d4:	d102      	bne.n	80017dc <HAL_ADC_Init+0x94>
 80017d6:	6923      	ldr	r3, [r4, #16]
 80017d8:	3b01      	subs	r3, #1
 80017da:	051b      	lsls	r3, r3, #20
 80017dc:	6ad5      	ldr	r5, [r2, #44]	; 0x2c
 80017de:	f425 0570 	bic.w	r5, r5, #15728640	; 0xf00000
 80017e2:	432b      	orrs	r3, r5
 80017e4:	62d3      	str	r3, [r2, #44]	; 0x2c
 80017e6:	6892      	ldr	r2, [r2, #8]
 80017e8:	4b15      	ldr	r3, [pc, #84]	; (8001840 <HAL_ADC_Init+0xf8>)
 80017ea:	4013      	ands	r3, r2
 80017ec:	4299      	cmp	r1, r3
 80017ee:	d113      	bne.n	8001818 <HAL_ADC_Init+0xd0>
 80017f0:	2300      	movs	r3, #0
 80017f2:	62e3      	str	r3, [r4, #44]	; 0x2c
 80017f4:	6aa3      	ldr	r3, [r4, #40]	; 0x28
 80017f6:	f023 0303 	bic.w	r3, r3, #3
 80017fa:	f043 0301 	orr.w	r3, r3, #1
 80017fe:	62a3      	str	r3, [r4, #40]	; 0x28
 8001800:	bdf8      	pop	{r3, r4, r5, r6, r7, pc}
 8001802:	4635      	mov	r5, r6
 8001804:	e7ca      	b.n	800179c <HAL_ADC_Init+0x54>
 8001806:	6aa2      	ldr	r2, [r4, #40]	; 0x28
 8001808:	f042 0220 	orr.w	r2, r2, #32
 800180c:	62a2      	str	r2, [r4, #40]	; 0x28
 800180e:	6ae2      	ldr	r2, [r4, #44]	; 0x2c
 8001810:	f042 0201 	orr.w	r2, r2, #1
 8001814:	62e2      	str	r2, [r4, #44]	; 0x2c
 8001816:	e7cb      	b.n	80017b0 <HAL_ADC_Init+0x68>
 8001818:	6aa3      	ldr	r3, [r4, #40]	; 0x28
 800181a:	f023 0312 	bic.w	r3, r3, #18
 800181e:	f043 0310 	orr.w	r3, r3, #16
 8001822:	62a3      	str	r3, [r4, #40]	; 0x28
 8001824:	6ae3      	ldr	r3, [r4, #44]	; 0x2c
 8001826:	f043 0301 	orr.w	r3, r3, #1
 800182a:	62e3      	str	r3, [r4, #44]	; 0x2c
 800182c:	2001      	movs	r0, #1
 800182e:	e7e7      	b.n	8001800 <HAL_ADC_Init+0xb8>
 8001830:	6aa3      	ldr	r3, [r4, #40]	; 0x28
 8001832:	f043 0310 	orr.w	r3, r3, #16
 8001836:	62a3      	str	r3, [r4, #40]	; 0x28
 8001838:	e7f8      	b.n	800182c <HAL_ADC_Init+0xe4>
 800183a:	bf00      	nop
 800183c:	ffe1f7fd 	.word	0xffe1f7fd
 8001840:	ff1f0efe 	.word	0xff1f0efe

08001844 <HAL_NVIC_SetPriorityGrouping>:
 8001844:	4907      	ldr	r1, [pc, #28]	; (8001864 <HAL_NVIC_SetPriorityGrouping+0x20>)
 8001846:	0203      	lsls	r3, r0, #8
 8001848:	68ca      	ldr	r2, [r1, #12]
 800184a:	f403 63e0 	and.w	r3, r3, #1792	; 0x700
 800184e:	f422 62e0 	bic.w	r2, r2, #1792	; 0x700
 8001852:	0412      	lsls	r2, r2, #16
 8001854:	0c12      	lsrs	r2, r2, #16
 8001856:	4313      	orrs	r3, r2
 8001858:	f043 63bf 	orr.w	r3, r3, #100139008	; 0x5f80000
 800185c:	f443 3300 	orr.w	r3, r3, #131072	; 0x20000
 8001860:	60cb      	str	r3, [r1, #12]
 8001862:	4770      	bx	lr
 8001864:	e000ed00 	.word	0xe000ed00

08001868 <HAL_NVIC_SetPriority>:
 8001868:	4b15      	ldr	r3, [pc, #84]	; (80018c0 <HAL_NVIC_SetPriority+0x58>)
 800186a:	b530      	push	{r4, r5, lr}
 800186c:	68dc      	ldr	r4, [r3, #12]
 800186e:	f3c4 2402 	ubfx	r4, r4, #8, #3
 8001872:	f1c4 0307 	rsb	r3, r4, #7
 8001876:	1d25      	adds	r5, r4, #4
 8001878:	2b04      	cmp	r3, #4
 800187a:	bf28      	it	cs
 800187c:	2304      	movcs	r3, #4
 800187e:	2d06      	cmp	r5, #6
 8001880:	f04f 35ff 	mov.w	r5, #4294967295
 8001884:	bf94      	ite	ls
 8001886:	2400      	movls	r4, #0
 8001888:	3c03      	subhi	r4, #3
 800188a:	fa05 f303 	lsl.w	r3, r5, r3
 800188e:	ea21 0303 	bic.w	r3, r1, r3
 8001892:	40a5      	lsls	r5, r4
 8001894:	ea22 0205 	bic.w	r2, r2, r5
 8001898:	40a3      	lsls	r3, r4
 800189a:	2800      	cmp	r0, #0
 800189c:	ea43 0302 	orr.w	r3, r3, r2
 80018a0:	bfac      	ite	ge
 80018a2:	f100 4060 	addge.w	r0, r0, #3758096384	; 0xe0000000
 80018a6:	4a07      	ldrlt	r2, [pc, #28]	; (80018c4 <HAL_NVIC_SetPriority+0x5c>)
 80018a8:	ea4f 1303 	mov.w	r3, r3, lsl #4
 80018ac:	b2db      	uxtb	r3, r3
 80018ae:	bfab      	itete	ge
 80018b0:	f500 4061 	addge.w	r0, r0, #57600	; 0xe100
 80018b4:	f000 000f 	andlt.w	r0, r0, #15
 80018b8:	f880 3300 	strbge.w	r3, [r0, #768]	; 0x300
 80018bc:	5413      	strblt	r3, [r2, r0]
 80018be:	bd30      	pop	{r4, r5, pc}
 80018c0:	e000ed00 	.word	0xe000ed00
 80018c4:	e000ed14 	.word	0xe000ed14

080018c8 <HAL_NVIC_EnableIRQ>:
 80018c8:	2800      	cmp	r0, #0
 80018ca:	db07      	blt.n	80018dc <HAL_NVIC_EnableIRQ+0x14>
 80018cc:	2301      	movs	r3, #1
 80018ce:	0941      	lsrs	r1, r0, #5
 80018d0:	4a03      	ldr	r2, [pc, #12]	; (80018e0 <HAL_NVIC_EnableIRQ+0x18>)
 80018d2:	f000 001f 	and.w	r0, r0, #31
 80018d6:	4083      	lsls	r3, r0
 80018d8:	f842 3021 	str.w	r3, [r2, r1, lsl #2]
 80018dc:	4770      	bx	lr
 80018de:	bf00      	nop
 80018e0:	e000e100 	.word	0xe000e100

080018e4 <HAL_SYSTICK_Config>:
 80018e4:	3801      	subs	r0, #1
 80018e6:	f1b0 7f80 	cmp.w	r0, #16777216	; 0x1000000
 80018ea:	d20b      	bcs.n	8001904 <HAL_SYSTICK_Config+0x20>
 80018ec:	f04f 23e0 	mov.w	r3, #3758153728	; 0xe000e000
 80018f0:	21f0      	movs	r1, #240	; 0xf0
 80018f2:	4a05      	ldr	r2, [pc, #20]	; (8001908 <HAL_SYSTICK_Config+0x24>)
 80018f4:	6158      	str	r0, [r3, #20]
 80018f6:	f882 1023 	strb.w	r1, [r2, #35]	; 0x23
 80018fa:	2000      	movs	r0, #0
 80018fc:	2207      	movs	r2, #7
 80018fe:	6198      	str	r0, [r3, #24]
 8001900:	611a      	str	r2, [r3, #16]
 8001902:	4770      	bx	lr
 8001904:	2001      	movs	r0, #1
 8001906:	4770      	bx	lr
 8001908:	e000ed00 	.word	0xe000ed00

0800190c <HAL_DMA_Abort>:
 800190c:	f890 2021 	ldrb.w	r2, [r0, #33]	; 0x21
 8001910:	4603      	mov	r3, r0
 8001912:	2a02      	cmp	r2, #2
 8001914:	d006      	beq.n	8001924 <HAL_DMA_Abort+0x18>
 8001916:	2204      	movs	r2, #4
 8001918:	6382      	str	r2, [r0, #56]	; 0x38
 800191a:	2001      	movs	r0, #1
 800191c:	2200      	movs	r2, #0
 800191e:	f883 2020 	strb.w	r2, [r3, #32]
 8001922:	4770      	bx	lr
 8001924:	6802      	ldr	r2, [r0, #0]
 8001926:	6bc0      	ldr	r0, [r0, #60]	; 0x3c
 8001928:	6811      	ldr	r1, [r2, #0]
 800192a:	f021 010e 	bic.w	r1, r1, #14
 800192e:	6011      	str	r1, [r2, #0]
 8001930:	6811      	ldr	r1, [r2, #0]
 8001932:	f021 0101 	bic.w	r1, r1, #1
 8001936:	6011      	str	r1, [r2, #0]
 8001938:	2101      	movs	r1, #1
 800193a:	6c1a      	ldr	r2, [r3, #64]	; 0x40
 800193c:	fa01 f202 	lsl.w	r2, r1, r2
 8001940:	6042      	str	r2, [r0, #4]
 8001942:	2000      	movs	r0, #0
 8001944:	f883 1021 	strb.w	r1, [r3, #33]	; 0x21
 8001948:	e7e8      	b.n	800191c <HAL_DMA_Abort+0x10>
	...

0800194c <HAL_DMA_Abort_IT>:
 800194c:	b510      	push	{r4, lr}
 800194e:	f890 3021 	ldrb.w	r3, [r0, #33]	; 0x21
 8001952:	2b02      	cmp	r3, #2
 8001954:	d003      	beq.n	800195e <HAL_DMA_Abort_IT+0x12>
 8001956:	2304      	movs	r3, #4
 8001958:	6383      	str	r3, [r0, #56]	; 0x38
 800195a:	2001      	movs	r0, #1
 800195c:	bd10      	pop	{r4, pc}
 800195e:	6803      	ldr	r3, [r0, #0]
 8001960:	681a      	ldr	r2, [r3, #0]
 8001962:	f022 020e 	bic.w	r2, r2, #14
 8001966:	601a      	str	r2, [r3, #0]
 8001968:	681a      	ldr	r2, [r3, #0]
 800196a:	f022 0201 	bic.w	r2, r2, #1
 800196e:	601a      	str	r2, [r3, #0]
 8001970:	4a18      	ldr	r2, [pc, #96]	; (80019d4 <HAL_DMA_Abort_IT+0x88>)
 8001972:	4293      	cmp	r3, r2
 8001974:	d01f      	beq.n	80019b6 <HAL_DMA_Abort_IT+0x6a>
 8001976:	3214      	adds	r2, #20
 8001978:	4293      	cmp	r3, r2
 800197a:	d01e      	beq.n	80019ba <HAL_DMA_Abort_IT+0x6e>
 800197c:	3214      	adds	r2, #20
 800197e:	4293      	cmp	r3, r2
 8001980:	d01d      	beq.n	80019be <HAL_DMA_Abort_IT+0x72>
 8001982:	3214      	adds	r2, #20
 8001984:	4293      	cmp	r3, r2
 8001986:	d01d      	beq.n	80019c4 <HAL_DMA_Abort_IT+0x78>
 8001988:	3214      	adds	r2, #20
 800198a:	4293      	cmp	r3, r2
 800198c:	d01d      	beq.n	80019ca <HAL_DMA_Abort_IT+0x7e>
 800198e:	3214      	adds	r2, #20
 8001990:	4293      	cmp	r3, r2
 8001992:	bf0c      	ite	eq
 8001994:	f44f 1380 	moveq.w	r3, #1048576	; 0x100000
 8001998:	f04f 7380 	movne.w	r3, #16777216	; 0x1000000
 800199c:	4a0e      	ldr	r2, [pc, #56]	; (80019d8 <HAL_DMA_Abort_IT+0x8c>)
 800199e:	2400      	movs	r4, #0
 80019a0:	6053      	str	r3, [r2, #4]
 80019a2:	2301      	movs	r3, #1
 80019a4:	f880 3021 	strb.w	r3, [r0, #33]	; 0x21
 80019a8:	6b43      	ldr	r3, [r0, #52]	; 0x34
 80019aa:	f880 4020 	strb.w	r4, [r0, #32]
 80019ae:	b17b      	cbz	r3, 80019d0 <HAL_DMA_Abort_IT+0x84>
 80019b0:	4798      	blx	r3
 80019b2:	4620      	mov	r0, r4
 80019b4:	e7d2      	b.n	800195c <HAL_DMA_Abort_IT+0x10>
 80019b6:	2301      	movs	r3, #1
 80019b8:	e7f0      	b.n	800199c <HAL_DMA_Abort_IT+0x50>
 80019ba:	2310      	movs	r3, #16
 80019bc:	e7ee      	b.n	800199c <HAL_DMA_Abort_IT+0x50>
 80019be:	f44f 7380 	mov.w	r3, #256	; 0x100
 80019c2:	e7eb      	b.n	800199c <HAL_DMA_Abort_IT+0x50>
 80019c4:	f44f 5380 	mov.w	r3, #4096	; 0x1000
 80019c8:	e7e8      	b.n	800199c <HAL_DMA_Abort_IT+0x50>
 80019ca:	f44f 3380 	mov.w	r3, #65536	; 0x10000
 80019ce:	e7e5      	b.n	800199c <HAL_DMA_Abort_IT+0x50>
 80019d0:	4618      	mov	r0, r3
 80019d2:	e7c3      	b.n	800195c <HAL_DMA_Abort_IT+0x10>
 80019d4:	40020008 	.word	0x40020008
 80019d8:	40020000 	.word	0x40020000

080019dc <HAL_GPIO_Init>:
 80019dc:	e92d 4ff7 	stmdb	sp!, {r0, r1, r2, r4, r5, r6, r7, r8, r9, sl, fp, lr}
 80019e0:	2200      	movs	r2, #0
 80019e2:	4616      	mov	r6, r2
 80019e4:	4f61      	ldr	r7, [pc, #388]	; (8001b6c <HAL_GPIO_Init+0x190>)
 80019e6:	4b62      	ldr	r3, [pc, #392]	; (8001b70 <HAL_GPIO_Init+0x194>)
 80019e8:	f8df c188 	ldr.w	ip, [pc, #392]	; 8001b74 <HAL_GPIO_Init+0x198>
 80019ec:	f8df e188 	ldr.w	lr, [pc, #392]	; 8001b78 <HAL_GPIO_Init+0x19c>
 80019f0:	680d      	ldr	r5, [r1, #0]
 80019f2:	fa35 f406 	lsrs.w	r4, r5, r6
 80019f6:	d102      	bne.n	80019fe <HAL_GPIO_Init+0x22>
 80019f8:	b003      	add	sp, #12
 80019fa:	e8bd 8ff0 	ldmia.w	sp!, {r4, r5, r6, r7, r8, r9, sl, fp, pc}
 80019fe:	f04f 0801 	mov.w	r8, #1
 8001a02:	fa08 f806 	lsl.w	r8, r8, r6
 8001a06:	ea05 0408 	and.w	r4, r5, r8
 8001a0a:	ea38 0505 	bics.w	r5, r8, r5
 8001a0e:	d176      	bne.n	8001afe <HAL_GPIO_Init+0x122>
 8001a10:	684d      	ldr	r5, [r1, #4]
 8001a12:	2d03      	cmp	r5, #3
 8001a14:	d807      	bhi.n	8001a26 <HAL_GPIO_Init+0x4a>
 8001a16:	3d01      	subs	r5, #1
 8001a18:	2d02      	cmp	r5, #2
 8001a1a:	f200 8081 	bhi.w	8001b20 <HAL_GPIO_Init+0x144>
 8001a1e:	e8df f005 	tbb	[pc, r5]
 8001a22:	9691      	.short	0x9691
 8001a24:	9c          	.byte	0x9c
 8001a25:	00          	.byte	0x00
 8001a26:	2d12      	cmp	r5, #18
 8001a28:	f000 8094 	beq.w	8001b54 <HAL_GPIO_Init+0x178>
 8001a2c:	d869      	bhi.n	8001b02 <HAL_GPIO_Init+0x126>
 8001a2e:	2d11      	cmp	r5, #17
 8001a30:	f000 808a 	beq.w	8001b48 <HAL_GPIO_Init+0x16c>
 8001a34:	2cff      	cmp	r4, #255	; 0xff
 8001a36:	bf98      	it	ls
 8001a38:	4682      	movls	sl, r0
 8001a3a:	f04f 090f 	mov.w	r9, #15
 8001a3e:	bf88      	it	hi
 8001a40:	f100 0a04 	addhi.w	sl, r0, #4
 8001a44:	ea4f 0586 	mov.w	r5, r6, lsl #2
 8001a48:	f8da 8000 	ldr.w	r8, [sl]
 8001a4c:	bf88      	it	hi
 8001a4e:	3d20      	subhi	r5, #32
 8001a50:	fa09 fb05 	lsl.w	fp, r9, r5
 8001a54:	ea28 080b 	bic.w	r8, r8, fp
 8001a58:	fa02 f505 	lsl.w	r5, r2, r5
 8001a5c:	ea48 0505 	orr.w	r5, r8, r5
 8001a60:	f8ca 5000 	str.w	r5, [sl]
 8001a64:	f8d1 a004 	ldr.w	sl, [r1, #4]
 8001a68:	f01a 5f80 	tst.w	sl, #268435456	; 0x10000000
 8001a6c:	d047      	beq.n	8001afe <HAL_GPIO_Init+0x122>
 8001a6e:	69bd      	ldr	r5, [r7, #24]
 8001a70:	f026 0803 	bic.w	r8, r6, #3
 8001a74:	f045 0501 	orr.w	r5, r5, #1
 8001a78:	61bd      	str	r5, [r7, #24]
 8001a7a:	69bd      	ldr	r5, [r7, #24]
 8001a7c:	f108 4880 	add.w	r8, r8, #1073741824	; 0x40000000
 8001a80:	f005 0501 	and.w	r5, r5, #1
 8001a84:	9501      	str	r5, [sp, #4]
 8001a86:	f508 3880 	add.w	r8, r8, #65536	; 0x10000
 8001a8a:	f006 0b03 	and.w	fp, r6, #3
 8001a8e:	9d01      	ldr	r5, [sp, #4]
 8001a90:	ea4f 0b8b 	mov.w	fp, fp, lsl #2
 8001a94:	f8d8 5008 	ldr.w	r5, [r8, #8]
 8001a98:	fa09 f90b 	lsl.w	r9, r9, fp
 8001a9c:	ea25 0909 	bic.w	r9, r5, r9
 8001aa0:	4d36      	ldr	r5, [pc, #216]	; (8001b7c <HAL_GPIO_Init+0x1a0>)
 8001aa2:	42a8      	cmp	r0, r5
 8001aa4:	d05d      	beq.n	8001b62 <HAL_GPIO_Init+0x186>
 8001aa6:	f505 6580 	add.w	r5, r5, #1024	; 0x400
 8001aaa:	42a8      	cmp	r0, r5
 8001aac:	d05b      	beq.n	8001b66 <HAL_GPIO_Init+0x18a>
 8001aae:	f505 6580 	add.w	r5, r5, #1024	; 0x400
 8001ab2:	42a8      	cmp	r0, r5
 8001ab4:	bf0c      	ite	eq
 8001ab6:	2502      	moveq	r5, #2
 8001ab8:	2503      	movne	r5, #3
 8001aba:	fa05 f50b 	lsl.w	r5, r5, fp
 8001abe:	ea45 0509 	orr.w	r5, r5, r9
 8001ac2:	f8c8 5008 	str.w	r5, [r8, #8]
 8001ac6:	689d      	ldr	r5, [r3, #8]
 8001ac8:	f41a 1f80 	tst.w	sl, #1048576	; 0x100000
 8001acc:	bf14      	ite	ne
 8001ace:	4325      	orrne	r5, r4
 8001ad0:	43a5      	biceq	r5, r4
 8001ad2:	609d      	str	r5, [r3, #8]
 8001ad4:	68dd      	ldr	r5, [r3, #12]
 8001ad6:	f41a 1f00 	tst.w	sl, #2097152	; 0x200000
 8001ada:	bf14      	ite	ne
 8001adc:	4325      	orrne	r5, r4
 8001ade:	43a5      	biceq	r5, r4
 8001ae0:	60dd      	str	r5, [r3, #12]
 8001ae2:	685d      	ldr	r5, [r3, #4]
 8001ae4:	f41a 3f00 	tst.w	sl, #131072	; 0x20000
 8001ae8:	bf14      	ite	ne
 8001aea:	4325      	orrne	r5, r4
 8001aec:	43a5      	biceq	r5, r4
 8001aee:	605d      	str	r5, [r3, #4]
 8001af0:	681d      	ldr	r5, [r3, #0]
 8001af2:	f41a 3f80 	tst.w	sl, #65536	; 0x10000
 8001af6:	bf14      	ite	ne
 8001af8:	4325      	orrne	r5, r4
 8001afa:	43a5      	biceq	r5, r4
 8001afc:	601d      	str	r5, [r3, #0]
 8001afe:	3601      	adds	r6, #1
 8001b00:	e776      	b.n	80019f0 <HAL_GPIO_Init+0x14>
 8001b02:	f8df 907c 	ldr.w	r9, [pc, #124]	; 8001b80 <HAL_GPIO_Init+0x1a4>
 8001b06:	454d      	cmp	r5, r9
 8001b08:	d00a      	beq.n	8001b20 <HAL_GPIO_Init+0x144>
 8001b0a:	d815      	bhi.n	8001b38 <HAL_GPIO_Init+0x15c>
 8001b0c:	4575      	cmp	r5, lr
 8001b0e:	d007      	beq.n	8001b20 <HAL_GPIO_Init+0x144>
 8001b10:	f5a9 3980 	sub.w	r9, r9, #65536	; 0x10000
 8001b14:	454d      	cmp	r5, r9
 8001b16:	d003      	beq.n	8001b20 <HAL_GPIO_Init+0x144>
 8001b18:	f5a9 1980 	sub.w	r9, r9, #1048576	; 0x100000
 8001b1c:	454d      	cmp	r5, r9
 8001b1e:	d189      	bne.n	8001a34 <HAL_GPIO_Init+0x58>
 8001b20:	688a      	ldr	r2, [r1, #8]
 8001b22:	b1e2      	cbz	r2, 8001b5e <HAL_GPIO_Init+0x182>
 8001b24:	2a01      	cmp	r2, #1
 8001b26:	bf08      	it	eq
 8001b28:	f8c0 8010 	streq.w	r8, [r0, #16]
 8001b2c:	f04f 0208 	mov.w	r2, #8
 8001b30:	bf18      	it	ne
 8001b32:	f8c0 8014 	strne.w	r8, [r0, #20]
 8001b36:	e77d      	b.n	8001a34 <HAL_GPIO_Init+0x58>
 8001b38:	f8df 9048 	ldr.w	r9, [pc, #72]	; 8001b84 <HAL_GPIO_Init+0x1a8>
 8001b3c:	454d      	cmp	r5, r9
 8001b3e:	d0ef      	beq.n	8001b20 <HAL_GPIO_Init+0x144>
 8001b40:	4565      	cmp	r5, ip
 8001b42:	e7ec      	b.n	8001b1e <HAL_GPIO_Init+0x142>
 8001b44:	68ca      	ldr	r2, [r1, #12]
 8001b46:	e775      	b.n	8001a34 <HAL_GPIO_Init+0x58>
 8001b48:	68ca      	ldr	r2, [r1, #12]
 8001b4a:	3204      	adds	r2, #4
 8001b4c:	e772      	b.n	8001a34 <HAL_GPIO_Init+0x58>
 8001b4e:	68ca      	ldr	r2, [r1, #12]
 8001b50:	3208      	adds	r2, #8
 8001b52:	e76f      	b.n	8001a34 <HAL_GPIO_Init+0x58>
 8001b54:	68ca      	ldr	r2, [r1, #12]
 8001b56:	320c      	adds	r2, #12
 8001b58:	e76c      	b.n	8001a34 <HAL_GPIO_Init+0x58>
 8001b5a:	2200      	movs	r2, #0
 8001b5c:	e76a      	b.n	8001a34 <HAL_GPIO_Init+0x58>
 8001b5e:	2204      	movs	r2, #4
 8001b60:	e768      	b.n	8001a34 <HAL_GPIO_Init+0x58>
 8001b62:	2500      	movs	r5, #0
 8001b64:	e7a9      	b.n	8001aba <HAL_GPIO_Init+0xde>
 8001b66:	2501      	movs	r5, #1
 8001b68:	e7a7      	b.n	8001aba <HAL_GPIO_Init+0xde>
 8001b6a:	bf00      	nop
 8001b6c:	40021000 	.word	0x40021000
 8001b70:	40010400 	.word	0x40010400
 8001b74:	10320000 	.word	0x10320000
 8001b78:	10120000 	.word	0x10120000
 8001b7c:	40010800 	.word	0x40010800
 8001b80:	10220000 	.word	0x10220000
 8001b84:	10310000 	.word	0x10310000

08001b88 <HAL_GPIO_ReadPin>:
 8001b88:	6883      	ldr	r3, [r0, #8]
 8001b8a:	4219      	tst	r1, r3
 8001b8c:	bf14      	ite	ne
 8001b8e:	2001      	movne	r0, #1
 8001b90:	2000      	moveq	r0, #0
 8001b92:	4770      	bx	lr

08001b94 <HAL_GPIO_WritePin>:
 8001b94:	b10a      	cbz	r2, 8001b9a <HAL_GPIO_WritePin+0x6>
 8001b96:	6101      	str	r1, [r0, #16]
 8001b98:	4770      	bx	lr
 8001b9a:	0409      	lsls	r1, r1, #16
 8001b9c:	e7fb      	b.n	8001b96 <HAL_GPIO_WritePin+0x2>

08001b9e <HAL_GPIO_TogglePin>:
 8001b9e:	68c3      	ldr	r3, [r0, #12]
 8001ba0:	ea01 0203 	and.w	r2, r1, r3
 8001ba4:	ea21 0103 	bic.w	r1, r1, r3
 8001ba8:	ea41 4102 	orr.w	r1, r1, r2, lsl #16
 8001bac:	6101      	str	r1, [r0, #16]
 8001bae:	4770      	bx	lr

08001bb0 <HAL_GPIO_EXTI_IRQHandler>:
 8001bb0:	4a04      	ldr	r2, [pc, #16]	; (8001bc4 <HAL_GPIO_EXTI_IRQHandler+0x14>)
 8001bb2:	b508      	push	{r3, lr}
 8001bb4:	6951      	ldr	r1, [r2, #20]
 8001bb6:	4201      	tst	r1, r0
 8001bb8:	d002      	beq.n	8001bc0 <HAL_GPIO_EXTI_IRQHandler+0x10>
 8001bba:	6150      	str	r0, [r2, #20]
 8001bbc:	f7ff f97c 	bl	8000eb8 <HAL_GPIO_EXTI_Callback>
 8001bc0:	bd08      	pop	{r3, pc}
 8001bc2:	bf00      	nop
 8001bc4:	40010400 	.word	0x40010400

08001bc8 <HAL_RCC_OscConfig>:
 8001bc8:	e92d 41f3 	stmdb	sp!, {r0, r1, r4, r5, r6, r7, r8, lr}
 8001bcc:	4605      	mov	r5, r0
 8001bce:	b338      	cbz	r0, 8001c20 <HAL_RCC_OscConfig+0x58>
 8001bd0:	6803      	ldr	r3, [r0, #0]
 8001bd2:	07db      	lsls	r3, r3, #31
 8001bd4:	d410      	bmi.n	8001bf8 <HAL_RCC_OscConfig+0x30>
 8001bd6:	682b      	ldr	r3, [r5, #0]
 8001bd8:	079f      	lsls	r7, r3, #30
 8001bda:	d45e      	bmi.n	8001c9a <HAL_RCC_OscConfig+0xd2>
 8001bdc:	682b      	ldr	r3, [r5, #0]
 8001bde:	0719      	lsls	r1, r3, #28
 8001be0:	f100 8095 	bmi.w	8001d0e <HAL_RCC_OscConfig+0x146>
 8001be4:	682b      	ldr	r3, [r5, #0]
 8001be6:	075a      	lsls	r2, r3, #29
 8001be8:	f100 80c1 	bmi.w	8001d6e <HAL_RCC_OscConfig+0x1a6>
 8001bec:	69e8      	ldr	r0, [r5, #28]
 8001bee:	2800      	cmp	r0, #0
 8001bf0:	f040 812c 	bne.w	8001e4c <HAL_RCC_OscConfig+0x284>
 8001bf4:	2000      	movs	r0, #0
 8001bf6:	e029      	b.n	8001c4c <HAL_RCC_OscConfig+0x84>
 8001bf8:	4c90      	ldr	r4, [pc, #576]	; (8001e3c <HAL_RCC_OscConfig+0x274>)
 8001bfa:	6863      	ldr	r3, [r4, #4]
 8001bfc:	f003 030c 	and.w	r3, r3, #12
 8001c00:	2b04      	cmp	r3, #4
 8001c02:	d007      	beq.n	8001c14 <HAL_RCC_OscConfig+0x4c>
 8001c04:	6863      	ldr	r3, [r4, #4]
 8001c06:	f003 030c 	and.w	r3, r3, #12
 8001c0a:	2b08      	cmp	r3, #8
 8001c0c:	d10a      	bne.n	8001c24 <HAL_RCC_OscConfig+0x5c>
 8001c0e:	6863      	ldr	r3, [r4, #4]
 8001c10:	03de      	lsls	r6, r3, #15
 8001c12:	d507      	bpl.n	8001c24 <HAL_RCC_OscConfig+0x5c>
 8001c14:	6823      	ldr	r3, [r4, #0]
 8001c16:	039c      	lsls	r4, r3, #14
 8001c18:	d5dd      	bpl.n	8001bd6 <HAL_RCC_OscConfig+0xe>
 8001c1a:	686b      	ldr	r3, [r5, #4]
 8001c1c:	2b00      	cmp	r3, #0
 8001c1e:	d1da      	bne.n	8001bd6 <HAL_RCC_OscConfig+0xe>
 8001c20:	2001      	movs	r0, #1
 8001c22:	e013      	b.n	8001c4c <HAL_RCC_OscConfig+0x84>
 8001c24:	686b      	ldr	r3, [r5, #4]
 8001c26:	f5b3 3f80 	cmp.w	r3, #65536	; 0x10000
 8001c2a:	d112      	bne.n	8001c52 <HAL_RCC_OscConfig+0x8a>
 8001c2c:	6823      	ldr	r3, [r4, #0]
 8001c2e:	f443 3380 	orr.w	r3, r3, #65536	; 0x10000
 8001c32:	6023      	str	r3, [r4, #0]
 8001c34:	f7ff fb7e 	bl	8001334 <HAL_GetTick>
 8001c38:	4606      	mov	r6, r0
 8001c3a:	6823      	ldr	r3, [r4, #0]
 8001c3c:	0398      	lsls	r0, r3, #14
 8001c3e:	d4ca      	bmi.n	8001bd6 <HAL_RCC_OscConfig+0xe>
 8001c40:	f7ff fb78 	bl	8001334 <HAL_GetTick>
 8001c44:	1b80      	subs	r0, r0, r6
 8001c46:	2864      	cmp	r0, #100	; 0x64
 8001c48:	d9f7      	bls.n	8001c3a <HAL_RCC_OscConfig+0x72>
 8001c4a:	2003      	movs	r0, #3
 8001c4c:	b002      	add	sp, #8
 8001c4e:	e8bd 81f0 	ldmia.w	sp!, {r4, r5, r6, r7, r8, pc}
 8001c52:	b99b      	cbnz	r3, 8001c7c <HAL_RCC_OscConfig+0xb4>
 8001c54:	6823      	ldr	r3, [r4, #0]
 8001c56:	f423 3380 	bic.w	r3, r3, #65536	; 0x10000
 8001c5a:	6023      	str	r3, [r4, #0]
 8001c5c:	6823      	ldr	r3, [r4, #0]
 8001c5e:	f423 2380 	bic.w	r3, r3, #262144	; 0x40000
 8001c62:	6023      	str	r3, [r4, #0]
 8001c64:	f7ff fb66 	bl	8001334 <HAL_GetTick>
 8001c68:	4606      	mov	r6, r0
 8001c6a:	6823      	ldr	r3, [r4, #0]
 8001c6c:	0399      	lsls	r1, r3, #14
 8001c6e:	d5b2      	bpl.n	8001bd6 <HAL_RCC_OscConfig+0xe>
 8001c70:	f7ff fb60 	bl	8001334 <HAL_GetTick>
 8001c74:	1b80      	subs	r0, r0, r6
 8001c76:	2864      	cmp	r0, #100	; 0x64
 8001c78:	d9f7      	bls.n	8001c6a <HAL_RCC_OscConfig+0xa2>
 8001c7a:	e7e6      	b.n	8001c4a <HAL_RCC_OscConfig+0x82>
 8001c7c:	f5b3 2fa0 	cmp.w	r3, #327680	; 0x50000
 8001c80:	6823      	ldr	r3, [r4, #0]
 8001c82:	d103      	bne.n	8001c8c <HAL_RCC_OscConfig+0xc4>
 8001c84:	f443 2380 	orr.w	r3, r3, #262144	; 0x40000
 8001c88:	6023      	str	r3, [r4, #0]
 8001c8a:	e7cf      	b.n	8001c2c <HAL_RCC_OscConfig+0x64>
 8001c8c:	f423 3380 	bic.w	r3, r3, #65536	; 0x10000
 8001c90:	6023      	str	r3, [r4, #0]
 8001c92:	6823      	ldr	r3, [r4, #0]
 8001c94:	f423 2380 	bic.w	r3, r3, #262144	; 0x40000
 8001c98:	e7cb      	b.n	8001c32 <HAL_RCC_OscConfig+0x6a>
 8001c9a:	4c68      	ldr	r4, [pc, #416]	; (8001e3c <HAL_RCC_OscConfig+0x274>)
 8001c9c:	6863      	ldr	r3, [r4, #4]
 8001c9e:	f013 0f0c 	tst.w	r3, #12
 8001ca2:	d007      	beq.n	8001cb4 <HAL_RCC_OscConfig+0xec>
 8001ca4:	6863      	ldr	r3, [r4, #4]
 8001ca6:	f003 030c 	and.w	r3, r3, #12
 8001caa:	2b08      	cmp	r3, #8
 8001cac:	d110      	bne.n	8001cd0 <HAL_RCC_OscConfig+0x108>
 8001cae:	6863      	ldr	r3, [r4, #4]
 8001cb0:	03da      	lsls	r2, r3, #15
 8001cb2:	d40d      	bmi.n	8001cd0 <HAL_RCC_OscConfig+0x108>
 8001cb4:	6823      	ldr	r3, [r4, #0]
 8001cb6:	079b      	lsls	r3, r3, #30
 8001cb8:	d502      	bpl.n	8001cc0 <HAL_RCC_OscConfig+0xf8>
 8001cba:	692b      	ldr	r3, [r5, #16]
 8001cbc:	2b01      	cmp	r3, #1
 8001cbe:	d1af      	bne.n	8001c20 <HAL_RCC_OscConfig+0x58>
 8001cc0:	6823      	ldr	r3, [r4, #0]
 8001cc2:	696a      	ldr	r2, [r5, #20]
 8001cc4:	f023 03f8 	bic.w	r3, r3, #248	; 0xf8
 8001cc8:	ea43 03c2 	orr.w	r3, r3, r2, lsl #3
 8001ccc:	6023      	str	r3, [r4, #0]
 8001cce:	e785      	b.n	8001bdc <HAL_RCC_OscConfig+0x14>
 8001cd0:	692a      	ldr	r2, [r5, #16]
 8001cd2:	4b5b      	ldr	r3, [pc, #364]	; (8001e40 <HAL_RCC_OscConfig+0x278>)
 8001cd4:	b16a      	cbz	r2, 8001cf2 <HAL_RCC_OscConfig+0x12a>
 8001cd6:	2201      	movs	r2, #1
 8001cd8:	601a      	str	r2, [r3, #0]
 8001cda:	f7ff fb2b 	bl	8001334 <HAL_GetTick>
 8001cde:	4606      	mov	r6, r0
 8001ce0:	6823      	ldr	r3, [r4, #0]
 8001ce2:	079f      	lsls	r7, r3, #30
 8001ce4:	d4ec      	bmi.n	8001cc0 <HAL_RCC_OscConfig+0xf8>
 8001ce6:	f7ff fb25 	bl	8001334 <HAL_GetTick>
 8001cea:	1b80      	subs	r0, r0, r6
 8001cec:	2802      	cmp	r0, #2
 8001cee:	d9f7      	bls.n	8001ce0 <HAL_RCC_OscConfig+0x118>
 8001cf0:	e7ab      	b.n	8001c4a <HAL_RCC_OscConfig+0x82>
 8001cf2:	601a      	str	r2, [r3, #0]
 8001cf4:	f7ff fb1e 	bl	8001334 <HAL_GetTick>
 8001cf8:	4606      	mov	r6, r0
 8001cfa:	6823      	ldr	r3, [r4, #0]
 8001cfc:	0798      	lsls	r0, r3, #30
 8001cfe:	f57f af6d 	bpl.w	8001bdc <HAL_RCC_OscConfig+0x14>
 8001d02:	f7ff fb17 	bl	8001334 <HAL_GetTick>
 8001d06:	1b80      	subs	r0, r0, r6
 8001d08:	2802      	cmp	r0, #2
 8001d0a:	d9f6      	bls.n	8001cfa <HAL_RCC_OscConfig+0x132>
 8001d0c:	e79d      	b.n	8001c4a <HAL_RCC_OscConfig+0x82>
 8001d0e:	69aa      	ldr	r2, [r5, #24]
 8001d10:	4e4a      	ldr	r6, [pc, #296]	; (8001e3c <HAL_RCC_OscConfig+0x274>)
 8001d12:	4b4b      	ldr	r3, [pc, #300]	; (8001e40 <HAL_RCC_OscConfig+0x278>)
 8001d14:	b1e2      	cbz	r2, 8001d50 <HAL_RCC_OscConfig+0x188>
 8001d16:	2201      	movs	r2, #1
 8001d18:	f8c3 2480 	str.w	r2, [r3, #1152]	; 0x480
 8001d1c:	f7ff fb0a 	bl	8001334 <HAL_GetTick>
 8001d20:	4604      	mov	r4, r0
 8001d22:	6a73      	ldr	r3, [r6, #36]	; 0x24
 8001d24:	079b      	lsls	r3, r3, #30
 8001d26:	d50d      	bpl.n	8001d44 <HAL_RCC_OscConfig+0x17c>
 8001d28:	f44f 52fa 	mov.w	r2, #8000	; 0x1f40
 8001d2c:	4b45      	ldr	r3, [pc, #276]	; (8001e44 <HAL_RCC_OscConfig+0x27c>)
 8001d2e:	681b      	ldr	r3, [r3, #0]
 8001d30:	fbb3 f3f2 	udiv	r3, r3, r2
 8001d34:	9301      	str	r3, [sp, #4]
 8001d36:	bf00      	nop
 8001d38:	9b01      	ldr	r3, [sp, #4]
 8001d3a:	1e5a      	subs	r2, r3, #1
 8001d3c:	9201      	str	r2, [sp, #4]
 8001d3e:	2b00      	cmp	r3, #0
 8001d40:	d1f9      	bne.n	8001d36 <HAL_RCC_OscConfig+0x16e>
 8001d42:	e74f      	b.n	8001be4 <HAL_RCC_OscConfig+0x1c>
 8001d44:	f7ff faf6 	bl	8001334 <HAL_GetTick>
 8001d48:	1b00      	subs	r0, r0, r4
 8001d4a:	2802      	cmp	r0, #2
 8001d4c:	d9e9      	bls.n	8001d22 <HAL_RCC_OscConfig+0x15a>
 8001d4e:	e77c      	b.n	8001c4a <HAL_RCC_OscConfig+0x82>
 8001d50:	f8c3 2480 	str.w	r2, [r3, #1152]	; 0x480
 8001d54:	f7ff faee 	bl	8001334 <HAL_GetTick>
 8001d58:	4604      	mov	r4, r0
 8001d5a:	6a73      	ldr	r3, [r6, #36]	; 0x24
 8001d5c:	079f      	lsls	r7, r3, #30
 8001d5e:	f57f af41 	bpl.w	8001be4 <HAL_RCC_OscConfig+0x1c>
 8001d62:	f7ff fae7 	bl	8001334 <HAL_GetTick>
 8001d66:	1b00      	subs	r0, r0, r4
 8001d68:	2802      	cmp	r0, #2
 8001d6a:	d9f6      	bls.n	8001d5a <HAL_RCC_OscConfig+0x192>
 8001d6c:	e76d      	b.n	8001c4a <HAL_RCC_OscConfig+0x82>
 8001d6e:	4c33      	ldr	r4, [pc, #204]	; (8001e3c <HAL_RCC_OscConfig+0x274>)
 8001d70:	69e3      	ldr	r3, [r4, #28]
 8001d72:	00d8      	lsls	r0, r3, #3
 8001d74:	d424      	bmi.n	8001dc0 <HAL_RCC_OscConfig+0x1f8>
 8001d76:	2701      	movs	r7, #1
 8001d78:	69e3      	ldr	r3, [r4, #28]
 8001d7a:	f043 5380 	orr.w	r3, r3, #268435456	; 0x10000000
 8001d7e:	61e3      	str	r3, [r4, #28]
 8001d80:	69e3      	ldr	r3, [r4, #28]
 8001d82:	f003 5380 	and.w	r3, r3, #268435456	; 0x10000000
 8001d86:	9300      	str	r3, [sp, #0]
 8001d88:	9b00      	ldr	r3, [sp, #0]
 8001d8a:	4e2f      	ldr	r6, [pc, #188]	; (8001e48 <HAL_RCC_OscConfig+0x280>)
 8001d8c:	6833      	ldr	r3, [r6, #0]
 8001d8e:	05d9      	lsls	r1, r3, #23
 8001d90:	d518      	bpl.n	8001dc4 <HAL_RCC_OscConfig+0x1fc>
 8001d92:	68eb      	ldr	r3, [r5, #12]
 8001d94:	2b01      	cmp	r3, #1
 8001d96:	d126      	bne.n	8001de6 <HAL_RCC_OscConfig+0x21e>
 8001d98:	6a23      	ldr	r3, [r4, #32]
 8001d9a:	f043 0301 	orr.w	r3, r3, #1
 8001d9e:	6223      	str	r3, [r4, #32]
 8001da0:	f7ff fac8 	bl	8001334 <HAL_GetTick>
 8001da4:	f241 3888 	movw	r8, #5000	; 0x1388
 8001da8:	4606      	mov	r6, r0
 8001daa:	6a23      	ldr	r3, [r4, #32]
 8001dac:	079b      	lsls	r3, r3, #30
 8001dae:	d53f      	bpl.n	8001e30 <HAL_RCC_OscConfig+0x268>
 8001db0:	2f00      	cmp	r7, #0
 8001db2:	f43f af1b 	beq.w	8001bec <HAL_RCC_OscConfig+0x24>
 8001db6:	69e3      	ldr	r3, [r4, #28]
 8001db8:	f023 5380 	bic.w	r3, r3, #268435456	; 0x10000000
 8001dbc:	61e3      	str	r3, [r4, #28]
 8001dbe:	e715      	b.n	8001bec <HAL_RCC_OscConfig+0x24>
 8001dc0:	2700      	movs	r7, #0
 8001dc2:	e7e2      	b.n	8001d8a <HAL_RCC_OscConfig+0x1c2>
 8001dc4:	6833      	ldr	r3, [r6, #0]
 8001dc6:	f443 7380 	orr.w	r3, r3, #256	; 0x100
 8001dca:	6033      	str	r3, [r6, #0]
 8001dcc:	f7ff fab2 	bl	8001334 <HAL_GetTick>
 8001dd0:	4680      	mov	r8, r0
 8001dd2:	6833      	ldr	r3, [r6, #0]
 8001dd4:	05da      	lsls	r2, r3, #23
 8001dd6:	d4dc      	bmi.n	8001d92 <HAL_RCC_OscConfig+0x1ca>
 8001dd8:	f7ff faac 	bl	8001334 <HAL_GetTick>
 8001ddc:	eba0 0008 	sub.w	r0, r0, r8
 8001de0:	2864      	cmp	r0, #100	; 0x64
 8001de2:	d9f6      	bls.n	8001dd2 <HAL_RCC_OscConfig+0x20a>
 8001de4:	e731      	b.n	8001c4a <HAL_RCC_OscConfig+0x82>
 8001de6:	b9ab      	cbnz	r3, 8001e14 <HAL_RCC_OscConfig+0x24c>
 8001de8:	6a23      	ldr	r3, [r4, #32]
 8001dea:	f241 3888 	movw	r8, #5000	; 0x1388
 8001dee:	f023 0301 	bic.w	r3, r3, #1
 8001df2:	6223      	str	r3, [r4, #32]
 8001df4:	6a23      	ldr	r3, [r4, #32]
 8001df6:	f023 0304 	bic.w	r3, r3, #4
 8001dfa:	6223      	str	r3, [r4, #32]
 8001dfc:	f7ff fa9a 	bl	8001334 <HAL_GetTick>
 8001e00:	4606      	mov	r6, r0
 8001e02:	6a23      	ldr	r3, [r4, #32]
 8001e04:	0798      	lsls	r0, r3, #30
 8001e06:	d5d3      	bpl.n	8001db0 <HAL_RCC_OscConfig+0x1e8>
 8001e08:	f7ff fa94 	bl	8001334 <HAL_GetTick>
 8001e0c:	1b80      	subs	r0, r0, r6
 8001e0e:	4540      	cmp	r0, r8
 8001e10:	d9f7      	bls.n	8001e02 <HAL_RCC_OscConfig+0x23a>
 8001e12:	e71a      	b.n	8001c4a <HAL_RCC_OscConfig+0x82>
 8001e14:	2b05      	cmp	r3, #5
 8001e16:	6a23      	ldr	r3, [r4, #32]
 8001e18:	d103      	bne.n	8001e22 <HAL_RCC_OscConfig+0x25a>
 8001e1a:	f043 0304 	orr.w	r3, r3, #4
 8001e1e:	6223      	str	r3, [r4, #32]
 8001e20:	e7ba      	b.n	8001d98 <HAL_RCC_OscConfig+0x1d0>
 8001e22:	f023 0301 	bic.w	r3, r3, #1
 8001e26:	6223      	str	r3, [r4, #32]
 8001e28:	6a23      	ldr	r3, [r4, #32]
 8001e2a:	f023 0304 	bic.w	r3, r3, #4
 8001e2e:	e7b6      	b.n	8001d9e <HAL_RCC_OscConfig+0x1d6>
 8001e30:	f7ff fa80 	bl	8001334 <HAL_GetTick>
 8001e34:	1b80      	subs	r0, r0, r6
 8001e36:	4540      	cmp	r0, r8
 8001e38:	d9b7      	bls.n	8001daa <HAL_RCC_OscConfig+0x1e2>
 8001e3a:	e706      	b.n	8001c4a <HAL_RCC_OscConfig+0x82>
 8001e3c:	40021000 	.word	0x40021000
 8001e40:	42420000 	.word	0x42420000
 8001e44:	20000000 	.word	0x20000000
 8001e48:	40007000 	.word	0x40007000
 8001e4c:	4c2a      	ldr	r4, [pc, #168]	; (8001ef8 <HAL_RCC_OscConfig+0x330>)
 8001e4e:	6863      	ldr	r3, [r4, #4]
 8001e50:	f003 030c 	and.w	r3, r3, #12
 8001e54:	2b08      	cmp	r3, #8
 8001e56:	d03e      	beq.n	8001ed6 <HAL_RCC_OscConfig+0x30e>
 8001e58:	2200      	movs	r2, #0
 8001e5a:	4b28      	ldr	r3, [pc, #160]	; (8001efc <HAL_RCC_OscConfig+0x334>)
 8001e5c:	2802      	cmp	r0, #2
 8001e5e:	661a      	str	r2, [r3, #96]	; 0x60
 8001e60:	d12c      	bne.n	8001ebc <HAL_RCC_OscConfig+0x2f4>
 8001e62:	f7ff fa67 	bl	8001334 <HAL_GetTick>
 8001e66:	4606      	mov	r6, r0
 8001e68:	6823      	ldr	r3, [r4, #0]
 8001e6a:	0199      	lsls	r1, r3, #6
 8001e6c:	d420      	bmi.n	8001eb0 <HAL_RCC_OscConfig+0x2e8>
 8001e6e:	6a2b      	ldr	r3, [r5, #32]
 8001e70:	f5b3 3f80 	cmp.w	r3, #65536	; 0x10000
 8001e74:	d105      	bne.n	8001e82 <HAL_RCC_OscConfig+0x2ba>
 8001e76:	6862      	ldr	r2, [r4, #4]
 8001e78:	68a9      	ldr	r1, [r5, #8]
 8001e7a:	f422 3200 	bic.w	r2, r2, #131072	; 0x20000
 8001e7e:	430a      	orrs	r2, r1
 8001e80:	6062      	str	r2, [r4, #4]
 8001e82:	6a69      	ldr	r1, [r5, #36]	; 0x24
 8001e84:	6862      	ldr	r2, [r4, #4]
 8001e86:	430b      	orrs	r3, r1
 8001e88:	f422 1274 	bic.w	r2, r2, #3997696	; 0x3d0000
 8001e8c:	4313      	orrs	r3, r2
 8001e8e:	2201      	movs	r2, #1
 8001e90:	6063      	str	r3, [r4, #4]
 8001e92:	4b1a      	ldr	r3, [pc, #104]	; (8001efc <HAL_RCC_OscConfig+0x334>)
 8001e94:	661a      	str	r2, [r3, #96]	; 0x60
 8001e96:	f7ff fa4d 	bl	8001334 <HAL_GetTick>
 8001e9a:	4605      	mov	r5, r0
 8001e9c:	6823      	ldr	r3, [r4, #0]
 8001e9e:	019a      	lsls	r2, r3, #6
 8001ea0:	f53f aea8 	bmi.w	8001bf4 <HAL_RCC_OscConfig+0x2c>
 8001ea4:	f7ff fa46 	bl	8001334 <HAL_GetTick>
 8001ea8:	1b40      	subs	r0, r0, r5
 8001eaa:	2802      	cmp	r0, #2
 8001eac:	d9f6      	bls.n	8001e9c <HAL_RCC_OscConfig+0x2d4>
 8001eae:	e6cc      	b.n	8001c4a <HAL_RCC_OscConfig+0x82>
 8001eb0:	f7ff fa40 	bl	8001334 <HAL_GetTick>
 8001eb4:	1b80      	subs	r0, r0, r6
 8001eb6:	2802      	cmp	r0, #2
 8001eb8:	d9d6      	bls.n	8001e68 <HAL_RCC_OscConfig+0x2a0>
 8001eba:	e6c6      	b.n	8001c4a <HAL_RCC_OscConfig+0x82>
 8001ebc:	f7ff fa3a 	bl	8001334 <HAL_GetTick>
 8001ec0:	4605      	mov	r5, r0
 8001ec2:	6823      	ldr	r3, [r4, #0]
 8001ec4:	019b      	lsls	r3, r3, #6
 8001ec6:	f57f ae95 	bpl.w	8001bf4 <HAL_RCC_OscConfig+0x2c>
 8001eca:	f7ff fa33 	bl	8001334 <HAL_GetTick>
 8001ece:	1b40      	subs	r0, r0, r5
 8001ed0:	2802      	cmp	r0, #2
 8001ed2:	d9f6      	bls.n	8001ec2 <HAL_RCC_OscConfig+0x2fa>
 8001ed4:	e6b9      	b.n	8001c4a <HAL_RCC_OscConfig+0x82>
 8001ed6:	2801      	cmp	r0, #1
 8001ed8:	f43f aeb8 	beq.w	8001c4c <HAL_RCC_OscConfig+0x84>
 8001edc:	6863      	ldr	r3, [r4, #4]
 8001ede:	6a2a      	ldr	r2, [r5, #32]
 8001ee0:	f403 3180 	and.w	r1, r3, #65536	; 0x10000
 8001ee4:	4291      	cmp	r1, r2
 8001ee6:	f47f ae9b 	bne.w	8001c20 <HAL_RCC_OscConfig+0x58>
 8001eea:	6a6a      	ldr	r2, [r5, #36]	; 0x24
 8001eec:	f403 1370 	and.w	r3, r3, #3932160	; 0x3c0000
 8001ef0:	4293      	cmp	r3, r2
 8001ef2:	f43f ae7f 	beq.w	8001bf4 <HAL_RCC_OscConfig+0x2c>
 8001ef6:	e693      	b.n	8001c20 <HAL_RCC_OscConfig+0x58>
 8001ef8:	40021000 	.word	0x40021000
 8001efc:	42420000 	.word	0x42420000

08001f00 <HAL_RCC_GetSysClockFreq>:
 8001f00:	4a0d      	ldr	r2, [pc, #52]	; (8001f38 <HAL_RCC_GetSysClockFreq+0x38>)
 8001f02:	6853      	ldr	r3, [r2, #4]
 8001f04:	f003 010c 	and.w	r1, r3, #12
 8001f08:	2908      	cmp	r1, #8
 8001f0a:	d112      	bne.n	8001f32 <HAL_RCC_GetSysClockFreq+0x32>
 8001f0c:	480b      	ldr	r0, [pc, #44]	; (8001f3c <HAL_RCC_GetSysClockFreq+0x3c>)
 8001f0e:	f3c3 4183 	ubfx	r1, r3, #18, #4
 8001f12:	03db      	lsls	r3, r3, #15
 8001f14:	5c40      	ldrb	r0, [r0, r1]
 8001f16:	d509      	bpl.n	8001f2c <HAL_RCC_GetSysClockFreq+0x2c>
 8001f18:	6853      	ldr	r3, [r2, #4]
 8001f1a:	4a09      	ldr	r2, [pc, #36]	; (8001f40 <HAL_RCC_GetSysClockFreq+0x40>)
 8001f1c:	f3c3 4340 	ubfx	r3, r3, #17, #1
 8001f20:	4350      	muls	r0, r2
 8001f22:	4a08      	ldr	r2, [pc, #32]	; (8001f44 <HAL_RCC_GetSysClockFreq+0x44>)
 8001f24:	5cd3      	ldrb	r3, [r2, r3]
 8001f26:	fbb0 f0f3 	udiv	r0, r0, r3
 8001f2a:	4770      	bx	lr
 8001f2c:	4b06      	ldr	r3, [pc, #24]	; (8001f48 <HAL_RCC_GetSysClockFreq+0x48>)
 8001f2e:	4358      	muls	r0, r3
 8001f30:	4770      	bx	lr
 8001f32:	4803      	ldr	r0, [pc, #12]	; (8001f40 <HAL_RCC_GetSysClockFreq+0x40>)
 8001f34:	4770      	bx	lr
 8001f36:	bf00      	nop
 8001f38:	40021000 	.word	0x40021000
 8001f3c:	080064ec 	.word	0x080064ec
 8001f40:	007a1200 	.word	0x007a1200
 8001f44:	080064fc 	.word	0x080064fc
 8001f48:	003d0900 	.word	0x003d0900

08001f4c <HAL_RCC_ClockConfig>:
 8001f4c:	e92d 41f0 	stmdb	sp!, {r4, r5, r6, r7, r8, lr}
 8001f50:	460d      	mov	r5, r1
 8001f52:	4604      	mov	r4, r0
 8001f54:	b910      	cbnz	r0, 8001f5c <HAL_RCC_ClockConfig+0x10>
 8001f56:	2001      	movs	r0, #1
 8001f58:	e8bd 81f0 	ldmia.w	sp!, {r4, r5, r6, r7, r8, pc}
 8001f5c:	4a44      	ldr	r2, [pc, #272]	; (8002070 <HAL_RCC_ClockConfig+0x124>)
 8001f5e:	6813      	ldr	r3, [r2, #0]
 8001f60:	f003 0307 	and.w	r3, r3, #7
 8001f64:	428b      	cmp	r3, r1
 8001f66:	d328      	bcc.n	8001fba <HAL_RCC_ClockConfig+0x6e>
 8001f68:	6821      	ldr	r1, [r4, #0]
 8001f6a:	078e      	lsls	r6, r1, #30
 8001f6c:	d430      	bmi.n	8001fd0 <HAL_RCC_ClockConfig+0x84>
 8001f6e:	07ca      	lsls	r2, r1, #31
 8001f70:	d443      	bmi.n	8001ffa <HAL_RCC_ClockConfig+0xae>
 8001f72:	4a3f      	ldr	r2, [pc, #252]	; (8002070 <HAL_RCC_ClockConfig+0x124>)
 8001f74:	6813      	ldr	r3, [r2, #0]
 8001f76:	f003 0307 	and.w	r3, r3, #7
 8001f7a:	42ab      	cmp	r3, r5
 8001f7c:	d865      	bhi.n	800204a <HAL_RCC_ClockConfig+0xfe>
 8001f7e:	6822      	ldr	r2, [r4, #0]
 8001f80:	4d3c      	ldr	r5, [pc, #240]	; (8002074 <HAL_RCC_ClockConfig+0x128>)
 8001f82:	f012 0f04 	tst.w	r2, #4
 8001f86:	d16c      	bne.n	8002062 <HAL_RCC_ClockConfig+0x116>
 8001f88:	0713      	lsls	r3, r2, #28
 8001f8a:	d506      	bpl.n	8001f9a <HAL_RCC_ClockConfig+0x4e>
 8001f8c:	686b      	ldr	r3, [r5, #4]
 8001f8e:	6922      	ldr	r2, [r4, #16]
 8001f90:	f423 5360 	bic.w	r3, r3, #14336	; 0x3800
 8001f94:	ea43 03c2 	orr.w	r3, r3, r2, lsl #3
 8001f98:	606b      	str	r3, [r5, #4]
 8001f9a:	f7ff ffb1 	bl	8001f00 <HAL_RCC_GetSysClockFreq>
 8001f9e:	686b      	ldr	r3, [r5, #4]
 8001fa0:	4a35      	ldr	r2, [pc, #212]	; (8002078 <HAL_RCC_ClockConfig+0x12c>)
 8001fa2:	f3c3 1303 	ubfx	r3, r3, #4, #4
 8001fa6:	5cd3      	ldrb	r3, [r2, r3]
 8001fa8:	40d8      	lsrs	r0, r3
 8001faa:	4b34      	ldr	r3, [pc, #208]	; (800207c <HAL_RCC_ClockConfig+0x130>)
 8001fac:	6018      	str	r0, [r3, #0]
 8001fae:	4b34      	ldr	r3, [pc, #208]	; (8002080 <HAL_RCC_ClockConfig+0x134>)
 8001fb0:	6818      	ldr	r0, [r3, #0]
 8001fb2:	f7ff f97d 	bl	80012b0 <HAL_InitTick>
 8001fb6:	2000      	movs	r0, #0
 8001fb8:	e7ce      	b.n	8001f58 <HAL_RCC_ClockConfig+0xc>
 8001fba:	6813      	ldr	r3, [r2, #0]
 8001fbc:	f023 0307 	bic.w	r3, r3, #7
 8001fc0:	430b      	orrs	r3, r1
 8001fc2:	6013      	str	r3, [r2, #0]
 8001fc4:	6813      	ldr	r3, [r2, #0]
 8001fc6:	f003 0307 	and.w	r3, r3, #7
 8001fca:	428b      	cmp	r3, r1
 8001fcc:	d1c3      	bne.n	8001f56 <HAL_RCC_ClockConfig+0xa>
 8001fce:	e7cb      	b.n	8001f68 <HAL_RCC_ClockConfig+0x1c>
 8001fd0:	4b28      	ldr	r3, [pc, #160]	; (8002074 <HAL_RCC_ClockConfig+0x128>)
 8001fd2:	f011 0f04 	tst.w	r1, #4
 8001fd6:	bf1e      	ittt	ne
 8001fd8:	685a      	ldrne	r2, [r3, #4]
 8001fda:	f442 62e0 	orrne.w	r2, r2, #1792	; 0x700
 8001fde:	605a      	strne	r2, [r3, #4]
 8001fe0:	0708      	lsls	r0, r1, #28
 8001fe2:	bf42      	ittt	mi
 8001fe4:	685a      	ldrmi	r2, [r3, #4]
 8001fe6:	f442 5260 	orrmi.w	r2, r2, #14336	; 0x3800
 8001fea:	605a      	strmi	r2, [r3, #4]
 8001fec:	685a      	ldr	r2, [r3, #4]
 8001fee:	68a0      	ldr	r0, [r4, #8]
 8001ff0:	f022 02f0 	bic.w	r2, r2, #240	; 0xf0
 8001ff4:	4302      	orrs	r2, r0
 8001ff6:	605a      	str	r2, [r3, #4]
 8001ff8:	e7b9      	b.n	8001f6e <HAL_RCC_ClockConfig+0x22>
 8001ffa:	6862      	ldr	r2, [r4, #4]
 8001ffc:	4e1d      	ldr	r6, [pc, #116]	; (8002074 <HAL_RCC_ClockConfig+0x128>)
 8001ffe:	2a01      	cmp	r2, #1
 8002000:	6833      	ldr	r3, [r6, #0]
 8002002:	d11a      	bne.n	800203a <HAL_RCC_ClockConfig+0xee>
 8002004:	f413 3f00 	tst.w	r3, #131072	; 0x20000
 8002008:	d0a5      	beq.n	8001f56 <HAL_RCC_ClockConfig+0xa>
 800200a:	6873      	ldr	r3, [r6, #4]
 800200c:	f241 3888 	movw	r8, #5000	; 0x1388
 8002010:	f023 0303 	bic.w	r3, r3, #3
 8002014:	4313      	orrs	r3, r2
 8002016:	6073      	str	r3, [r6, #4]
 8002018:	f7ff f98c 	bl	8001334 <HAL_GetTick>
 800201c:	4607      	mov	r7, r0
 800201e:	6873      	ldr	r3, [r6, #4]
 8002020:	6862      	ldr	r2, [r4, #4]
 8002022:	f003 030c 	and.w	r3, r3, #12
 8002026:	ebb3 0f82 	cmp.w	r3, r2, lsl #2
 800202a:	d0a2      	beq.n	8001f72 <HAL_RCC_ClockConfig+0x26>
 800202c:	f7ff f982 	bl	8001334 <HAL_GetTick>
 8002030:	1bc0      	subs	r0, r0, r7
 8002032:	4540      	cmp	r0, r8
 8002034:	d9f3      	bls.n	800201e <HAL_RCC_ClockConfig+0xd2>
 8002036:	2003      	movs	r0, #3
 8002038:	e78e      	b.n	8001f58 <HAL_RCC_ClockConfig+0xc>
 800203a:	2a02      	cmp	r2, #2
 800203c:	d102      	bne.n	8002044 <HAL_RCC_ClockConfig+0xf8>
 800203e:	f013 7f00 	tst.w	r3, #33554432	; 0x2000000
 8002042:	e7e1      	b.n	8002008 <HAL_RCC_ClockConfig+0xbc>
 8002044:	f013 0f02 	tst.w	r3, #2
 8002048:	e7de      	b.n	8002008 <HAL_RCC_ClockConfig+0xbc>
 800204a:	6813      	ldr	r3, [r2, #0]
 800204c:	f023 0307 	bic.w	r3, r3, #7
 8002050:	432b      	orrs	r3, r5
 8002052:	6013      	str	r3, [r2, #0]
 8002054:	6813      	ldr	r3, [r2, #0]
 8002056:	f003 0307 	and.w	r3, r3, #7
 800205a:	42ab      	cmp	r3, r5
 800205c:	f47f af7b 	bne.w	8001f56 <HAL_RCC_ClockConfig+0xa>
 8002060:	e78d      	b.n	8001f7e <HAL_RCC_ClockConfig+0x32>
 8002062:	686b      	ldr	r3, [r5, #4]
 8002064:	68e1      	ldr	r1, [r4, #12]
 8002066:	f423 63e0 	bic.w	r3, r3, #1792	; 0x700
 800206a:	430b      	orrs	r3, r1
 800206c:	606b      	str	r3, [r5, #4]
 800206e:	e78b      	b.n	8001f88 <HAL_RCC_ClockConfig+0x3c>
 8002070:	40022000 	.word	0x40022000
 8002074:	40021000 	.word	0x40021000
 8002078:	080064d4 	.word	0x080064d4
 800207c:	20000000 	.word	0x20000000
 8002080:	20000008 	.word	0x20000008

08002084 <HAL_RCC_GetPCLK1Freq>:
 8002084:	4b04      	ldr	r3, [pc, #16]	; (8002098 <HAL_RCC_GetPCLK1Freq+0x14>)
 8002086:	4a05      	ldr	r2, [pc, #20]	; (800209c <HAL_RCC_GetPCLK1Freq+0x18>)
 8002088:	685b      	ldr	r3, [r3, #4]
 800208a:	f3c3 2302 	ubfx	r3, r3, #8, #3
 800208e:	5cd3      	ldrb	r3, [r2, r3]
 8002090:	4a03      	ldr	r2, [pc, #12]	; (80020a0 <HAL_RCC_GetPCLK1Freq+0x1c>)
 8002092:	6810      	ldr	r0, [r2, #0]
 8002094:	40d8      	lsrs	r0, r3
 8002096:	4770      	bx	lr
 8002098:	40021000 	.word	0x40021000
 800209c:	080064e4 	.word	0x080064e4
 80020a0:	20000000 	.word	0x20000000

080020a4 <HAL_RCC_GetPCLK2Freq>:
 80020a4:	4b04      	ldr	r3, [pc, #16]	; (80020b8 <HAL_RCC_GetPCLK2Freq+0x14>)
 80020a6:	4a05      	ldr	r2, [pc, #20]	; (80020bc <HAL_RCC_GetPCLK2Freq+0x18>)
 80020a8:	685b      	ldr	r3, [r3, #4]
 80020aa:	f3c3 23c2 	ubfx	r3, r3, #11, #3
 80020ae:	5cd3      	ldrb	r3, [r2, r3]
 80020b0:	4a03      	ldr	r2, [pc, #12]	; (80020c0 <HAL_RCC_GetPCLK2Freq+0x1c>)
 80020b2:	6810      	ldr	r0, [r2, #0]
 80020b4:	40d8      	lsrs	r0, r3
 80020b6:	4770      	bx	lr
 80020b8:	40021000 	.word	0x40021000
 80020bc:	080064e4 	.word	0x080064e4
 80020c0:	20000000 	.word	0x20000000

080020c4 <HAL_RCCEx_PeriphCLKConfig>:
 80020c4:	6803      	ldr	r3, [r0, #0]
 80020c6:	e92d 41f3 	stmdb	sp!, {r0, r1, r4, r5, r6, r7, r8, lr}
 80020ca:	07d9      	lsls	r1, r3, #31
 80020cc:	4605      	mov	r5, r0
 80020ce:	d521      	bpl.n	8002114 <HAL_RCCEx_PeriphCLKConfig+0x50>
 80020d0:	4c36      	ldr	r4, [pc, #216]	; (80021ac <HAL_RCCEx_PeriphCLKConfig+0xe8>)
 80020d2:	69e3      	ldr	r3, [r4, #28]
 80020d4:	00da      	lsls	r2, r3, #3
 80020d6:	d433      	bmi.n	8002140 <HAL_RCCEx_PeriphCLKConfig+0x7c>
 80020d8:	2601      	movs	r6, #1
 80020da:	69e3      	ldr	r3, [r4, #28]
 80020dc:	f043 5380 	orr.w	r3, r3, #268435456	; 0x10000000
 80020e0:	61e3      	str	r3, [r4, #28]
 80020e2:	69e3      	ldr	r3, [r4, #28]
 80020e4:	f003 5380 	and.w	r3, r3, #268435456	; 0x10000000
 80020e8:	9301      	str	r3, [sp, #4]
 80020ea:	9b01      	ldr	r3, [sp, #4]
 80020ec:	4f30      	ldr	r7, [pc, #192]	; (80021b0 <HAL_RCCEx_PeriphCLKConfig+0xec>)
 80020ee:	683b      	ldr	r3, [r7, #0]
 80020f0:	05db      	lsls	r3, r3, #23
 80020f2:	d527      	bpl.n	8002144 <HAL_RCCEx_PeriphCLKConfig+0x80>
 80020f4:	6a23      	ldr	r3, [r4, #32]
 80020f6:	686a      	ldr	r2, [r5, #4]
 80020f8:	f413 7340 	ands.w	r3, r3, #768	; 0x300
 80020fc:	d136      	bne.n	800216c <HAL_RCCEx_PeriphCLKConfig+0xa8>
 80020fe:	6a23      	ldr	r3, [r4, #32]
 8002100:	686a      	ldr	r2, [r5, #4]
 8002102:	f423 7340 	bic.w	r3, r3, #768	; 0x300
 8002106:	4313      	orrs	r3, r2
 8002108:	6223      	str	r3, [r4, #32]
 800210a:	b11e      	cbz	r6, 8002114 <HAL_RCCEx_PeriphCLKConfig+0x50>
 800210c:	69e3      	ldr	r3, [r4, #28]
 800210e:	f023 5380 	bic.w	r3, r3, #268435456	; 0x10000000
 8002112:	61e3      	str	r3, [r4, #28]
 8002114:	6828      	ldr	r0, [r5, #0]
 8002116:	0783      	lsls	r3, r0, #30
 8002118:	d506      	bpl.n	8002128 <HAL_RCCEx_PeriphCLKConfig+0x64>
 800211a:	4924      	ldr	r1, [pc, #144]	; (80021ac <HAL_RCCEx_PeriphCLKConfig+0xe8>)
 800211c:	68ab      	ldr	r3, [r5, #8]
 800211e:	684a      	ldr	r2, [r1, #4]
 8002120:	f422 4240 	bic.w	r2, r2, #49152	; 0xc000
 8002124:	431a      	orrs	r2, r3
 8002126:	604a      	str	r2, [r1, #4]
 8002128:	f010 0010 	ands.w	r0, r0, #16
 800212c:	d01b      	beq.n	8002166 <HAL_RCCEx_PeriphCLKConfig+0xa2>
 800212e:	4a1f      	ldr	r2, [pc, #124]	; (80021ac <HAL_RCCEx_PeriphCLKConfig+0xe8>)
 8002130:	68e9      	ldr	r1, [r5, #12]
 8002132:	6853      	ldr	r3, [r2, #4]
 8002134:	2000      	movs	r0, #0
 8002136:	f423 0380 	bic.w	r3, r3, #4194304	; 0x400000
 800213a:	430b      	orrs	r3, r1
 800213c:	6053      	str	r3, [r2, #4]
 800213e:	e012      	b.n	8002166 <HAL_RCCEx_PeriphCLKConfig+0xa2>
 8002140:	2600      	movs	r6, #0
 8002142:	e7d3      	b.n	80020ec <HAL_RCCEx_PeriphCLKConfig+0x28>
 8002144:	683b      	ldr	r3, [r7, #0]
 8002146:	f443 7380 	orr.w	r3, r3, #256	; 0x100
 800214a:	603b      	str	r3, [r7, #0]
 800214c:	f7ff f8f2 	bl	8001334 <HAL_GetTick>
 8002150:	4680      	mov	r8, r0
 8002152:	683b      	ldr	r3, [r7, #0]
 8002154:	05d8      	lsls	r0, r3, #23
 8002156:	d4cd      	bmi.n	80020f4 <HAL_RCCEx_PeriphCLKConfig+0x30>
 8002158:	f7ff f8ec 	bl	8001334 <HAL_GetTick>
 800215c:	eba0 0008 	sub.w	r0, r0, r8
 8002160:	2864      	cmp	r0, #100	; 0x64
 8002162:	d9f6      	bls.n	8002152 <HAL_RCCEx_PeriphCLKConfig+0x8e>
 8002164:	2003      	movs	r0, #3
 8002166:	b002      	add	sp, #8
 8002168:	e8bd 81f0 	ldmia.w	sp!, {r4, r5, r6, r7, r8, pc}
 800216c:	f402 7240 	and.w	r2, r2, #768	; 0x300
 8002170:	429a      	cmp	r2, r3
 8002172:	d0c4      	beq.n	80020fe <HAL_RCCEx_PeriphCLKConfig+0x3a>
 8002174:	2001      	movs	r0, #1
 8002176:	4a0f      	ldr	r2, [pc, #60]	; (80021b4 <HAL_RCCEx_PeriphCLKConfig+0xf0>)
 8002178:	6a23      	ldr	r3, [r4, #32]
 800217a:	f8c2 0440 	str.w	r0, [r2, #1088]	; 0x440
 800217e:	2000      	movs	r0, #0
 8002180:	f423 7140 	bic.w	r1, r3, #768	; 0x300
 8002184:	f8c2 0440 	str.w	r0, [r2, #1088]	; 0x440
 8002188:	6221      	str	r1, [r4, #32]
 800218a:	07d9      	lsls	r1, r3, #31
 800218c:	d5b7      	bpl.n	80020fe <HAL_RCCEx_PeriphCLKConfig+0x3a>
 800218e:	f7ff f8d1 	bl	8001334 <HAL_GetTick>
 8002192:	f241 3888 	movw	r8, #5000	; 0x1388
 8002196:	4607      	mov	r7, r0
 8002198:	6a23      	ldr	r3, [r4, #32]
 800219a:	079a      	lsls	r2, r3, #30
 800219c:	d4af      	bmi.n	80020fe <HAL_RCCEx_PeriphCLKConfig+0x3a>
 800219e:	f7ff f8c9 	bl	8001334 <HAL_GetTick>
 80021a2:	1bc0      	subs	r0, r0, r7
 80021a4:	4540      	cmp	r0, r8
 80021a6:	d9f7      	bls.n	8002198 <HAL_RCCEx_PeriphCLKConfig+0xd4>
 80021a8:	e7dc      	b.n	8002164 <HAL_RCCEx_PeriphCLKConfig+0xa0>
 80021aa:	bf00      	nop
 80021ac:	40021000 	.word	0x40021000
 80021b0:	40007000 	.word	0x40007000
 80021b4:	42420000 	.word	0x42420000

080021b8 <HAL_RCCEx_GetPeriphCLKFreq>:
 80021b8:	2802      	cmp	r0, #2
 80021ba:	b508      	push	{r3, lr}
 80021bc:	d044      	beq.n	8002248 <HAL_RCCEx_GetPeriphCLKFreq+0x90>
 80021be:	2810      	cmp	r0, #16
 80021c0:	d003      	beq.n	80021ca <HAL_RCCEx_GetPeriphCLKFreq+0x12>
 80021c2:	2801      	cmp	r0, #1
 80021c4:	d022      	beq.n	800220c <HAL_RCCEx_GetPeriphCLKFreq+0x54>
 80021c6:	2000      	movs	r0, #0
 80021c8:	e034      	b.n	8002234 <HAL_RCCEx_GetPeriphCLKFreq+0x7c>
 80021ca:	4b25      	ldr	r3, [pc, #148]	; (8002260 <HAL_RCCEx_GetPeriphCLKFreq+0xa8>)
 80021cc:	685a      	ldr	r2, [r3, #4]
 80021ce:	6818      	ldr	r0, [r3, #0]
 80021d0:	f010 7080 	ands.w	r0, r0, #16777216	; 0x1000000
 80021d4:	d02e      	beq.n	8002234 <HAL_RCCEx_GetPeriphCLKFreq+0x7c>
 80021d6:	f3c2 4183 	ubfx	r1, r2, #18, #4
 80021da:	4822      	ldr	r0, [pc, #136]	; (8002264 <HAL_RCCEx_GetPeriphCLKFreq+0xac>)
 80021dc:	03d2      	lsls	r2, r2, #15
 80021de:	bf48      	it	mi
 80021e0:	685a      	ldrmi	r2, [r3, #4]
 80021e2:	5c40      	ldrb	r0, [r0, r1]
 80021e4:	bf41      	itttt	mi
 80021e6:	4920      	ldrmi	r1, [pc, #128]	; (8002268 <HAL_RCCEx_GetPeriphCLKFreq+0xb0>)
 80021e8:	f3c2 4240 	ubfxmi	r2, r2, #17, #1
 80021ec:	5c89      	ldrbmi	r1, [r1, r2]
 80021ee:	4a1f      	ldrmi	r2, [pc, #124]	; (800226c <HAL_RCCEx_GetPeriphCLKFreq+0xb4>)
 80021f0:	685b      	ldr	r3, [r3, #4]
 80021f2:	bf4c      	ite	mi
 80021f4:	fbb2 f2f1 	udivmi	r2, r2, r1
 80021f8:	4a1d      	ldrpl	r2, [pc, #116]	; (8002270 <HAL_RCCEx_GetPeriphCLKFreq+0xb8>)
 80021fa:	025b      	lsls	r3, r3, #9
 80021fc:	fb02 f000 	mul.w	r0, r2, r0
 8002200:	d418      	bmi.n	8002234 <HAL_RCCEx_GetPeriphCLKFreq+0x7c>
 8002202:	2303      	movs	r3, #3
 8002204:	0040      	lsls	r0, r0, #1
 8002206:	fbb0 f0f3 	udiv	r0, r0, r3
 800220a:	e013      	b.n	8002234 <HAL_RCCEx_GetPeriphCLKFreq+0x7c>
 800220c:	f240 3102 	movw	r1, #770	; 0x302
 8002210:	4a13      	ldr	r2, [pc, #76]	; (8002260 <HAL_RCCEx_GetPeriphCLKFreq+0xa8>)
 8002212:	6a13      	ldr	r3, [r2, #32]
 8002214:	4019      	ands	r1, r3
 8002216:	f5b1 7f81 	cmp.w	r1, #258	; 0x102
 800221a:	d01e      	beq.n	800225a <HAL_RCCEx_GetPeriphCLKFreq+0xa2>
 800221c:	f403 7340 	and.w	r3, r3, #768	; 0x300
 8002220:	f5b3 7f00 	cmp.w	r3, #512	; 0x200
 8002224:	d107      	bne.n	8002236 <HAL_RCCEx_GetPeriphCLKFreq+0x7e>
 8002226:	f649 4340 	movw	r3, #40000	; 0x9c40
 800222a:	6a50      	ldr	r0, [r2, #36]	; 0x24
 800222c:	f010 0002 	ands.w	r0, r0, #2
 8002230:	bf18      	it	ne
 8002232:	4618      	movne	r0, r3
 8002234:	bd08      	pop	{r3, pc}
 8002236:	f5b3 7f40 	cmp.w	r3, #768	; 0x300
 800223a:	d1c4      	bne.n	80021c6 <HAL_RCCEx_GetPeriphCLKFreq+0xe>
 800223c:	6810      	ldr	r0, [r2, #0]
 800223e:	f24f 4324 	movw	r3, #62500	; 0xf424
 8002242:	f410 3000 	ands.w	r0, r0, #131072	; 0x20000
 8002246:	e7f3      	b.n	8002230 <HAL_RCCEx_GetPeriphCLKFreq+0x78>
 8002248:	f7ff ff2c 	bl	80020a4 <HAL_RCC_GetPCLK2Freq>
 800224c:	4b04      	ldr	r3, [pc, #16]	; (8002260 <HAL_RCCEx_GetPeriphCLKFreq+0xa8>)
 800224e:	685b      	ldr	r3, [r3, #4]
 8002250:	f3c3 3381 	ubfx	r3, r3, #14, #2
 8002254:	3301      	adds	r3, #1
 8002256:	005b      	lsls	r3, r3, #1
 8002258:	e7d5      	b.n	8002206 <HAL_RCCEx_GetPeriphCLKFreq+0x4e>
 800225a:	f44f 4000 	mov.w	r0, #32768	; 0x8000
 800225e:	e7e9      	b.n	8002234 <HAL_RCCEx_GetPeriphCLKFreq+0x7c>
 8002260:	40021000 	.word	0x40021000
 8002264:	080064fe 	.word	0x080064fe
 8002268:	0800650e 	.word	0x0800650e
 800226c:	007a1200 	.word	0x007a1200
 8002270:	003d0900 	.word	0x003d0900

08002274 <TIM_OC1_SetConfig>:
 8002274:	6a03      	ldr	r3, [r0, #32]
 8002276:	6a02      	ldr	r2, [r0, #32]
 8002278:	b570      	push	{r4, r5, r6, lr}
 800227a:	f022 0201 	bic.w	r2, r2, #1
 800227e:	6202      	str	r2, [r0, #32]
 8002280:	6844      	ldr	r4, [r0, #4]
 8002282:	6982      	ldr	r2, [r0, #24]
 8002284:	680d      	ldr	r5, [r1, #0]
 8002286:	f022 0273 	bic.w	r2, r2, #115	; 0x73
 800228a:	432a      	orrs	r2, r5
 800228c:	688d      	ldr	r5, [r1, #8]
 800228e:	f023 0302 	bic.w	r3, r3, #2
 8002292:	432b      	orrs	r3, r5
 8002294:	4d0a      	ldr	r5, [pc, #40]	; (80022c0 <TIM_OC1_SetConfig+0x4c>)
 8002296:	42a8      	cmp	r0, r5
 8002298:	d10b      	bne.n	80022b2 <TIM_OC1_SetConfig+0x3e>
 800229a:	68cd      	ldr	r5, [r1, #12]
 800229c:	f023 0308 	bic.w	r3, r3, #8
 80022a0:	432b      	orrs	r3, r5
 80022a2:	f424 7440 	bic.w	r4, r4, #768	; 0x300
 80022a6:	e9d1 5605 	ldrd	r5, r6, [r1, #20]
 80022aa:	4335      	orrs	r5, r6
 80022ac:	f023 0304 	bic.w	r3, r3, #4
 80022b0:	432c      	orrs	r4, r5
 80022b2:	6044      	str	r4, [r0, #4]
 80022b4:	6182      	str	r2, [r0, #24]
 80022b6:	684a      	ldr	r2, [r1, #4]
 80022b8:	6342      	str	r2, [r0, #52]	; 0x34
 80022ba:	6203      	str	r3, [r0, #32]
 80022bc:	bd70      	pop	{r4, r5, r6, pc}
 80022be:	bf00      	nop
 80022c0:	40012c00 	.word	0x40012c00

080022c4 <TIM_OC3_SetConfig>:
 80022c4:	6a03      	ldr	r3, [r0, #32]
 80022c6:	6a02      	ldr	r2, [r0, #32]
 80022c8:	b570      	push	{r4, r5, r6, lr}
 80022ca:	f422 7280 	bic.w	r2, r2, #256	; 0x100
 80022ce:	6202      	str	r2, [r0, #32]
 80022d0:	6844      	ldr	r4, [r0, #4]
 80022d2:	69c2      	ldr	r2, [r0, #28]
 80022d4:	680d      	ldr	r5, [r1, #0]
 80022d6:	f022 0273 	bic.w	r2, r2, #115	; 0x73
 80022da:	432a      	orrs	r2, r5
 80022dc:	688d      	ldr	r5, [r1, #8]
 80022de:	f423 7300 	bic.w	r3, r3, #512	; 0x200
 80022e2:	ea43 2305 	orr.w	r3, r3, r5, lsl #8
 80022e6:	4d0b      	ldr	r5, [pc, #44]	; (8002314 <TIM_OC3_SetConfig+0x50>)
 80022e8:	42a8      	cmp	r0, r5
 80022ea:	d10d      	bne.n	8002308 <TIM_OC3_SetConfig+0x44>
 80022ec:	68cd      	ldr	r5, [r1, #12]
 80022ee:	f423 6300 	bic.w	r3, r3, #2048	; 0x800
 80022f2:	ea43 2305 	orr.w	r3, r3, r5, lsl #8
 80022f6:	f424 5440 	bic.w	r4, r4, #12288	; 0x3000
 80022fa:	e9d1 5605 	ldrd	r5, r6, [r1, #20]
 80022fe:	4335      	orrs	r5, r6
 8002300:	f423 6380 	bic.w	r3, r3, #1024	; 0x400
 8002304:	ea44 1405 	orr.w	r4, r4, r5, lsl #4
 8002308:	6044      	str	r4, [r0, #4]
 800230a:	61c2      	str	r2, [r0, #28]
 800230c:	684a      	ldr	r2, [r1, #4]
 800230e:	63c2      	str	r2, [r0, #60]	; 0x3c
 8002310:	6203      	str	r3, [r0, #32]
 8002312:	bd70      	pop	{r4, r5, r6, pc}
 8002314:	40012c00 	.word	0x40012c00

08002318 <TIM_OC4_SetConfig>:
 8002318:	6a03      	ldr	r3, [r0, #32]
 800231a:	6a02      	ldr	r2, [r0, #32]
 800231c:	b530      	push	{r4, r5, lr}
 800231e:	f422 5280 	bic.w	r2, r2, #4096	; 0x1000
 8002322:	6202      	str	r2, [r0, #32]
 8002324:	6844      	ldr	r4, [r0, #4]
 8002326:	69c2      	ldr	r2, [r0, #28]
 8002328:	680d      	ldr	r5, [r1, #0]
 800232a:	f422 42e6 	bic.w	r2, r2, #29440	; 0x7300
 800232e:	ea42 2205 	orr.w	r2, r2, r5, lsl #8
 8002332:	688d      	ldr	r5, [r1, #8]
 8002334:	f423 5300 	bic.w	r3, r3, #8192	; 0x2000
 8002338:	ea43 3305 	orr.w	r3, r3, r5, lsl #12
 800233c:	4d06      	ldr	r5, [pc, #24]	; (8002358 <TIM_OC4_SetConfig+0x40>)
 800233e:	42a8      	cmp	r0, r5
 8002340:	bf02      	ittt	eq
 8002342:	694d      	ldreq	r5, [r1, #20]
 8002344:	f424 4480 	biceq.w	r4, r4, #16384	; 0x4000
 8002348:	ea44 1485 	orreq.w	r4, r4, r5, lsl #6
 800234c:	6044      	str	r4, [r0, #4]
 800234e:	61c2      	str	r2, [r0, #28]
 8002350:	684a      	ldr	r2, [r1, #4]
 8002352:	6402      	str	r2, [r0, #64]	; 0x40
 8002354:	6203      	str	r3, [r0, #32]
 8002356:	bd30      	pop	{r4, r5, pc}
 8002358:	40012c00 	.word	0x40012c00

0800235c <HAL_TIM_PWM_MspInit>:
 800235c:	4770      	bx	lr
	...

08002360 <TIM_Base_SetConfig>:
 8002360:	4a16      	ldr	r2, [pc, #88]	; (80023bc <TIM_Base_SetConfig+0x5c>)
 8002362:	b510      	push	{r4, lr}
 8002364:	4290      	cmp	r0, r2
 8002366:	6803      	ldr	r3, [r0, #0]
 8002368:	d005      	beq.n	8002376 <TIM_Base_SetConfig+0x16>
 800236a:	f1b0 4f80 	cmp.w	r0, #1073741824	; 0x40000000
 800236e:	d002      	beq.n	8002376 <TIM_Base_SetConfig+0x16>
 8002370:	4c13      	ldr	r4, [pc, #76]	; (80023c0 <TIM_Base_SetConfig+0x60>)
 8002372:	42a0      	cmp	r0, r4
 8002374:	d110      	bne.n	8002398 <TIM_Base_SetConfig+0x38>
 8002376:	684c      	ldr	r4, [r1, #4]
 8002378:	f023 0370 	bic.w	r3, r3, #112	; 0x70
 800237c:	4290      	cmp	r0, r2
 800237e:	ea43 0304 	orr.w	r3, r3, r4
 8002382:	d005      	beq.n	8002390 <TIM_Base_SetConfig+0x30>
 8002384:	f1b0 4f80 	cmp.w	r0, #1073741824	; 0x40000000
 8002388:	d002      	beq.n	8002390 <TIM_Base_SetConfig+0x30>
 800238a:	4a0d      	ldr	r2, [pc, #52]	; (80023c0 <TIM_Base_SetConfig+0x60>)
 800238c:	4290      	cmp	r0, r2
 800238e:	d103      	bne.n	8002398 <TIM_Base_SetConfig+0x38>
 8002390:	68ca      	ldr	r2, [r1, #12]
 8002392:	f423 7340 	bic.w	r3, r3, #768	; 0x300
 8002396:	4313      	orrs	r3, r2
 8002398:	694a      	ldr	r2, [r1, #20]
 800239a:	f023 0380 	bic.w	r3, r3, #128	; 0x80
 800239e:	4313      	orrs	r3, r2
 80023a0:	6003      	str	r3, [r0, #0]
 80023a2:	688b      	ldr	r3, [r1, #8]
 80023a4:	62c3      	str	r3, [r0, #44]	; 0x2c
 80023a6:	680b      	ldr	r3, [r1, #0]
 80023a8:	6283      	str	r3, [r0, #40]	; 0x28
 80023aa:	4b04      	ldr	r3, [pc, #16]	; (80023bc <TIM_Base_SetConfig+0x5c>)
 80023ac:	4298      	cmp	r0, r3
 80023ae:	bf04      	itt	eq
 80023b0:	690b      	ldreq	r3, [r1, #16]
 80023b2:	6303      	streq	r3, [r0, #48]	; 0x30
 80023b4:	2301      	movs	r3, #1
 80023b6:	6143      	str	r3, [r0, #20]
 80023b8:	bd10      	pop	{r4, pc}
 80023ba:	bf00      	nop
 80023bc:	40012c00 	.word	0x40012c00
 80023c0:	40000400 	.word	0x40000400

080023c4 <HAL_TIM_Base_Init>:
 80023c4:	b510      	push	{r4, lr}
 80023c6:	4604      	mov	r4, r0
 80023c8:	b330      	cbz	r0, 8002418 <HAL_TIM_Base_Init+0x54>
 80023ca:	f890 303d 	ldrb.w	r3, [r0, #61]	; 0x3d
 80023ce:	f003 02ff 	and.w	r2, r3, #255	; 0xff
 80023d2:	b91b      	cbnz	r3, 80023dc <HAL_TIM_Base_Init+0x18>
 80023d4:	f880 203c 	strb.w	r2, [r0, #60]	; 0x3c
 80023d8:	f7fe fe5c 	bl	8001094 <HAL_TIM_Base_MspInit>
 80023dc:	2302      	movs	r3, #2
 80023de:	6820      	ldr	r0, [r4, #0]
 80023e0:	f884 303d 	strb.w	r3, [r4, #61]	; 0x3d
 80023e4:	1d21      	adds	r1, r4, #4
 80023e6:	f7ff ffbb 	bl	8002360 <TIM_Base_SetConfig>
 80023ea:	2301      	movs	r3, #1
 80023ec:	2000      	movs	r0, #0
 80023ee:	f884 3046 	strb.w	r3, [r4, #70]	; 0x46
 80023f2:	f884 303e 	strb.w	r3, [r4, #62]	; 0x3e
 80023f6:	f884 303f 	strb.w	r3, [r4, #63]	; 0x3f
 80023fa:	f884 3040 	strb.w	r3, [r4, #64]	; 0x40
 80023fe:	f884 3041 	strb.w	r3, [r4, #65]	; 0x41
 8002402:	f884 3042 	strb.w	r3, [r4, #66]	; 0x42
 8002406:	f884 3043 	strb.w	r3, [r4, #67]	; 0x43
 800240a:	f884 3044 	strb.w	r3, [r4, #68]	; 0x44
 800240e:	f884 3045 	strb.w	r3, [r4, #69]	; 0x45
 8002412:	f884 303d 	strb.w	r3, [r4, #61]	; 0x3d
 8002416:	bd10      	pop	{r4, pc}
 8002418:	2001      	movs	r0, #1
 800241a:	e7fc      	b.n	8002416 <HAL_TIM_Base_Init+0x52>

0800241c <HAL_TIM_PWM_Init>:
 800241c:	b510      	push	{r4, lr}
 800241e:	4604      	mov	r4, r0
 8002420:	b330      	cbz	r0, 8002470 <HAL_TIM_PWM_Init+0x54>
 8002422:	f890 303d 	ldrb.w	r3, [r0, #61]	; 0x3d
 8002426:	f003 02ff 	and.w	r2, r3, #255	; 0xff
 800242a:	b91b      	cbnz	r3, 8002434 <HAL_TIM_PWM_Init+0x18>
 800242c:	f880 203c 	strb.w	r2, [r0, #60]	; 0x3c
 8002430:	f7ff ff94 	bl	800235c <HAL_TIM_PWM_MspInit>
 8002434:	2302      	movs	r3, #2
 8002436:	6820      	ldr	r0, [r4, #0]
 8002438:	f884 303d 	strb.w	r3, [r4, #61]	; 0x3d
 800243c:	1d21      	adds	r1, r4, #4
 800243e:	f7ff ff8f 	bl	8002360 <TIM_Base_SetConfig>
 8002442:	2301      	movs	r3, #1
 8002444:	2000      	movs	r0, #0
 8002446:	f884 3046 	strb.w	r3, [r4, #70]	; 0x46
 800244a:	f884 303e 	strb.w	r3, [r4, #62]	; 0x3e
 800244e:	f884 303f 	strb.w	r3, [r4, #63]	; 0x3f
 8002452:	f884 3040 	strb.w	r3, [r4, #64]	; 0x40
 8002456:	f884 3041 	strb.w	r3, [r4, #65]	; 0x41
 800245a:	f884 3042 	strb.w	r3, [r4, #66]	; 0x42
 800245e:	f884 3043 	strb.w	r3, [r4, #67]	; 0x43
 8002462:	f884 3044 	strb.w	r3, [r4, #68]	; 0x44
 8002466:	f884 3045 	strb.w	r3, [r4, #69]	; 0x45
 800246a:	f884 303d 	strb.w	r3, [r4, #61]	; 0x3d
 800246e:	bd10      	pop	{r4, pc}
 8002470:	2001      	movs	r0, #1
 8002472:	e7fc      	b.n	800246e <HAL_TIM_PWM_Init+0x52>

08002474 <TIM_OC2_SetConfig>:
 8002474:	6a03      	ldr	r3, [r0, #32]
 8002476:	6a02      	ldr	r2, [r0, #32]
 8002478:	b570      	push	{r4, r5, r6, lr}
 800247a:	f022 0210 	bic.w	r2, r2, #16
 800247e:	6202      	str	r2, [r0, #32]
 8002480:	6844      	ldr	r4, [r0, #4]
 8002482:	6982      	ldr	r2, [r0, #24]
 8002484:	680d      	ldr	r5, [r1, #0]
 8002486:	f422 42e6 	bic.w	r2, r2, #29440	; 0x7300
 800248a:	ea42 2205 	orr.w	r2, r2, r5, lsl #8
 800248e:	688d      	ldr	r5, [r1, #8]
 8002490:	f023 0320 	bic.w	r3, r3, #32
 8002494:	ea43 1305 	orr.w	r3, r3, r5, lsl #4
 8002498:	4d0b      	ldr	r5, [pc, #44]	; (80024c8 <TIM_OC2_SetConfig+0x54>)
 800249a:	42a8      	cmp	r0, r5
 800249c:	d10d      	bne.n	80024ba <TIM_OC2_SetConfig+0x46>
 800249e:	68cd      	ldr	r5, [r1, #12]
 80024a0:	f023 0380 	bic.w	r3, r3, #128	; 0x80
 80024a4:	ea43 1305 	orr.w	r3, r3, r5, lsl #4
 80024a8:	f424 6440 	bic.w	r4, r4, #3072	; 0xc00
 80024ac:	e9d1 5605 	ldrd	r5, r6, [r1, #20]
 80024b0:	4335      	orrs	r5, r6
 80024b2:	f023 0340 	bic.w	r3, r3, #64	; 0x40
 80024b6:	ea44 0485 	orr.w	r4, r4, r5, lsl #2
 80024ba:	6044      	str	r4, [r0, #4]
 80024bc:	6182      	str	r2, [r0, #24]
 80024be:	684a      	ldr	r2, [r1, #4]
 80024c0:	6382      	str	r2, [r0, #56]	; 0x38
 80024c2:	6203      	str	r3, [r0, #32]
 80024c4:	bd70      	pop	{r4, r5, r6, pc}
 80024c6:	bf00      	nop
 80024c8:	40012c00 	.word	0x40012c00

080024cc <HAL_TIM_PWM_ConfigChannel>:
 80024cc:	b570      	push	{r4, r5, r6, lr}
 80024ce:	f890 303c 	ldrb.w	r3, [r0, #60]	; 0x3c
 80024d2:	4605      	mov	r5, r0
 80024d4:	2b01      	cmp	r3, #1
 80024d6:	d050      	beq.n	800257a <HAL_TIM_PWM_ConfigChannel+0xae>
 80024d8:	2301      	movs	r3, #1
 80024da:	2a08      	cmp	r2, #8
 80024dc:	f880 303c 	strb.w	r3, [r0, #60]	; 0x3c
 80024e0:	d03b      	beq.n	800255a <HAL_TIM_PWM_ConfigChannel+0x8e>
 80024e2:	d807      	bhi.n	80024f4 <HAL_TIM_PWM_ConfigChannel+0x28>
 80024e4:	b1c2      	cbz	r2, 8002518 <HAL_TIM_PWM_ConfigChannel+0x4c>
 80024e6:	2a04      	cmp	r2, #4
 80024e8:	d027      	beq.n	800253a <HAL_TIM_PWM_ConfigChannel+0x6e>
 80024ea:	4618      	mov	r0, r3
 80024ec:	2300      	movs	r3, #0
 80024ee:	f885 303c 	strb.w	r3, [r5, #60]	; 0x3c
 80024f2:	bd70      	pop	{r4, r5, r6, pc}
 80024f4:	2a0c      	cmp	r2, #12
 80024f6:	d1f8      	bne.n	80024ea <HAL_TIM_PWM_ConfigChannel+0x1e>
 80024f8:	6800      	ldr	r0, [r0, #0]
 80024fa:	f7ff ff0d 	bl	8002318 <TIM_OC4_SetConfig>
 80024fe:	69c3      	ldr	r3, [r0, #28]
 8002500:	690a      	ldr	r2, [r1, #16]
 8002502:	f443 6300 	orr.w	r3, r3, #2048	; 0x800
 8002506:	61c3      	str	r3, [r0, #28]
 8002508:	69c3      	ldr	r3, [r0, #28]
 800250a:	f423 6380 	bic.w	r3, r3, #1024	; 0x400
 800250e:	61c3      	str	r3, [r0, #28]
 8002510:	69c3      	ldr	r3, [r0, #28]
 8002512:	ea43 2302 	orr.w	r3, r3, r2, lsl #8
 8002516:	e02e      	b.n	8002576 <HAL_TIM_PWM_ConfigChannel+0xaa>
 8002518:	6800      	ldr	r0, [r0, #0]
 800251a:	f7ff feab 	bl	8002274 <TIM_OC1_SetConfig>
 800251e:	6983      	ldr	r3, [r0, #24]
 8002520:	690a      	ldr	r2, [r1, #16]
 8002522:	f043 0308 	orr.w	r3, r3, #8
 8002526:	6183      	str	r3, [r0, #24]
 8002528:	6983      	ldr	r3, [r0, #24]
 800252a:	f023 0304 	bic.w	r3, r3, #4
 800252e:	6183      	str	r3, [r0, #24]
 8002530:	6983      	ldr	r3, [r0, #24]
 8002532:	4313      	orrs	r3, r2
 8002534:	6183      	str	r3, [r0, #24]
 8002536:	2000      	movs	r0, #0
 8002538:	e7d8      	b.n	80024ec <HAL_TIM_PWM_ConfigChannel+0x20>
 800253a:	6800      	ldr	r0, [r0, #0]
 800253c:	f7ff ff9a 	bl	8002474 <TIM_OC2_SetConfig>
 8002540:	6983      	ldr	r3, [r0, #24]
 8002542:	690a      	ldr	r2, [r1, #16]
 8002544:	f443 6300 	orr.w	r3, r3, #2048	; 0x800
 8002548:	6183      	str	r3, [r0, #24]
 800254a:	6983      	ldr	r3, [r0, #24]
 800254c:	f423 6380 	bic.w	r3, r3, #1024	; 0x400
 8002550:	6183      	str	r3, [r0, #24]
 8002552:	6983      	ldr	r3, [r0, #24]
 8002554:	ea43 2302 	orr.w	r3, r3, r2, lsl #8
 8002558:	e7ec      	b.n	8002534 <HAL_TIM_PWM_ConfigChannel+0x68>
 800255a:	6800      	ldr	r0, [r0, #0]
 800255c:	f7ff feb2 	bl	80022c4 <TIM_OC3_SetConfig>
 8002560:	69c3      	ldr	r3, [r0, #28]
 8002562:	690a      	ldr	r2, [r1, #16]
 8002564:	f043 0308 	orr.w	r3, r3, #8
 8002568:	61c3      	str	r3, [r0, #28]
 800256a:	69c3      	ldr	r3, [r0, #28]
 800256c:	f023 0304 	bic.w	r3, r3, #4
 8002570:	61c3      	str	r3, [r0, #28]
 8002572:	69c3      	ldr	r3, [r0, #28]
 8002574:	4313      	orrs	r3, r2
 8002576:	61c3      	str	r3, [r0, #28]
 8002578:	e7dd      	b.n	8002536 <HAL_TIM_PWM_ConfigChannel+0x6a>
 800257a:	2002      	movs	r0, #2
 800257c:	e7b9      	b.n	80024f2 <HAL_TIM_PWM_ConfigChannel+0x26>

0800257e <TIM_ETR_SetConfig>:
 800257e:	b510      	push	{r4, lr}
 8002580:	6884      	ldr	r4, [r0, #8]
 8002582:	430a      	orrs	r2, r1
 8002584:	f424 447f 	bic.w	r4, r4, #65280	; 0xff00
 8002588:	ea42 2203 	orr.w	r2, r2, r3, lsl #8
 800258c:	4322      	orrs	r2, r4
 800258e:	6082      	str	r2, [r0, #8]
 8002590:	bd10      	pop	{r4, pc}

08002592 <HAL_TIM_ConfigClockSource>:
 8002592:	b538      	push	{r3, r4, r5, lr}
 8002594:	f890 303c 	ldrb.w	r3, [r0, #60]	; 0x3c
 8002598:	4604      	mov	r4, r0
 800259a:	2b01      	cmp	r3, #1
 800259c:	f04f 0002 	mov.w	r0, #2
 80025a0:	f000 808e 	beq.w	80026c0 <HAL_TIM_ConfigClockSource+0x12e>
 80025a4:	2201      	movs	r2, #1
 80025a6:	f884 003d 	strb.w	r0, [r4, #61]	; 0x3d
 80025aa:	6820      	ldr	r0, [r4, #0]
 80025ac:	f884 203c 	strb.w	r2, [r4, #60]	; 0x3c
 80025b0:	6883      	ldr	r3, [r0, #8]
 80025b2:	f423 437f 	bic.w	r3, r3, #65280	; 0xff00
 80025b6:	f023 0377 	bic.w	r3, r3, #119	; 0x77
 80025ba:	6083      	str	r3, [r0, #8]
 80025bc:	680b      	ldr	r3, [r1, #0]
 80025be:	2b60      	cmp	r3, #96	; 0x60
 80025c0:	d04f      	beq.n	8002662 <HAL_TIM_ConfigClockSource+0xd0>
 80025c2:	d832      	bhi.n	800262a <HAL_TIM_ConfigClockSource+0x98>
 80025c4:	2b40      	cmp	r3, #64	; 0x40
 80025c6:	d064      	beq.n	8002692 <HAL_TIM_ConfigClockSource+0x100>
 80025c8:	d816      	bhi.n	80025f8 <HAL_TIM_ConfigClockSource+0x66>
 80025ca:	2b20      	cmp	r3, #32
 80025cc:	d00d      	beq.n	80025ea <HAL_TIM_ConfigClockSource+0x58>
 80025ce:	d80a      	bhi.n	80025e6 <HAL_TIM_ConfigClockSource+0x54>
 80025d0:	f033 0110 	bics.w	r1, r3, #16
 80025d4:	d009      	beq.n	80025ea <HAL_TIM_ConfigClockSource+0x58>
 80025d6:	2301      	movs	r3, #1
 80025d8:	f884 303d 	strb.w	r3, [r4, #61]	; 0x3d
 80025dc:	2300      	movs	r3, #0
 80025de:	f884 303c 	strb.w	r3, [r4, #60]	; 0x3c
 80025e2:	4610      	mov	r0, r2
 80025e4:	bd38      	pop	{r3, r4, r5, pc}
 80025e6:	2b30      	cmp	r3, #48	; 0x30
 80025e8:	d1f5      	bne.n	80025d6 <HAL_TIM_ConfigClockSource+0x44>
 80025ea:	6882      	ldr	r2, [r0, #8]
 80025ec:	f022 0270 	bic.w	r2, r2, #112	; 0x70
 80025f0:	4313      	orrs	r3, r2
 80025f2:	f043 0307 	orr.w	r3, r3, #7
 80025f6:	e028      	b.n	800264a <HAL_TIM_ConfigClockSource+0xb8>
 80025f8:	2b50      	cmp	r3, #80	; 0x50
 80025fa:	d1ec      	bne.n	80025d6 <HAL_TIM_ConfigClockSource+0x44>
 80025fc:	684a      	ldr	r2, [r1, #4]
 80025fe:	68cd      	ldr	r5, [r1, #12]
 8002600:	6a01      	ldr	r1, [r0, #32]
 8002602:	6a03      	ldr	r3, [r0, #32]
 8002604:	f021 010a 	bic.w	r1, r1, #10
 8002608:	f023 0301 	bic.w	r3, r3, #1
 800260c:	6203      	str	r3, [r0, #32]
 800260e:	6983      	ldr	r3, [r0, #24]
 8002610:	430a      	orrs	r2, r1
 8002612:	f023 03f0 	bic.w	r3, r3, #240	; 0xf0
 8002616:	ea43 1305 	orr.w	r3, r3, r5, lsl #4
 800261a:	6183      	str	r3, [r0, #24]
 800261c:	6202      	str	r2, [r0, #32]
 800261e:	6883      	ldr	r3, [r0, #8]
 8002620:	f023 0370 	bic.w	r3, r3, #112	; 0x70
 8002624:	f043 0357 	orr.w	r3, r3, #87	; 0x57
 8002628:	e00f      	b.n	800264a <HAL_TIM_ConfigClockSource+0xb8>
 800262a:	f5b3 5f80 	cmp.w	r3, #4096	; 0x1000
 800262e:	d00d      	beq.n	800264c <HAL_TIM_ConfigClockSource+0xba>
 8002630:	f5b3 5f00 	cmp.w	r3, #8192	; 0x2000
 8002634:	d00c      	beq.n	8002650 <HAL_TIM_ConfigClockSource+0xbe>
 8002636:	2b70      	cmp	r3, #112	; 0x70
 8002638:	d1cd      	bne.n	80025d6 <HAL_TIM_ConfigClockSource+0x44>
 800263a:	68cb      	ldr	r3, [r1, #12]
 800263c:	e9d1 2101 	ldrd	r2, r1, [r1, #4]
 8002640:	f7ff ff9d 	bl	800257e <TIM_ETR_SetConfig>
 8002644:	6883      	ldr	r3, [r0, #8]
 8002646:	f043 0377 	orr.w	r3, r3, #119	; 0x77
 800264a:	6083      	str	r3, [r0, #8]
 800264c:	2200      	movs	r2, #0
 800264e:	e7c2      	b.n	80025d6 <HAL_TIM_ConfigClockSource+0x44>
 8002650:	68cb      	ldr	r3, [r1, #12]
 8002652:	e9d1 2101 	ldrd	r2, r1, [r1, #4]
 8002656:	f7ff ff92 	bl	800257e <TIM_ETR_SetConfig>
 800265a:	6883      	ldr	r3, [r0, #8]
 800265c:	f443 4380 	orr.w	r3, r3, #16384	; 0x4000
 8002660:	e7f3      	b.n	800264a <HAL_TIM_ConfigClockSource+0xb8>
 8002662:	6a03      	ldr	r3, [r0, #32]
 8002664:	6a02      	ldr	r2, [r0, #32]
 8002666:	684d      	ldr	r5, [r1, #4]
 8002668:	f022 0210 	bic.w	r2, r2, #16
 800266c:	68c9      	ldr	r1, [r1, #12]
 800266e:	6202      	str	r2, [r0, #32]
 8002670:	6982      	ldr	r2, [r0, #24]
 8002672:	f023 03a0 	bic.w	r3, r3, #160	; 0xa0
 8002676:	f422 4270 	bic.w	r2, r2, #61440	; 0xf000
 800267a:	ea43 1305 	orr.w	r3, r3, r5, lsl #4
 800267e:	ea42 3201 	orr.w	r2, r2, r1, lsl #12
 8002682:	6182      	str	r2, [r0, #24]
 8002684:	6203      	str	r3, [r0, #32]
 8002686:	6883      	ldr	r3, [r0, #8]
 8002688:	f023 0370 	bic.w	r3, r3, #112	; 0x70
 800268c:	f043 0367 	orr.w	r3, r3, #103	; 0x67
 8002690:	e7db      	b.n	800264a <HAL_TIM_ConfigClockSource+0xb8>
 8002692:	684a      	ldr	r2, [r1, #4]
 8002694:	68cd      	ldr	r5, [r1, #12]
 8002696:	6a01      	ldr	r1, [r0, #32]
 8002698:	6a03      	ldr	r3, [r0, #32]
 800269a:	f021 010a 	bic.w	r1, r1, #10
 800269e:	f023 0301 	bic.w	r3, r3, #1
 80026a2:	6203      	str	r3, [r0, #32]
 80026a4:	6983      	ldr	r3, [r0, #24]
 80026a6:	430a      	orrs	r2, r1
 80026a8:	f023 03f0 	bic.w	r3, r3, #240	; 0xf0
 80026ac:	ea43 1305 	orr.w	r3, r3, r5, lsl #4
 80026b0:	6183      	str	r3, [r0, #24]
 80026b2:	6202      	str	r2, [r0, #32]
 80026b4:	6883      	ldr	r3, [r0, #8]
 80026b6:	f023 0370 	bic.w	r3, r3, #112	; 0x70
 80026ba:	f043 0347 	orr.w	r3, r3, #71	; 0x47
 80026be:	e7c4      	b.n	800264a <HAL_TIM_ConfigClockSource+0xb8>
 80026c0:	4602      	mov	r2, r0
 80026c2:	e78e      	b.n	80025e2 <HAL_TIM_ConfigClockSource+0x50>

080026c4 <TIM_CCxChannelCmd>:
 80026c4:	b510      	push	{r4, lr}
 80026c6:	2401      	movs	r4, #1
 80026c8:	6a03      	ldr	r3, [r0, #32]
 80026ca:	f001 011f 	and.w	r1, r1, #31
 80026ce:	408c      	lsls	r4, r1
 80026d0:	ea23 0304 	bic.w	r3, r3, r4
 80026d4:	6203      	str	r3, [r0, #32]
 80026d6:	6a03      	ldr	r3, [r0, #32]
 80026d8:	408a      	lsls	r2, r1
 80026da:	431a      	orrs	r2, r3
 80026dc:	6202      	str	r2, [r0, #32]
 80026de:	bd10      	pop	{r4, pc}

080026e0 <HAL_TIM_OC_Start>:
 80026e0:	b508      	push	{r3, lr}
 80026e2:	b929      	cbnz	r1, 80026f0 <HAL_TIM_OC_Start+0x10>
 80026e4:	f890 303e 	ldrb.w	r3, [r0, #62]	; 0x3e
 80026e8:	2b01      	cmp	r3, #1
 80026ea:	d021      	beq.n	8002730 <HAL_TIM_OC_Start+0x50>
 80026ec:	2001      	movs	r0, #1
 80026ee:	bd08      	pop	{r3, pc}
 80026f0:	2904      	cmp	r1, #4
 80026f2:	d107      	bne.n	8002704 <HAL_TIM_OC_Start+0x24>
 80026f4:	f890 303f 	ldrb.w	r3, [r0, #63]	; 0x3f
 80026f8:	2b01      	cmp	r3, #1
 80026fa:	d1f7      	bne.n	80026ec <HAL_TIM_OC_Start+0xc>
 80026fc:	2302      	movs	r3, #2
 80026fe:	f880 303f 	strb.w	r3, [r0, #63]	; 0x3f
 8002702:	e018      	b.n	8002736 <HAL_TIM_OC_Start+0x56>
 8002704:	2908      	cmp	r1, #8
 8002706:	d107      	bne.n	8002718 <HAL_TIM_OC_Start+0x38>
 8002708:	f890 3040 	ldrb.w	r3, [r0, #64]	; 0x40
 800270c:	2b01      	cmp	r3, #1
 800270e:	d1ed      	bne.n	80026ec <HAL_TIM_OC_Start+0xc>
 8002710:	2302      	movs	r3, #2
 8002712:	f880 3040 	strb.w	r3, [r0, #64]	; 0x40
 8002716:	e00e      	b.n	8002736 <HAL_TIM_OC_Start+0x56>
 8002718:	f890 3041 	ldrb.w	r3, [r0, #65]	; 0x41
 800271c:	2b01      	cmp	r3, #1
 800271e:	d1e5      	bne.n	80026ec <HAL_TIM_OC_Start+0xc>
 8002720:	2904      	cmp	r1, #4
 8002722:	d0eb      	beq.n	80026fc <HAL_TIM_OC_Start+0x1c>
 8002724:	2908      	cmp	r1, #8
 8002726:	d0f3      	beq.n	8002710 <HAL_TIM_OC_Start+0x30>
 8002728:	2302      	movs	r3, #2
 800272a:	f880 3041 	strb.w	r3, [r0, #65]	; 0x41
 800272e:	e002      	b.n	8002736 <HAL_TIM_OC_Start+0x56>
 8002730:	2302      	movs	r3, #2
 8002732:	f880 303e 	strb.w	r3, [r0, #62]	; 0x3e
 8002736:	6800      	ldr	r0, [r0, #0]
 8002738:	2201      	movs	r2, #1
 800273a:	f7ff ffc3 	bl	80026c4 <TIM_CCxChannelCmd>
 800273e:	4b0c      	ldr	r3, [pc, #48]	; (8002770 <HAL_TIM_OC_Start+0x90>)
 8002740:	4298      	cmp	r0, r3
 8002742:	d10a      	bne.n	800275a <HAL_TIM_OC_Start+0x7a>
 8002744:	6c43      	ldr	r3, [r0, #68]	; 0x44
 8002746:	f443 4300 	orr.w	r3, r3, #32768	; 0x8000
 800274a:	6443      	str	r3, [r0, #68]	; 0x44
 800274c:	6883      	ldr	r3, [r0, #8]
 800274e:	f003 0307 	and.w	r3, r3, #7
 8002752:	2b06      	cmp	r3, #6
 8002754:	d107      	bne.n	8002766 <HAL_TIM_OC_Start+0x86>
 8002756:	2000      	movs	r0, #0
 8002758:	e7c9      	b.n	80026ee <HAL_TIM_OC_Start+0xe>
 800275a:	f1b0 4f80 	cmp.w	r0, #1073741824	; 0x40000000
 800275e:	d0f5      	beq.n	800274c <HAL_TIM_OC_Start+0x6c>
 8002760:	4b04      	ldr	r3, [pc, #16]	; (8002774 <HAL_TIM_OC_Start+0x94>)
 8002762:	4298      	cmp	r0, r3
 8002764:	d0f2      	beq.n	800274c <HAL_TIM_OC_Start+0x6c>
 8002766:	6803      	ldr	r3, [r0, #0]
 8002768:	f043 0301 	orr.w	r3, r3, #1
 800276c:	6003      	str	r3, [r0, #0]
 800276e:	e7f2      	b.n	8002756 <HAL_TIM_OC_Start+0x76>
 8002770:	40012c00 	.word	0x40012c00
 8002774:	40000400 	.word	0x40000400

08002778 <HAL_TIM_PWM_Start>:
 8002778:	f7ff bfb2 	b.w	80026e0 <HAL_TIM_OC_Start>

0800277c <HAL_TIMEx_MasterConfigSynchronization>:
 800277c:	b530      	push	{r4, r5, lr}
 800277e:	f890 203c 	ldrb.w	r2, [r0, #60]	; 0x3c
 8002782:	4603      	mov	r3, r0
 8002784:	2a01      	cmp	r2, #1
 8002786:	f04f 0002 	mov.w	r0, #2
 800278a:	d01e      	beq.n	80027ca <HAL_TIMEx_MasterConfigSynchronization+0x4e>
 800278c:	681a      	ldr	r2, [r3, #0]
 800278e:	f883 003d 	strb.w	r0, [r3, #61]	; 0x3d
 8002792:	6854      	ldr	r4, [r2, #4]
 8002794:	680d      	ldr	r5, [r1, #0]
 8002796:	f024 0470 	bic.w	r4, r4, #112	; 0x70
 800279a:	432c      	orrs	r4, r5
 800279c:	6890      	ldr	r0, [r2, #8]
 800279e:	6054      	str	r4, [r2, #4]
 80027a0:	4c0a      	ldr	r4, [pc, #40]	; (80027cc <HAL_TIMEx_MasterConfigSynchronization+0x50>)
 80027a2:	42a2      	cmp	r2, r4
 80027a4:	d006      	beq.n	80027b4 <HAL_TIMEx_MasterConfigSynchronization+0x38>
 80027a6:	f1b2 4f80 	cmp.w	r2, #1073741824	; 0x40000000
 80027aa:	d003      	beq.n	80027b4 <HAL_TIMEx_MasterConfigSynchronization+0x38>
 80027ac:	f5a4 3494 	sub.w	r4, r4, #75776	; 0x12800
 80027b0:	42a2      	cmp	r2, r4
 80027b2:	d104      	bne.n	80027be <HAL_TIMEx_MasterConfigSynchronization+0x42>
 80027b4:	6849      	ldr	r1, [r1, #4]
 80027b6:	f020 0080 	bic.w	r0, r0, #128	; 0x80
 80027ba:	4301      	orrs	r1, r0
 80027bc:	6091      	str	r1, [r2, #8]
 80027be:	2201      	movs	r2, #1
 80027c0:	2000      	movs	r0, #0
 80027c2:	f883 203d 	strb.w	r2, [r3, #61]	; 0x3d
 80027c6:	f883 003c 	strb.w	r0, [r3, #60]	; 0x3c
 80027ca:	bd30      	pop	{r4, r5, pc}
 80027cc:	40012c00 	.word	0x40012c00

080027d0 <UART_EndRxTransfer>:
 80027d0:	6802      	ldr	r2, [r0, #0]
 80027d2:	f102 030c 	add.w	r3, r2, #12
 80027d6:	e853 3f00 	ldrex	r3, [r3]
 80027da:	f423 7390 	bic.w	r3, r3, #288	; 0x120
 80027de:	320c      	adds	r2, #12
 80027e0:	e842 3100 	strex	r1, r3, [r2]
 80027e4:	6802      	ldr	r2, [r0, #0]
 80027e6:	2900      	cmp	r1, #0
 80027e8:	d1f2      	bne.n	80027d0 <UART_EndRxTransfer>
 80027ea:	f102 0314 	add.w	r3, r2, #20
 80027ee:	e853 3f00 	ldrex	r3, [r3]
 80027f2:	f023 0301 	bic.w	r3, r3, #1
 80027f6:	f102 0c14 	add.w	ip, r2, #20
 80027fa:	e84c 3100 	strex	r1, r3, [ip]
 80027fe:	2900      	cmp	r1, #0
 8002800:	d1f3      	bne.n	80027ea <UART_EndRxTransfer+0x1a>
 8002802:	6b03      	ldr	r3, [r0, #48]	; 0x30
 8002804:	2b01      	cmp	r3, #1
 8002806:	d10b      	bne.n	8002820 <UART_EndRxTransfer+0x50>
 8002808:	f102 030c 	add.w	r3, r2, #12
 800280c:	e853 3f00 	ldrex	r3, [r3]
 8002810:	f023 0310 	bic.w	r3, r3, #16
 8002814:	f102 0c0c 	add.w	ip, r2, #12
 8002818:	e84c 3100 	strex	r1, r3, [ip]
 800281c:	2900      	cmp	r1, #0
 800281e:	d1f3      	bne.n	8002808 <UART_EndRxTransfer+0x38>
 8002820:	2320      	movs	r3, #32
 8002822:	f880 3042 	strb.w	r3, [r0, #66]	; 0x42
 8002826:	2300      	movs	r3, #0
 8002828:	6303      	str	r3, [r0, #48]	; 0x30
 800282a:	4770      	bx	lr

0800282c <UART_SetConfig>:
 800282c:	b510      	push	{r4, lr}
 800282e:	4604      	mov	r4, r0
 8002830:	6803      	ldr	r3, [r0, #0]
 8002832:	68c1      	ldr	r1, [r0, #12]
 8002834:	691a      	ldr	r2, [r3, #16]
 8002836:	f422 5240 	bic.w	r2, r2, #12288	; 0x3000
 800283a:	430a      	orrs	r2, r1
 800283c:	611a      	str	r2, [r3, #16]
 800283e:	6882      	ldr	r2, [r0, #8]
 8002840:	6900      	ldr	r0, [r0, #16]
 8002842:	68d9      	ldr	r1, [r3, #12]
 8002844:	4302      	orrs	r2, r0
 8002846:	6960      	ldr	r0, [r4, #20]
 8002848:	f421 51b0 	bic.w	r1, r1, #5632	; 0x1600
 800284c:	f021 010c 	bic.w	r1, r1, #12
 8002850:	4302      	orrs	r2, r0
 8002852:	430a      	orrs	r2, r1
 8002854:	60da      	str	r2, [r3, #12]
 8002856:	695a      	ldr	r2, [r3, #20]
 8002858:	69a1      	ldr	r1, [r4, #24]
 800285a:	f422 7240 	bic.w	r2, r2, #768	; 0x300
 800285e:	430a      	orrs	r2, r1
 8002860:	615a      	str	r2, [r3, #20]
 8002862:	4a0e      	ldr	r2, [pc, #56]	; (800289c <UART_SetConfig+0x70>)
 8002864:	4293      	cmp	r3, r2
 8002866:	d115      	bne.n	8002894 <UART_SetConfig+0x68>
 8002868:	f7ff fc1c 	bl	80020a4 <HAL_RCC_GetPCLK2Freq>
 800286c:	2319      	movs	r3, #25
 800286e:	4343      	muls	r3, r0
 8002870:	6862      	ldr	r2, [r4, #4]
 8002872:	6820      	ldr	r0, [r4, #0]
 8002874:	0092      	lsls	r2, r2, #2
 8002876:	fbb3 f3f2 	udiv	r3, r3, r2
 800287a:	2264      	movs	r2, #100	; 0x64
 800287c:	fbb3 f1f2 	udiv	r1, r3, r2
 8002880:	fb02 3311 	mls	r3, r2, r1, r3
 8002884:	011b      	lsls	r3, r3, #4
 8002886:	3332      	adds	r3, #50	; 0x32
 8002888:	fbb3 f3f2 	udiv	r3, r3, r2
 800288c:	eb03 1301 	add.w	r3, r3, r1, lsl #4
 8002890:	6083      	str	r3, [r0, #8]
 8002892:	bd10      	pop	{r4, pc}
 8002894:	f7ff fbf6 	bl	8002084 <HAL_RCC_GetPCLK1Freq>
 8002898:	e7e8      	b.n	800286c <UART_SetConfig+0x40>
 800289a:	bf00      	nop
 800289c:	40013800 	.word	0x40013800

080028a0 <UART_WaitOnFlagUntilTimeout.constprop.0>:
 80028a0:	b5f8      	push	{r3, r4, r5, r6, r7, lr}
 80028a2:	4604      	mov	r4, r0
 80028a4:	460e      	mov	r6, r1
 80028a6:	4617      	mov	r7, r2
 80028a8:	461d      	mov	r5, r3
 80028aa:	6822      	ldr	r2, [r4, #0]
 80028ac:	6813      	ldr	r3, [r2, #0]
 80028ae:	ea36 0303 	bics.w	r3, r6, r3
 80028b2:	d101      	bne.n	80028b8 <UART_WaitOnFlagUntilTimeout.constprop.0+0x18>
 80028b4:	2000      	movs	r0, #0
 80028b6:	e028      	b.n	800290a <UART_WaitOnFlagUntilTimeout.constprop.0+0x6a>
 80028b8:	1c6b      	adds	r3, r5, #1
 80028ba:	d0f7      	beq.n	80028ac <UART_WaitOnFlagUntilTimeout.constprop.0+0xc>
 80028bc:	b125      	cbz	r5, 80028c8 <UART_WaitOnFlagUntilTimeout.constprop.0+0x28>
 80028be:	f7fe fd39 	bl	8001334 <HAL_GetTick>
 80028c2:	1bc0      	subs	r0, r0, r7
 80028c4:	4285      	cmp	r5, r0
 80028c6:	d2f0      	bcs.n	80028aa <UART_WaitOnFlagUntilTimeout.constprop.0+0xa>
 80028c8:	6822      	ldr	r2, [r4, #0]
 80028ca:	f102 030c 	add.w	r3, r2, #12
 80028ce:	e853 3f00 	ldrex	r3, [r3]
 80028d2:	f423 73d0 	bic.w	r3, r3, #416	; 0x1a0
 80028d6:	320c      	adds	r2, #12
 80028d8:	e842 3000 	strex	r0, r3, [r2]
 80028dc:	6821      	ldr	r1, [r4, #0]
 80028de:	2800      	cmp	r0, #0
 80028e0:	d1f2      	bne.n	80028c8 <UART_WaitOnFlagUntilTimeout.constprop.0+0x28>
 80028e2:	f101 0314 	add.w	r3, r1, #20
 80028e6:	e853 3f00 	ldrex	r3, [r3]
 80028ea:	f023 0301 	bic.w	r3, r3, #1
 80028ee:	f101 0014 	add.w	r0, r1, #20
 80028f2:	e840 3200 	strex	r2, r3, [r0]
 80028f6:	2a00      	cmp	r2, #0
 80028f8:	d1f3      	bne.n	80028e2 <UART_WaitOnFlagUntilTimeout.constprop.0+0x42>
 80028fa:	2320      	movs	r3, #32
 80028fc:	2003      	movs	r0, #3
 80028fe:	f884 3041 	strb.w	r3, [r4, #65]	; 0x41
 8002902:	f884 2040 	strb.w	r2, [r4, #64]	; 0x40
 8002906:	f884 3042 	strb.w	r3, [r4, #66]	; 0x42
 800290a:	bdf8      	pop	{r3, r4, r5, r6, r7, pc}

0800290c <HAL_UART_Init>:
 800290c:	b510      	push	{r4, lr}
 800290e:	4604      	mov	r4, r0
 8002910:	b348      	cbz	r0, 8002966 <HAL_UART_Init+0x5a>
 8002912:	f890 3041 	ldrb.w	r3, [r0, #65]	; 0x41
 8002916:	f003 02ff 	and.w	r2, r3, #255	; 0xff
 800291a:	b91b      	cbnz	r3, 8002924 <HAL_UART_Init+0x18>
 800291c:	f880 2040 	strb.w	r2, [r0, #64]	; 0x40
 8002920:	f7fe fbee 	bl	8001100 <HAL_UART_MspInit>
 8002924:	2324      	movs	r3, #36	; 0x24
 8002926:	6822      	ldr	r2, [r4, #0]
 8002928:	f884 3041 	strb.w	r3, [r4, #65]	; 0x41
 800292c:	68d3      	ldr	r3, [r2, #12]
 800292e:	4620      	mov	r0, r4
 8002930:	f423 5300 	bic.w	r3, r3, #8192	; 0x2000
 8002934:	60d3      	str	r3, [r2, #12]
 8002936:	f7ff ff79 	bl	800282c <UART_SetConfig>
 800293a:	6823      	ldr	r3, [r4, #0]
 800293c:	2000      	movs	r0, #0
 800293e:	691a      	ldr	r2, [r3, #16]
 8002940:	f422 4290 	bic.w	r2, r2, #18432	; 0x4800
 8002944:	611a      	str	r2, [r3, #16]
 8002946:	695a      	ldr	r2, [r3, #20]
 8002948:	f022 022a 	bic.w	r2, r2, #42	; 0x2a
 800294c:	615a      	str	r2, [r3, #20]
 800294e:	68da      	ldr	r2, [r3, #12]
 8002950:	f442 5200 	orr.w	r2, r2, #8192	; 0x2000
 8002954:	60da      	str	r2, [r3, #12]
 8002956:	2320      	movs	r3, #32
 8002958:	6460      	str	r0, [r4, #68]	; 0x44
 800295a:	f884 3041 	strb.w	r3, [r4, #65]	; 0x41
 800295e:	f884 3042 	strb.w	r3, [r4, #66]	; 0x42
 8002962:	6360      	str	r0, [r4, #52]	; 0x34
 8002964:	bd10      	pop	{r4, pc}
 8002966:	2001      	movs	r0, #1
 8002968:	e7fc      	b.n	8002964 <HAL_UART_Init+0x58>

0800296a <HAL_UART_Transmit>:
 800296a:	e92d 43f8 	stmdb	sp!, {r3, r4, r5, r6, r7, r8, r9, lr}
 800296e:	4699      	mov	r9, r3
 8002970:	f890 3041 	ldrb.w	r3, [r0, #65]	; 0x41
 8002974:	4604      	mov	r4, r0
 8002976:	2b20      	cmp	r3, #32
 8002978:	460e      	mov	r6, r1
 800297a:	4617      	mov	r7, r2
 800297c:	d13c      	bne.n	80029f8 <HAL_UART_Transmit+0x8e>
 800297e:	2900      	cmp	r1, #0
 8002980:	d03c      	beq.n	80029fc <HAL_UART_Transmit+0x92>
 8002982:	2a00      	cmp	r2, #0
 8002984:	d03a      	beq.n	80029fc <HAL_UART_Transmit+0x92>
 8002986:	2321      	movs	r3, #33	; 0x21
 8002988:	2500      	movs	r5, #0
 800298a:	6445      	str	r5, [r0, #68]	; 0x44
 800298c:	f880 3041 	strb.w	r3, [r0, #65]	; 0x41
 8002990:	f7fe fcd0 	bl	8001334 <HAL_GetTick>
 8002994:	68a3      	ldr	r3, [r4, #8]
 8002996:	4680      	mov	r8, r0
 8002998:	f5b3 5f80 	cmp.w	r3, #4096	; 0x1000
 800299c:	84a7      	strh	r7, [r4, #36]	; 0x24
 800299e:	84e7      	strh	r7, [r4, #38]	; 0x26
 80029a0:	d103      	bne.n	80029aa <HAL_UART_Transmit+0x40>
 80029a2:	6923      	ldr	r3, [r4, #16]
 80029a4:	b90b      	cbnz	r3, 80029aa <HAL_UART_Transmit+0x40>
 80029a6:	4635      	mov	r5, r6
 80029a8:	461e      	mov	r6, r3
 80029aa:	8ce3      	ldrh	r3, [r4, #38]	; 0x26
 80029ac:	b29b      	uxth	r3, r3
 80029ae:	b953      	cbnz	r3, 80029c6 <HAL_UART_Transmit+0x5c>
 80029b0:	464b      	mov	r3, r9
 80029b2:	4642      	mov	r2, r8
 80029b4:	2140      	movs	r1, #64	; 0x40
 80029b6:	4620      	mov	r0, r4
 80029b8:	f7ff ff72 	bl	80028a0 <UART_WaitOnFlagUntilTimeout.constprop.0>
 80029bc:	b950      	cbnz	r0, 80029d4 <HAL_UART_Transmit+0x6a>
 80029be:	2320      	movs	r3, #32
 80029c0:	f884 3041 	strb.w	r3, [r4, #65]	; 0x41
 80029c4:	e007      	b.n	80029d6 <HAL_UART_Transmit+0x6c>
 80029c6:	464b      	mov	r3, r9
 80029c8:	4642      	mov	r2, r8
 80029ca:	2180      	movs	r1, #128	; 0x80
 80029cc:	4620      	mov	r0, r4
 80029ce:	f7ff ff67 	bl	80028a0 <UART_WaitOnFlagUntilTimeout.constprop.0>
 80029d2:	b110      	cbz	r0, 80029da <HAL_UART_Transmit+0x70>
 80029d4:	2003      	movs	r0, #3
 80029d6:	e8bd 83f8 	ldmia.w	sp!, {r3, r4, r5, r6, r7, r8, r9, pc}
 80029da:	6822      	ldr	r2, [r4, #0]
 80029dc:	b94e      	cbnz	r6, 80029f2 <HAL_UART_Transmit+0x88>
 80029de:	f835 3b02 	ldrh.w	r3, [r5], #2
 80029e2:	f3c3 0308 	ubfx	r3, r3, #0, #9
 80029e6:	6053      	str	r3, [r2, #4]
 80029e8:	8ce1      	ldrh	r1, [r4, #38]	; 0x26
 80029ea:	3901      	subs	r1, #1
 80029ec:	b289      	uxth	r1, r1
 80029ee:	84e1      	strh	r1, [r4, #38]	; 0x26
 80029f0:	e7db      	b.n	80029aa <HAL_UART_Transmit+0x40>
 80029f2:	f816 3b01 	ldrb.w	r3, [r6], #1
 80029f6:	e7f6      	b.n	80029e6 <HAL_UART_Transmit+0x7c>
 80029f8:	2002      	movs	r0, #2
 80029fa:	e7ec      	b.n	80029d6 <HAL_UART_Transmit+0x6c>
 80029fc:	2001      	movs	r0, #1
 80029fe:	e7ea      	b.n	80029d6 <HAL_UART_Transmit+0x6c>

08002a00 <HAL_UART_TxCpltCallback>:
 8002a00:	4770      	bx	lr

08002a02 <HAL_UART_ErrorCallback>:
 8002a02:	4770      	bx	lr

08002a04 <UART_DMAAbortOnError>:
 8002a04:	b508      	push	{r3, lr}
 8002a06:	2300      	movs	r3, #0
 8002a08:	6a40      	ldr	r0, [r0, #36]	; 0x24
 8002a0a:	85c3      	strh	r3, [r0, #46]	; 0x2e
 8002a0c:	84c3      	strh	r3, [r0, #38]	; 0x26
 8002a0e:	f7ff fff8 	bl	8002a02 <HAL_UART_ErrorCallback>
 8002a12:	bd08      	pop	{r3, pc}

08002a14 <HAL_UARTEx_RxEventCallback>:
 8002a14:	4770      	bx	lr

08002a16 <UART_Receive_IT.isra.0>:
 8002a16:	f890 3042 	ldrb.w	r3, [r0, #66]	; 0x42
 8002a1a:	b507      	push	{r0, r1, r2, lr}
 8002a1c:	2b22      	cmp	r3, #34	; 0x22
 8002a1e:	d142      	bne.n	8002aa6 <UART_Receive_IT.isra.0+0x90>
 8002a20:	6881      	ldr	r1, [r0, #8]
 8002a22:	6a83      	ldr	r3, [r0, #40]	; 0x28
 8002a24:	f5b1 5f80 	cmp.w	r1, #4096	; 0x1000
 8002a28:	6802      	ldr	r2, [r0, #0]
 8002a2a:	d13f      	bne.n	8002aac <UART_Receive_IT.isra.0+0x96>
 8002a2c:	6901      	ldr	r1, [r0, #16]
 8002a2e:	2900      	cmp	r1, #0
 8002a30:	d13f      	bne.n	8002ab2 <UART_Receive_IT.isra.0+0x9c>
 8002a32:	6852      	ldr	r2, [r2, #4]
 8002a34:	f3c2 0208 	ubfx	r2, r2, #0, #9
 8002a38:	f823 2b02 	strh.w	r2, [r3], #2
 8002a3c:	6283      	str	r3, [r0, #40]	; 0x28
 8002a3e:	8dc3      	ldrh	r3, [r0, #46]	; 0x2e
 8002a40:	3b01      	subs	r3, #1
 8002a42:	b29b      	uxth	r3, r3
 8002a44:	85c3      	strh	r3, [r0, #46]	; 0x2e
 8002a46:	2b00      	cmp	r3, #0
 8002a48:	d12d      	bne.n	8002aa6 <UART_Receive_IT.isra.0+0x90>
 8002a4a:	6802      	ldr	r2, [r0, #0]
 8002a4c:	68d1      	ldr	r1, [r2, #12]
 8002a4e:	f021 0120 	bic.w	r1, r1, #32
 8002a52:	60d1      	str	r1, [r2, #12]
 8002a54:	68d1      	ldr	r1, [r2, #12]
 8002a56:	f421 7180 	bic.w	r1, r1, #256	; 0x100
 8002a5a:	60d1      	str	r1, [r2, #12]
 8002a5c:	6951      	ldr	r1, [r2, #20]
 8002a5e:	f021 0101 	bic.w	r1, r1, #1
 8002a62:	6151      	str	r1, [r2, #20]
 8002a64:	2220      	movs	r2, #32
 8002a66:	f880 2042 	strb.w	r2, [r0, #66]	; 0x42
 8002a6a:	6343      	str	r3, [r0, #52]	; 0x34
 8002a6c:	6b02      	ldr	r2, [r0, #48]	; 0x30
 8002a6e:	2a01      	cmp	r2, #1
 8002a70:	6802      	ldr	r2, [r0, #0]
 8002a72:	d128      	bne.n	8002ac6 <UART_Receive_IT.isra.0+0xb0>
 8002a74:	6303      	str	r3, [r0, #48]	; 0x30
 8002a76:	f102 030c 	add.w	r3, r2, #12
 8002a7a:	e853 3f00 	ldrex	r3, [r3]
 8002a7e:	f023 0310 	bic.w	r3, r3, #16
 8002a82:	f102 0c0c 	add.w	ip, r2, #12
 8002a86:	e84c 3100 	strex	r1, r3, [ip]
 8002a8a:	2900      	cmp	r1, #0
 8002a8c:	d1f3      	bne.n	8002a76 <UART_Receive_IT.isra.0+0x60>
 8002a8e:	6813      	ldr	r3, [r2, #0]
 8002a90:	06db      	lsls	r3, r3, #27
 8002a92:	d505      	bpl.n	8002aa0 <UART_Receive_IT.isra.0+0x8a>
 8002a94:	9101      	str	r1, [sp, #4]
 8002a96:	6813      	ldr	r3, [r2, #0]
 8002a98:	9301      	str	r3, [sp, #4]
 8002a9a:	6853      	ldr	r3, [r2, #4]
 8002a9c:	9301      	str	r3, [sp, #4]
 8002a9e:	9b01      	ldr	r3, [sp, #4]
 8002aa0:	8d81      	ldrh	r1, [r0, #44]	; 0x2c
 8002aa2:	f7ff ffb7 	bl	8002a14 <HAL_UARTEx_RxEventCallback>
 8002aa6:	b003      	add	sp, #12
 8002aa8:	f85d fb04 	ldr.w	pc, [sp], #4
 8002aac:	b939      	cbnz	r1, 8002abe <UART_Receive_IT.isra.0+0xa8>
 8002aae:	6901      	ldr	r1, [r0, #16]
 8002ab0:	b929      	cbnz	r1, 8002abe <UART_Receive_IT.isra.0+0xa8>
 8002ab2:	6852      	ldr	r2, [r2, #4]
 8002ab4:	b2d2      	uxtb	r2, r2
 8002ab6:	701a      	strb	r2, [r3, #0]
 8002ab8:	6a83      	ldr	r3, [r0, #40]	; 0x28
 8002aba:	3301      	adds	r3, #1
 8002abc:	e7be      	b.n	8002a3c <UART_Receive_IT.isra.0+0x26>
 8002abe:	6852      	ldr	r2, [r2, #4]
 8002ac0:	f002 027f 	and.w	r2, r2, #127	; 0x7f
 8002ac4:	e7f7      	b.n	8002ab6 <UART_Receive_IT.isra.0+0xa0>
 8002ac6:	f7fe fa0f 	bl	8000ee8 <HAL_UART_RxCpltCallback>
 8002aca:	e7ec      	b.n	8002aa6 <UART_Receive_IT.isra.0+0x90>

08002acc <HAL_UART_IRQHandler>:
 8002acc:	6803      	ldr	r3, [r0, #0]
 8002ace:	b573      	push	{r0, r1, r4, r5, r6, lr}
 8002ad0:	681a      	ldr	r2, [r3, #0]
 8002ad2:	4604      	mov	r4, r0
 8002ad4:	0716      	lsls	r6, r2, #28
 8002ad6:	68d9      	ldr	r1, [r3, #12]
 8002ad8:	695d      	ldr	r5, [r3, #20]
 8002ada:	d108      	bne.n	8002aee <HAL_UART_IRQHandler+0x22>
 8002adc:	0696      	lsls	r6, r2, #26
 8002ade:	d568      	bpl.n	8002bb2 <HAL_UART_IRQHandler+0xe6>
 8002ae0:	068d      	lsls	r5, r1, #26
 8002ae2:	d566      	bpl.n	8002bb2 <HAL_UART_IRQHandler+0xe6>
 8002ae4:	b002      	add	sp, #8
 8002ae6:	e8bd 4070 	ldmia.w	sp!, {r4, r5, r6, lr}
 8002aea:	f7ff bf94 	b.w	8002a16 <UART_Receive_IT.isra.0>
 8002aee:	f005 0001 	and.w	r0, r5, #1
 8002af2:	f401 7590 	and.w	r5, r1, #288	; 0x120
 8002af6:	4305      	orrs	r5, r0
 8002af8:	d05b      	beq.n	8002bb2 <HAL_UART_IRQHandler+0xe6>
 8002afa:	07d6      	lsls	r6, r2, #31
 8002afc:	d505      	bpl.n	8002b0a <HAL_UART_IRQHandler+0x3e>
 8002afe:	05cd      	lsls	r5, r1, #23
 8002b00:	bf42      	ittt	mi
 8002b02:	6c63      	ldrmi	r3, [r4, #68]	; 0x44
 8002b04:	f043 0301 	orrmi.w	r3, r3, #1
 8002b08:	6463      	strmi	r3, [r4, #68]	; 0x44
 8002b0a:	0753      	lsls	r3, r2, #29
 8002b0c:	d504      	bpl.n	8002b18 <HAL_UART_IRQHandler+0x4c>
 8002b0e:	b118      	cbz	r0, 8002b18 <HAL_UART_IRQHandler+0x4c>
 8002b10:	6c63      	ldr	r3, [r4, #68]	; 0x44
 8002b12:	f043 0302 	orr.w	r3, r3, #2
 8002b16:	6463      	str	r3, [r4, #68]	; 0x44
 8002b18:	0796      	lsls	r6, r2, #30
 8002b1a:	d504      	bpl.n	8002b26 <HAL_UART_IRQHandler+0x5a>
 8002b1c:	b118      	cbz	r0, 8002b26 <HAL_UART_IRQHandler+0x5a>
 8002b1e:	6c63      	ldr	r3, [r4, #68]	; 0x44
 8002b20:	f043 0304 	orr.w	r3, r3, #4
 8002b24:	6463      	str	r3, [r4, #68]	; 0x44
 8002b26:	0715      	lsls	r5, r2, #28
 8002b28:	d507      	bpl.n	8002b3a <HAL_UART_IRQHandler+0x6e>
 8002b2a:	f001 0320 	and.w	r3, r1, #32
 8002b2e:	4303      	orrs	r3, r0
 8002b30:	bf1e      	ittt	ne
 8002b32:	6c63      	ldrne	r3, [r4, #68]	; 0x44
 8002b34:	f043 0308 	orrne.w	r3, r3, #8
 8002b38:	6463      	strne	r3, [r4, #68]	; 0x44
 8002b3a:	6c63      	ldr	r3, [r4, #68]	; 0x44
 8002b3c:	2b00      	cmp	r3, #0
 8002b3e:	d032      	beq.n	8002ba6 <HAL_UART_IRQHandler+0xda>
 8002b40:	0692      	lsls	r2, r2, #26
 8002b42:	d504      	bpl.n	8002b4e <HAL_UART_IRQHandler+0x82>
 8002b44:	068b      	lsls	r3, r1, #26
 8002b46:	d502      	bpl.n	8002b4e <HAL_UART_IRQHandler+0x82>
 8002b48:	4620      	mov	r0, r4
 8002b4a:	f7ff ff64 	bl	8002a16 <UART_Receive_IT.isra.0>
 8002b4e:	6826      	ldr	r6, [r4, #0]
 8002b50:	4620      	mov	r0, r4
 8002b52:	6973      	ldr	r3, [r6, #20]
 8002b54:	6c62      	ldr	r2, [r4, #68]	; 0x44
 8002b56:	f003 0340 	and.w	r3, r3, #64	; 0x40
 8002b5a:	f002 0208 	and.w	r2, r2, #8
 8002b5e:	ea53 0502 	orrs.w	r5, r3, r2
 8002b62:	d022      	beq.n	8002baa <HAL_UART_IRQHandler+0xde>
 8002b64:	f7ff fe34 	bl	80027d0 <UART_EndRxTransfer>
 8002b68:	6973      	ldr	r3, [r6, #20]
 8002b6a:	065e      	lsls	r6, r3, #25
 8002b6c:	d518      	bpl.n	8002ba0 <HAL_UART_IRQHandler+0xd4>
 8002b6e:	6822      	ldr	r2, [r4, #0]
 8002b70:	f102 0314 	add.w	r3, r2, #20
 8002b74:	e853 3f00 	ldrex	r3, [r3]
 8002b78:	f023 0340 	bic.w	r3, r3, #64	; 0x40
 8002b7c:	3214      	adds	r2, #20
 8002b7e:	e842 3100 	strex	r1, r3, [r2]
 8002b82:	2900      	cmp	r1, #0
 8002b84:	d1f3      	bne.n	8002b6e <HAL_UART_IRQHandler+0xa2>
 8002b86:	6be0      	ldr	r0, [r4, #60]	; 0x3c
 8002b88:	b150      	cbz	r0, 8002ba0 <HAL_UART_IRQHandler+0xd4>
 8002b8a:	4b74      	ldr	r3, [pc, #464]	; (8002d5c <HAL_UART_IRQHandler+0x290>)
 8002b8c:	6343      	str	r3, [r0, #52]	; 0x34
 8002b8e:	f7fe fedd 	bl	800194c <HAL_DMA_Abort_IT>
 8002b92:	b140      	cbz	r0, 8002ba6 <HAL_UART_IRQHandler+0xda>
 8002b94:	6be0      	ldr	r0, [r4, #60]	; 0x3c
 8002b96:	6b43      	ldr	r3, [r0, #52]	; 0x34
 8002b98:	b002      	add	sp, #8
 8002b9a:	e8bd 4070 	ldmia.w	sp!, {r4, r5, r6, lr}
 8002b9e:	4718      	bx	r3
 8002ba0:	4620      	mov	r0, r4
 8002ba2:	f7ff ff2e 	bl	8002a02 <HAL_UART_ErrorCallback>
 8002ba6:	b002      	add	sp, #8
 8002ba8:	bd70      	pop	{r4, r5, r6, pc}
 8002baa:	f7ff ff2a 	bl	8002a02 <HAL_UART_ErrorCallback>
 8002bae:	6465      	str	r5, [r4, #68]	; 0x44
 8002bb0:	e7f9      	b.n	8002ba6 <HAL_UART_IRQHandler+0xda>
 8002bb2:	6b20      	ldr	r0, [r4, #48]	; 0x30
 8002bb4:	2801      	cmp	r0, #1
 8002bb6:	f040 8094 	bne.w	8002ce2 <HAL_UART_IRQHandler+0x216>
 8002bba:	06d5      	lsls	r5, r2, #27
 8002bbc:	f140 8091 	bpl.w	8002ce2 <HAL_UART_IRQHandler+0x216>
 8002bc0:	06c8      	lsls	r0, r1, #27
 8002bc2:	f140 808e 	bpl.w	8002ce2 <HAL_UART_IRQHandler+0x216>
 8002bc6:	2200      	movs	r2, #0
 8002bc8:	9201      	str	r2, [sp, #4]
 8002bca:	681a      	ldr	r2, [r3, #0]
 8002bcc:	9201      	str	r2, [sp, #4]
 8002bce:	685a      	ldr	r2, [r3, #4]
 8002bd0:	9201      	str	r2, [sp, #4]
 8002bd2:	9a01      	ldr	r2, [sp, #4]
 8002bd4:	695a      	ldr	r2, [r3, #20]
 8002bd6:	0652      	lsls	r2, r2, #25
 8002bd8:	d54d      	bpl.n	8002c76 <HAL_UART_IRQHandler+0x1aa>
 8002bda:	6be1      	ldr	r1, [r4, #60]	; 0x3c
 8002bdc:	680a      	ldr	r2, [r1, #0]
 8002bde:	6852      	ldr	r2, [r2, #4]
 8002be0:	b292      	uxth	r2, r2
 8002be2:	2a00      	cmp	r2, #0
 8002be4:	d0df      	beq.n	8002ba6 <HAL_UART_IRQHandler+0xda>
 8002be6:	8da0      	ldrh	r0, [r4, #44]	; 0x2c
 8002be8:	4290      	cmp	r0, r2
 8002bea:	d9dc      	bls.n	8002ba6 <HAL_UART_IRQHandler+0xda>
 8002bec:	85e2      	strh	r2, [r4, #46]	; 0x2e
 8002bee:	698a      	ldr	r2, [r1, #24]
 8002bf0:	2a20      	cmp	r2, #32
 8002bf2:	d036      	beq.n	8002c62 <HAL_UART_IRQHandler+0x196>
 8002bf4:	f103 020c 	add.w	r2, r3, #12
 8002bf8:	e852 2f00 	ldrex	r2, [r2]
 8002bfc:	f422 7280 	bic.w	r2, r2, #256	; 0x100
 8002c00:	f103 000c 	add.w	r0, r3, #12
 8002c04:	e840 2100 	strex	r1, r2, [r0]
 8002c08:	2900      	cmp	r1, #0
 8002c0a:	d1f3      	bne.n	8002bf4 <HAL_UART_IRQHandler+0x128>
 8002c0c:	f103 0214 	add.w	r2, r3, #20
 8002c10:	e852 2f00 	ldrex	r2, [r2]
 8002c14:	f022 0201 	bic.w	r2, r2, #1
 8002c18:	f103 0014 	add.w	r0, r3, #20
 8002c1c:	e840 2100 	strex	r1, r2, [r0]
 8002c20:	2900      	cmp	r1, #0
 8002c22:	d1f3      	bne.n	8002c0c <HAL_UART_IRQHandler+0x140>
 8002c24:	f103 0214 	add.w	r2, r3, #20
 8002c28:	e852 2f00 	ldrex	r2, [r2]
 8002c2c:	f022 0240 	bic.w	r2, r2, #64	; 0x40
 8002c30:	f103 0014 	add.w	r0, r3, #20
 8002c34:	e840 2100 	strex	r1, r2, [r0]
 8002c38:	2900      	cmp	r1, #0
 8002c3a:	d1f3      	bne.n	8002c24 <HAL_UART_IRQHandler+0x158>
 8002c3c:	2220      	movs	r2, #32
 8002c3e:	f884 2042 	strb.w	r2, [r4, #66]	; 0x42
 8002c42:	6321      	str	r1, [r4, #48]	; 0x30
 8002c44:	f103 020c 	add.w	r2, r3, #12
 8002c48:	e852 2f00 	ldrex	r2, [r2]
 8002c4c:	f022 0210 	bic.w	r2, r2, #16
 8002c50:	f103 000c 	add.w	r0, r3, #12
 8002c54:	e840 2100 	strex	r1, r2, [r0]
 8002c58:	2900      	cmp	r1, #0
 8002c5a:	d1f3      	bne.n	8002c44 <HAL_UART_IRQHandler+0x178>
 8002c5c:	6be0      	ldr	r0, [r4, #60]	; 0x3c
 8002c5e:	f7fe fe55 	bl	800190c <HAL_DMA_Abort>
 8002c62:	2302      	movs	r3, #2
 8002c64:	6363      	str	r3, [r4, #52]	; 0x34
 8002c66:	8de3      	ldrh	r3, [r4, #46]	; 0x2e
 8002c68:	8da1      	ldrh	r1, [r4, #44]	; 0x2c
 8002c6a:	1ac9      	subs	r1, r1, r3
 8002c6c:	b289      	uxth	r1, r1
 8002c6e:	4620      	mov	r0, r4
 8002c70:	f7ff fed0 	bl	8002a14 <HAL_UARTEx_RxEventCallback>
 8002c74:	e797      	b.n	8002ba6 <HAL_UART_IRQHandler+0xda>
 8002c76:	8de2      	ldrh	r2, [r4, #46]	; 0x2e
 8002c78:	8de0      	ldrh	r0, [r4, #46]	; 0x2e
 8002c7a:	8da1      	ldrh	r1, [r4, #44]	; 0x2c
 8002c7c:	b280      	uxth	r0, r0
 8002c7e:	b292      	uxth	r2, r2
 8002c80:	2800      	cmp	r0, #0
 8002c82:	d090      	beq.n	8002ba6 <HAL_UART_IRQHandler+0xda>
 8002c84:	1a89      	subs	r1, r1, r2
 8002c86:	b289      	uxth	r1, r1
 8002c88:	2900      	cmp	r1, #0
 8002c8a:	d08c      	beq.n	8002ba6 <HAL_UART_IRQHandler+0xda>
 8002c8c:	f103 020c 	add.w	r2, r3, #12
 8002c90:	e852 2f00 	ldrex	r2, [r2]
 8002c94:	f422 7290 	bic.w	r2, r2, #288	; 0x120
 8002c98:	f103 050c 	add.w	r5, r3, #12
 8002c9c:	e845 2000 	strex	r0, r2, [r5]
 8002ca0:	2800      	cmp	r0, #0
 8002ca2:	d1f3      	bne.n	8002c8c <HAL_UART_IRQHandler+0x1c0>
 8002ca4:	f103 0214 	add.w	r2, r3, #20
 8002ca8:	e852 2f00 	ldrex	r2, [r2]
 8002cac:	f022 0201 	bic.w	r2, r2, #1
 8002cb0:	f103 0514 	add.w	r5, r3, #20
 8002cb4:	e845 2000 	strex	r0, r2, [r5]
 8002cb8:	2800      	cmp	r0, #0
 8002cba:	d1f3      	bne.n	8002ca4 <HAL_UART_IRQHandler+0x1d8>
 8002cbc:	2220      	movs	r2, #32
 8002cbe:	f884 2042 	strb.w	r2, [r4, #66]	; 0x42
 8002cc2:	6320      	str	r0, [r4, #48]	; 0x30
 8002cc4:	f103 020c 	add.w	r2, r3, #12
 8002cc8:	e852 2f00 	ldrex	r2, [r2]
 8002ccc:	f022 0210 	bic.w	r2, r2, #16
 8002cd0:	f103 050c 	add.w	r5, r3, #12
 8002cd4:	e845 2000 	strex	r0, r2, [r5]
 8002cd8:	2800      	cmp	r0, #0
 8002cda:	d1f3      	bne.n	8002cc4 <HAL_UART_IRQHandler+0x1f8>
 8002cdc:	2302      	movs	r3, #2
 8002cde:	6363      	str	r3, [r4, #52]	; 0x34
 8002ce0:	e7c5      	b.n	8002c6e <HAL_UART_IRQHandler+0x1a2>
 8002ce2:	0616      	lsls	r6, r2, #24
 8002ce4:	d528      	bpl.n	8002d38 <HAL_UART_IRQHandler+0x26c>
 8002ce6:	060d      	lsls	r5, r1, #24
 8002ce8:	d526      	bpl.n	8002d38 <HAL_UART_IRQHandler+0x26c>
 8002cea:	f894 2041 	ldrb.w	r2, [r4, #65]	; 0x41
 8002cee:	2a21      	cmp	r2, #33	; 0x21
 8002cf0:	f47f af59 	bne.w	8002ba6 <HAL_UART_IRQHandler+0xda>
 8002cf4:	68a1      	ldr	r1, [r4, #8]
 8002cf6:	6a22      	ldr	r2, [r4, #32]
 8002cf8:	f5b1 5f80 	cmp.w	r1, #4096	; 0x1000
 8002cfc:	d117      	bne.n	8002d2e <HAL_UART_IRQHandler+0x262>
 8002cfe:	6921      	ldr	r1, [r4, #16]
 8002d00:	b9a9      	cbnz	r1, 8002d2e <HAL_UART_IRQHandler+0x262>
 8002d02:	f832 1b02 	ldrh.w	r1, [r2], #2
 8002d06:	f3c1 0108 	ubfx	r1, r1, #0, #9
 8002d0a:	6059      	str	r1, [r3, #4]
 8002d0c:	6222      	str	r2, [r4, #32]
 8002d0e:	8ce2      	ldrh	r2, [r4, #38]	; 0x26
 8002d10:	3a01      	subs	r2, #1
 8002d12:	b292      	uxth	r2, r2
 8002d14:	84e2      	strh	r2, [r4, #38]	; 0x26
 8002d16:	2a00      	cmp	r2, #0
 8002d18:	f47f af45 	bne.w	8002ba6 <HAL_UART_IRQHandler+0xda>
 8002d1c:	68da      	ldr	r2, [r3, #12]
 8002d1e:	f022 0280 	bic.w	r2, r2, #128	; 0x80
 8002d22:	60da      	str	r2, [r3, #12]
 8002d24:	68da      	ldr	r2, [r3, #12]
 8002d26:	f042 0240 	orr.w	r2, r2, #64	; 0x40
 8002d2a:	60da      	str	r2, [r3, #12]
 8002d2c:	e73b      	b.n	8002ba6 <HAL_UART_IRQHandler+0xda>
 8002d2e:	1c51      	adds	r1, r2, #1
 8002d30:	6221      	str	r1, [r4, #32]
 8002d32:	7812      	ldrb	r2, [r2, #0]
 8002d34:	605a      	str	r2, [r3, #4]
 8002d36:	e7ea      	b.n	8002d0e <HAL_UART_IRQHandler+0x242>
 8002d38:	0650      	lsls	r0, r2, #25
 8002d3a:	f57f af34 	bpl.w	8002ba6 <HAL_UART_IRQHandler+0xda>
 8002d3e:	064a      	lsls	r2, r1, #25
 8002d40:	f57f af31 	bpl.w	8002ba6 <HAL_UART_IRQHandler+0xda>
 8002d44:	68da      	ldr	r2, [r3, #12]
 8002d46:	4620      	mov	r0, r4
 8002d48:	f022 0240 	bic.w	r2, r2, #64	; 0x40
 8002d4c:	60da      	str	r2, [r3, #12]
 8002d4e:	2320      	movs	r3, #32
 8002d50:	f884 3041 	strb.w	r3, [r4, #65]	; 0x41
 8002d54:	f7ff fe54 	bl	8002a00 <HAL_UART_TxCpltCallback>
 8002d58:	e725      	b.n	8002ba6 <HAL_UART_IRQHandler+0xda>
 8002d5a:	bf00      	nop
 8002d5c:	08002a05 	.word	0x08002a05

08002d60 <UART_Start_Receive_IT>:
 8002d60:	2300      	movs	r3, #0
 8002d62:	85c2      	strh	r2, [r0, #46]	; 0x2e
 8002d64:	6443      	str	r3, [r0, #68]	; 0x44
 8002d66:	2322      	movs	r3, #34	; 0x22
 8002d68:	8582      	strh	r2, [r0, #44]	; 0x2c
 8002d6a:	6902      	ldr	r2, [r0, #16]
 8002d6c:	f880 3042 	strb.w	r3, [r0, #66]	; 0x42
 8002d70:	6281      	str	r1, [r0, #40]	; 0x28
 8002d72:	6803      	ldr	r3, [r0, #0]
 8002d74:	b11a      	cbz	r2, 8002d7e <UART_Start_Receive_IT+0x1e>
 8002d76:	68da      	ldr	r2, [r3, #12]
 8002d78:	f442 7280 	orr.w	r2, r2, #256	; 0x100
 8002d7c:	60da      	str	r2, [r3, #12]
 8002d7e:	695a      	ldr	r2, [r3, #20]
 8002d80:	2000      	movs	r0, #0
 8002d82:	f042 0201 	orr.w	r2, r2, #1
 8002d86:	615a      	str	r2, [r3, #20]
 8002d88:	68da      	ldr	r2, [r3, #12]
 8002d8a:	f042 0220 	orr.w	r2, r2, #32
 8002d8e:	60da      	str	r2, [r3, #12]
 8002d90:	4770      	bx	lr

08002d92 <HAL_UART_Receive_IT>:
 8002d92:	b470      	push	{r4, r5, r6}
 8002d94:	f890 6042 	ldrb.w	r6, [r0, #66]	; 0x42
 8002d98:	2e20      	cmp	r6, #32
 8002d9a:	d106      	bne.n	8002daa <HAL_UART_Receive_IT+0x18>
 8002d9c:	b141      	cbz	r1, 8002db0 <HAL_UART_Receive_IT+0x1e>
 8002d9e:	b13a      	cbz	r2, 8002db0 <HAL_UART_Receive_IT+0x1e>
 8002da0:	2400      	movs	r4, #0
 8002da2:	6304      	str	r4, [r0, #48]	; 0x30
 8002da4:	bc70      	pop	{r4, r5, r6}
 8002da6:	f7ff bfdb 	b.w	8002d60 <UART_Start_Receive_IT>
 8002daa:	2002      	movs	r0, #2
 8002dac:	bc70      	pop	{r4, r5, r6}
 8002dae:	4770      	bx	lr
 8002db0:	2001      	movs	r0, #1
 8002db2:	e7fb      	b.n	8002dac <HAL_UART_Receive_IT+0x1a>

08002db4 <__cvt>:
 8002db4:	2b00      	cmp	r3, #0
 8002db6:	e92d 47f0 	stmdb	sp!, {r4, r5, r6, r7, r8, r9, sl, lr}
 8002dba:	461f      	mov	r7, r3
 8002dbc:	bfbb      	ittet	lt
 8002dbe:	f103 4300 	addlt.w	r3, r3, #2147483648	; 0x80000000
 8002dc2:	461f      	movlt	r7, r3
 8002dc4:	2300      	movge	r3, #0
 8002dc6:	232d      	movlt	r3, #45	; 0x2d
 8002dc8:	b088      	sub	sp, #32
 8002dca:	4614      	mov	r4, r2
 8002dcc:	9a12      	ldr	r2, [sp, #72]	; 0x48
 8002dce:	9d10      	ldr	r5, [sp, #64]	; 0x40
 8002dd0:	7013      	strb	r3, [r2, #0]
 8002dd2:	9b14      	ldr	r3, [sp, #80]	; 0x50
 8002dd4:	f8dd a04c 	ldr.w	sl, [sp, #76]	; 0x4c
 8002dd8:	f023 0820 	bic.w	r8, r3, #32
 8002ddc:	f1b8 0f46 	cmp.w	r8, #70	; 0x46
 8002de0:	d005      	beq.n	8002dee <__cvt+0x3a>
 8002de2:	f1b8 0f45 	cmp.w	r8, #69	; 0x45
 8002de6:	d100      	bne.n	8002dea <__cvt+0x36>
 8002de8:	3501      	adds	r5, #1
 8002dea:	2302      	movs	r3, #2
 8002dec:	e000      	b.n	8002df0 <__cvt+0x3c>
 8002dee:	2303      	movs	r3, #3
 8002df0:	aa07      	add	r2, sp, #28
 8002df2:	9204      	str	r2, [sp, #16]
 8002df4:	aa06      	add	r2, sp, #24
 8002df6:	e9cd a202 	strd	sl, r2, [sp, #8]
 8002dfa:	e9cd 3500 	strd	r3, r5, [sp]
 8002dfe:	4622      	mov	r2, r4
 8002e00:	463b      	mov	r3, r7
 8002e02:	f000 fed1 	bl	8003ba8 <_dtoa_r>
 8002e06:	f1b8 0f47 	cmp.w	r8, #71	; 0x47
 8002e0a:	4606      	mov	r6, r0
 8002e0c:	d102      	bne.n	8002e14 <__cvt+0x60>
 8002e0e:	9b11      	ldr	r3, [sp, #68]	; 0x44
 8002e10:	07db      	lsls	r3, r3, #31
 8002e12:	d522      	bpl.n	8002e5a <__cvt+0xa6>
 8002e14:	f1b8 0f46 	cmp.w	r8, #70	; 0x46
 8002e18:	eb06 0905 	add.w	r9, r6, r5
 8002e1c:	d110      	bne.n	8002e40 <__cvt+0x8c>
 8002e1e:	7833      	ldrb	r3, [r6, #0]
 8002e20:	2b30      	cmp	r3, #48	; 0x30
 8002e22:	d10a      	bne.n	8002e3a <__cvt+0x86>
 8002e24:	2200      	movs	r2, #0
 8002e26:	2300      	movs	r3, #0
 8002e28:	4620      	mov	r0, r4
 8002e2a:	4639      	mov	r1, r7
 8002e2c:	f7fd fdc6 	bl	80009bc <__aeabi_dcmpeq>
 8002e30:	b918      	cbnz	r0, 8002e3a <__cvt+0x86>
 8002e32:	f1c5 0501 	rsb	r5, r5, #1
 8002e36:	f8ca 5000 	str.w	r5, [sl]
 8002e3a:	f8da 3000 	ldr.w	r3, [sl]
 8002e3e:	4499      	add	r9, r3
 8002e40:	2200      	movs	r2, #0
 8002e42:	2300      	movs	r3, #0
 8002e44:	4620      	mov	r0, r4
 8002e46:	4639      	mov	r1, r7
 8002e48:	f7fd fdb8 	bl	80009bc <__aeabi_dcmpeq>
 8002e4c:	b108      	cbz	r0, 8002e52 <__cvt+0x9e>
 8002e4e:	f8cd 901c 	str.w	r9, [sp, #28]
 8002e52:	2230      	movs	r2, #48	; 0x30
 8002e54:	9b07      	ldr	r3, [sp, #28]
 8002e56:	454b      	cmp	r3, r9
 8002e58:	d307      	bcc.n	8002e6a <__cvt+0xb6>
 8002e5a:	4630      	mov	r0, r6
 8002e5c:	9b07      	ldr	r3, [sp, #28]
 8002e5e:	9a15      	ldr	r2, [sp, #84]	; 0x54
 8002e60:	1b9b      	subs	r3, r3, r6
 8002e62:	6013      	str	r3, [r2, #0]
 8002e64:	b008      	add	sp, #32
 8002e66:	e8bd 87f0 	ldmia.w	sp!, {r4, r5, r6, r7, r8, r9, sl, pc}
 8002e6a:	1c59      	adds	r1, r3, #1
 8002e6c:	9107      	str	r1, [sp, #28]
 8002e6e:	701a      	strb	r2, [r3, #0]
 8002e70:	e7f0      	b.n	8002e54 <__cvt+0xa0>

08002e72 <__exponent>:
 8002e72:	4603      	mov	r3, r0
 8002e74:	b5f7      	push	{r0, r1, r2, r4, r5, r6, r7, lr}
 8002e76:	2900      	cmp	r1, #0
 8002e78:	f803 2b02 	strb.w	r2, [r3], #2
 8002e7c:	bfb6      	itet	lt
 8002e7e:	222d      	movlt	r2, #45	; 0x2d
 8002e80:	222b      	movge	r2, #43	; 0x2b
 8002e82:	4249      	neglt	r1, r1
 8002e84:	2909      	cmp	r1, #9
 8002e86:	7042      	strb	r2, [r0, #1]
 8002e88:	dd2a      	ble.n	8002ee0 <__exponent+0x6e>
 8002e8a:	f10d 0207 	add.w	r2, sp, #7
 8002e8e:	4617      	mov	r7, r2
 8002e90:	260a      	movs	r6, #10
 8002e92:	fb91 f5f6 	sdiv	r5, r1, r6
 8002e96:	4694      	mov	ip, r2
 8002e98:	fb06 1415 	mls	r4, r6, r5, r1
 8002e9c:	3430      	adds	r4, #48	; 0x30
 8002e9e:	f80c 4c01 	strb.w	r4, [ip, #-1]
 8002ea2:	460c      	mov	r4, r1
 8002ea4:	2c63      	cmp	r4, #99	; 0x63
 8002ea6:	4629      	mov	r1, r5
 8002ea8:	f102 32ff 	add.w	r2, r2, #4294967295
 8002eac:	dcf1      	bgt.n	8002e92 <__exponent+0x20>
 8002eae:	3130      	adds	r1, #48	; 0x30
 8002eb0:	f1ac 0402 	sub.w	r4, ip, #2
 8002eb4:	f802 1c01 	strb.w	r1, [r2, #-1]
 8002eb8:	4622      	mov	r2, r4
 8002eba:	1c41      	adds	r1, r0, #1
 8002ebc:	42ba      	cmp	r2, r7
 8002ebe:	d30a      	bcc.n	8002ed6 <__exponent+0x64>
 8002ec0:	f10d 0209 	add.w	r2, sp, #9
 8002ec4:	eba2 020c 	sub.w	r2, r2, ip
 8002ec8:	42bc      	cmp	r4, r7
 8002eca:	bf88      	it	hi
 8002ecc:	2200      	movhi	r2, #0
 8002ece:	4413      	add	r3, r2
 8002ed0:	1a18      	subs	r0, r3, r0
 8002ed2:	b003      	add	sp, #12
 8002ed4:	bdf0      	pop	{r4, r5, r6, r7, pc}
 8002ed6:	f812 5b01 	ldrb.w	r5, [r2], #1
 8002eda:	f801 5f01 	strb.w	r5, [r1, #1]!
 8002ede:	e7ed      	b.n	8002ebc <__exponent+0x4a>
 8002ee0:	2330      	movs	r3, #48	; 0x30
 8002ee2:	3130      	adds	r1, #48	; 0x30
 8002ee4:	7083      	strb	r3, [r0, #2]
 8002ee6:	70c1      	strb	r1, [r0, #3]
 8002ee8:	1d03      	adds	r3, r0, #4
 8002eea:	e7f1      	b.n	8002ed0 <__exponent+0x5e>

08002eec <_printf_float>:
 8002eec:	e92d 4ff0 	stmdb	sp!, {r4, r5, r6, r7, r8, r9, sl, fp, lr}
 8002ef0:	b091      	sub	sp, #68	; 0x44
 8002ef2:	460c      	mov	r4, r1
 8002ef4:	f8dd 8068 	ldr.w	r8, [sp, #104]	; 0x68
 8002ef8:	4616      	mov	r6, r2
 8002efa:	461f      	mov	r7, r3
 8002efc:	4605      	mov	r5, r0
 8002efe:	f000 fd45 	bl	800398c <_localeconv_r>
 8002f02:	6803      	ldr	r3, [r0, #0]
 8002f04:	4618      	mov	r0, r3
 8002f06:	9309      	str	r3, [sp, #36]	; 0x24
 8002f08:	f7fd f92c 	bl	8000164 <strlen>
 8002f0c:	2300      	movs	r3, #0
 8002f0e:	930e      	str	r3, [sp, #56]	; 0x38
 8002f10:	f8d8 3000 	ldr.w	r3, [r8]
 8002f14:	900a      	str	r0, [sp, #40]	; 0x28
 8002f16:	3307      	adds	r3, #7
 8002f18:	f023 0307 	bic.w	r3, r3, #7
 8002f1c:	f103 0208 	add.w	r2, r3, #8
 8002f20:	f894 9018 	ldrb.w	r9, [r4, #24]
 8002f24:	f8d4 b000 	ldr.w	fp, [r4]
 8002f28:	f8c8 2000 	str.w	r2, [r8]
 8002f2c:	e9d3 a800 	ldrd	sl, r8, [r3]
 8002f30:	4652      	mov	r2, sl
 8002f32:	4643      	mov	r3, r8
 8002f34:	e9c4 2312 	strd	r2, r3, [r4, #72]	; 0x48
 8002f38:	f028 4300 	bic.w	r3, r8, #2147483648	; 0x80000000
 8002f3c:	930b      	str	r3, [sp, #44]	; 0x2c
 8002f3e:	f04f 32ff 	mov.w	r2, #4294967295
 8002f42:	4650      	mov	r0, sl
 8002f44:	4b9c      	ldr	r3, [pc, #624]	; (80031b8 <_printf_float+0x2cc>)
 8002f46:	990b      	ldr	r1, [sp, #44]	; 0x2c
 8002f48:	f7fd fd6a 	bl	8000a20 <__aeabi_dcmpun>
 8002f4c:	bb70      	cbnz	r0, 8002fac <_printf_float+0xc0>
 8002f4e:	f04f 32ff 	mov.w	r2, #4294967295
 8002f52:	4650      	mov	r0, sl
 8002f54:	4b98      	ldr	r3, [pc, #608]	; (80031b8 <_printf_float+0x2cc>)
 8002f56:	990b      	ldr	r1, [sp, #44]	; 0x2c
 8002f58:	f7fd fd44 	bl	80009e4 <__aeabi_dcmple>
 8002f5c:	bb30      	cbnz	r0, 8002fac <_printf_float+0xc0>
 8002f5e:	2200      	movs	r2, #0
 8002f60:	2300      	movs	r3, #0
 8002f62:	4650      	mov	r0, sl
 8002f64:	4641      	mov	r1, r8
 8002f66:	f7fd fd33 	bl	80009d0 <__aeabi_dcmplt>
 8002f6a:	b110      	cbz	r0, 8002f72 <_printf_float+0x86>
 8002f6c:	232d      	movs	r3, #45	; 0x2d
 8002f6e:	f884 3043 	strb.w	r3, [r4, #67]	; 0x43
 8002f72:	4a92      	ldr	r2, [pc, #584]	; (80031bc <_printf_float+0x2d0>)
 8002f74:	4b92      	ldr	r3, [pc, #584]	; (80031c0 <_printf_float+0x2d4>)
 8002f76:	f1b9 0f47 	cmp.w	r9, #71	; 0x47
 8002f7a:	bf94      	ite	ls
 8002f7c:	4690      	movls	r8, r2
 8002f7e:	4698      	movhi	r8, r3
 8002f80:	2303      	movs	r3, #3
 8002f82:	f04f 0a00 	mov.w	sl, #0
 8002f86:	6123      	str	r3, [r4, #16]
 8002f88:	f02b 0304 	bic.w	r3, fp, #4
 8002f8c:	6023      	str	r3, [r4, #0]
 8002f8e:	4633      	mov	r3, r6
 8002f90:	4621      	mov	r1, r4
 8002f92:	4628      	mov	r0, r5
 8002f94:	9700      	str	r7, [sp, #0]
 8002f96:	aa0f      	add	r2, sp, #60	; 0x3c
 8002f98:	f000 f9d6 	bl	8003348 <_printf_common>
 8002f9c:	3001      	adds	r0, #1
 8002f9e:	f040 8090 	bne.w	80030c2 <_printf_float+0x1d6>
 8002fa2:	f04f 30ff 	mov.w	r0, #4294967295
 8002fa6:	b011      	add	sp, #68	; 0x44
 8002fa8:	e8bd 8ff0 	ldmia.w	sp!, {r4, r5, r6, r7, r8, r9, sl, fp, pc}
 8002fac:	4652      	mov	r2, sl
 8002fae:	4643      	mov	r3, r8
 8002fb0:	4650      	mov	r0, sl
 8002fb2:	4641      	mov	r1, r8
 8002fb4:	f7fd fd34 	bl	8000a20 <__aeabi_dcmpun>
 8002fb8:	b148      	cbz	r0, 8002fce <_printf_float+0xe2>
 8002fba:	f1b8 0f00 	cmp.w	r8, #0
 8002fbe:	bfb8      	it	lt
 8002fc0:	232d      	movlt	r3, #45	; 0x2d
 8002fc2:	4a80      	ldr	r2, [pc, #512]	; (80031c4 <_printf_float+0x2d8>)
 8002fc4:	bfb8      	it	lt
 8002fc6:	f884 3043 	strblt.w	r3, [r4, #67]	; 0x43
 8002fca:	4b7f      	ldr	r3, [pc, #508]	; (80031c8 <_printf_float+0x2dc>)
 8002fcc:	e7d3      	b.n	8002f76 <_printf_float+0x8a>
 8002fce:	6863      	ldr	r3, [r4, #4]
 8002fd0:	f009 01df 	and.w	r1, r9, #223	; 0xdf
 8002fd4:	1c5a      	adds	r2, r3, #1
 8002fd6:	d142      	bne.n	800305e <_printf_float+0x172>
 8002fd8:	2306      	movs	r3, #6
 8002fda:	6063      	str	r3, [r4, #4]
 8002fdc:	2200      	movs	r2, #0
 8002fde:	9206      	str	r2, [sp, #24]
 8002fe0:	aa0e      	add	r2, sp, #56	; 0x38
 8002fe2:	e9cd 9204 	strd	r9, r2, [sp, #16]
 8002fe6:	aa0d      	add	r2, sp, #52	; 0x34
 8002fe8:	f44b 6380 	orr.w	r3, fp, #1024	; 0x400
 8002fec:	9203      	str	r2, [sp, #12]
 8002fee:	f10d 0233 	add.w	r2, sp, #51	; 0x33
 8002ff2:	e9cd 3201 	strd	r3, r2, [sp, #4]
 8002ff6:	6023      	str	r3, [r4, #0]
 8002ff8:	6863      	ldr	r3, [r4, #4]
 8002ffa:	4652      	mov	r2, sl
 8002ffc:	9300      	str	r3, [sp, #0]
 8002ffe:	4628      	mov	r0, r5
 8003000:	4643      	mov	r3, r8
 8003002:	910b      	str	r1, [sp, #44]	; 0x2c
 8003004:	f7ff fed6 	bl	8002db4 <__cvt>
 8003008:	990b      	ldr	r1, [sp, #44]	; 0x2c
 800300a:	4680      	mov	r8, r0
 800300c:	2947      	cmp	r1, #71	; 0x47
 800300e:	990d      	ldr	r1, [sp, #52]	; 0x34
 8003010:	d108      	bne.n	8003024 <_printf_float+0x138>
 8003012:	1cc8      	adds	r0, r1, #3
 8003014:	db02      	blt.n	800301c <_printf_float+0x130>
 8003016:	6863      	ldr	r3, [r4, #4]
 8003018:	4299      	cmp	r1, r3
 800301a:	dd40      	ble.n	800309e <_printf_float+0x1b2>
 800301c:	f1a9 0902 	sub.w	r9, r9, #2
 8003020:	fa5f f989 	uxtb.w	r9, r9
 8003024:	f1b9 0f65 	cmp.w	r9, #101	; 0x65
 8003028:	d81f      	bhi.n	800306a <_printf_float+0x17e>
 800302a:	464a      	mov	r2, r9
 800302c:	3901      	subs	r1, #1
 800302e:	f104 0050 	add.w	r0, r4, #80	; 0x50
 8003032:	910d      	str	r1, [sp, #52]	; 0x34
 8003034:	f7ff ff1d 	bl	8002e72 <__exponent>
 8003038:	9a0e      	ldr	r2, [sp, #56]	; 0x38
 800303a:	4682      	mov	sl, r0
 800303c:	1813      	adds	r3, r2, r0
 800303e:	2a01      	cmp	r2, #1
 8003040:	6123      	str	r3, [r4, #16]
 8003042:	dc02      	bgt.n	800304a <_printf_float+0x15e>
 8003044:	6822      	ldr	r2, [r4, #0]
 8003046:	07d2      	lsls	r2, r2, #31
 8003048:	d501      	bpl.n	800304e <_printf_float+0x162>
 800304a:	3301      	adds	r3, #1
 800304c:	6123      	str	r3, [r4, #16]
 800304e:	f89d 3033 	ldrb.w	r3, [sp, #51]	; 0x33
 8003052:	2b00      	cmp	r3, #0
 8003054:	d09b      	beq.n	8002f8e <_printf_float+0xa2>
 8003056:	232d      	movs	r3, #45	; 0x2d
 8003058:	f884 3043 	strb.w	r3, [r4, #67]	; 0x43
 800305c:	e797      	b.n	8002f8e <_printf_float+0xa2>
 800305e:	2947      	cmp	r1, #71	; 0x47
 8003060:	d1bc      	bne.n	8002fdc <_printf_float+0xf0>
 8003062:	2b00      	cmp	r3, #0
 8003064:	d1ba      	bne.n	8002fdc <_printf_float+0xf0>
 8003066:	2301      	movs	r3, #1
 8003068:	e7b7      	b.n	8002fda <_printf_float+0xee>
 800306a:	f1b9 0f66 	cmp.w	r9, #102	; 0x66
 800306e:	d118      	bne.n	80030a2 <_printf_float+0x1b6>
 8003070:	2900      	cmp	r1, #0
 8003072:	6863      	ldr	r3, [r4, #4]
 8003074:	dd0b      	ble.n	800308e <_printf_float+0x1a2>
 8003076:	6121      	str	r1, [r4, #16]
 8003078:	b913      	cbnz	r3, 8003080 <_printf_float+0x194>
 800307a:	6822      	ldr	r2, [r4, #0]
 800307c:	07d0      	lsls	r0, r2, #31
 800307e:	d502      	bpl.n	8003086 <_printf_float+0x19a>
 8003080:	3301      	adds	r3, #1
 8003082:	440b      	add	r3, r1
 8003084:	6123      	str	r3, [r4, #16]
 8003086:	f04f 0a00 	mov.w	sl, #0
 800308a:	65a1      	str	r1, [r4, #88]	; 0x58
 800308c:	e7df      	b.n	800304e <_printf_float+0x162>
 800308e:	b913      	cbnz	r3, 8003096 <_printf_float+0x1aa>
 8003090:	6822      	ldr	r2, [r4, #0]
 8003092:	07d2      	lsls	r2, r2, #31
 8003094:	d501      	bpl.n	800309a <_printf_float+0x1ae>
 8003096:	3302      	adds	r3, #2
 8003098:	e7f4      	b.n	8003084 <_printf_float+0x198>
 800309a:	2301      	movs	r3, #1
 800309c:	e7f2      	b.n	8003084 <_printf_float+0x198>
 800309e:	f04f 0967 	mov.w	r9, #103	; 0x67
 80030a2:	9b0e      	ldr	r3, [sp, #56]	; 0x38
 80030a4:	4299      	cmp	r1, r3
 80030a6:	db05      	blt.n	80030b4 <_printf_float+0x1c8>
 80030a8:	6823      	ldr	r3, [r4, #0]
 80030aa:	6121      	str	r1, [r4, #16]
 80030ac:	07d8      	lsls	r0, r3, #31
 80030ae:	d5ea      	bpl.n	8003086 <_printf_float+0x19a>
 80030b0:	1c4b      	adds	r3, r1, #1
 80030b2:	e7e7      	b.n	8003084 <_printf_float+0x198>
 80030b4:	2900      	cmp	r1, #0
 80030b6:	bfcc      	ite	gt
 80030b8:	2201      	movgt	r2, #1
 80030ba:	f1c1 0202 	rsble	r2, r1, #2
 80030be:	4413      	add	r3, r2
 80030c0:	e7e0      	b.n	8003084 <_printf_float+0x198>
 80030c2:	6823      	ldr	r3, [r4, #0]
 80030c4:	055a      	lsls	r2, r3, #21
 80030c6:	d407      	bmi.n	80030d8 <_printf_float+0x1ec>
 80030c8:	6923      	ldr	r3, [r4, #16]
 80030ca:	4642      	mov	r2, r8
 80030cc:	4631      	mov	r1, r6
 80030ce:	4628      	mov	r0, r5
 80030d0:	47b8      	blx	r7
 80030d2:	3001      	adds	r0, #1
 80030d4:	d12b      	bne.n	800312e <_printf_float+0x242>
 80030d6:	e764      	b.n	8002fa2 <_printf_float+0xb6>
 80030d8:	f1b9 0f65 	cmp.w	r9, #101	; 0x65
 80030dc:	f240 80dd 	bls.w	800329a <_printf_float+0x3ae>
 80030e0:	e9d4 0112 	ldrd	r0, r1, [r4, #72]	; 0x48
 80030e4:	2200      	movs	r2, #0
 80030e6:	2300      	movs	r3, #0
 80030e8:	f7fd fc68 	bl	80009bc <__aeabi_dcmpeq>
 80030ec:	2800      	cmp	r0, #0
 80030ee:	d033      	beq.n	8003158 <_printf_float+0x26c>
 80030f0:	2301      	movs	r3, #1
 80030f2:	4631      	mov	r1, r6
 80030f4:	4628      	mov	r0, r5
 80030f6:	4a35      	ldr	r2, [pc, #212]	; (80031cc <_printf_float+0x2e0>)
 80030f8:	47b8      	blx	r7
 80030fa:	3001      	adds	r0, #1
 80030fc:	f43f af51 	beq.w	8002fa2 <_printf_float+0xb6>
 8003100:	e9dd 230d 	ldrd	r2, r3, [sp, #52]	; 0x34
 8003104:	429a      	cmp	r2, r3
 8003106:	db02      	blt.n	800310e <_printf_float+0x222>
 8003108:	6823      	ldr	r3, [r4, #0]
 800310a:	07d8      	lsls	r0, r3, #31
 800310c:	d50f      	bpl.n	800312e <_printf_float+0x242>
 800310e:	e9dd 2309 	ldrd	r2, r3, [sp, #36]	; 0x24
 8003112:	4631      	mov	r1, r6
 8003114:	4628      	mov	r0, r5
 8003116:	47b8      	blx	r7
 8003118:	3001      	adds	r0, #1
 800311a:	f43f af42 	beq.w	8002fa2 <_printf_float+0xb6>
 800311e:	f04f 0800 	mov.w	r8, #0
 8003122:	f104 091a 	add.w	r9, r4, #26
 8003126:	9b0e      	ldr	r3, [sp, #56]	; 0x38
 8003128:	3b01      	subs	r3, #1
 800312a:	4543      	cmp	r3, r8
 800312c:	dc09      	bgt.n	8003142 <_printf_float+0x256>
 800312e:	6823      	ldr	r3, [r4, #0]
 8003130:	079b      	lsls	r3, r3, #30
 8003132:	f100 8104 	bmi.w	800333e <_printf_float+0x452>
 8003136:	68e0      	ldr	r0, [r4, #12]
 8003138:	9b0f      	ldr	r3, [sp, #60]	; 0x3c
 800313a:	4298      	cmp	r0, r3
 800313c:	bfb8      	it	lt
 800313e:	4618      	movlt	r0, r3
 8003140:	e731      	b.n	8002fa6 <_printf_float+0xba>
 8003142:	2301      	movs	r3, #1
 8003144:	464a      	mov	r2, r9
 8003146:	4631      	mov	r1, r6
 8003148:	4628      	mov	r0, r5
 800314a:	47b8      	blx	r7
 800314c:	3001      	adds	r0, #1
 800314e:	f43f af28 	beq.w	8002fa2 <_printf_float+0xb6>
 8003152:	f108 0801 	add.w	r8, r8, #1
 8003156:	e7e6      	b.n	8003126 <_printf_float+0x23a>
 8003158:	9b0d      	ldr	r3, [sp, #52]	; 0x34
 800315a:	2b00      	cmp	r3, #0
 800315c:	dc38      	bgt.n	80031d0 <_printf_float+0x2e4>
 800315e:	2301      	movs	r3, #1
 8003160:	4631      	mov	r1, r6
 8003162:	4628      	mov	r0, r5
 8003164:	4a19      	ldr	r2, [pc, #100]	; (80031cc <_printf_float+0x2e0>)
 8003166:	47b8      	blx	r7
 8003168:	3001      	adds	r0, #1
 800316a:	f43f af1a 	beq.w	8002fa2 <_printf_float+0xb6>
 800316e:	e9dd 320d 	ldrd	r3, r2, [sp, #52]	; 0x34
 8003172:	4313      	orrs	r3, r2
 8003174:	d102      	bne.n	800317c <_printf_float+0x290>
 8003176:	6823      	ldr	r3, [r4, #0]
 8003178:	07d9      	lsls	r1, r3, #31
 800317a:	d5d8      	bpl.n	800312e <_printf_float+0x242>
 800317c:	e9dd 2309 	ldrd	r2, r3, [sp, #36]	; 0x24
 8003180:	4631      	mov	r1, r6
 8003182:	4628      	mov	r0, r5
 8003184:	47b8      	blx	r7
 8003186:	3001      	adds	r0, #1
 8003188:	f43f af0b 	beq.w	8002fa2 <_printf_float+0xb6>
 800318c:	f04f 0900 	mov.w	r9, #0
 8003190:	f104 0a1a 	add.w	sl, r4, #26
 8003194:	9b0d      	ldr	r3, [sp, #52]	; 0x34
 8003196:	425b      	negs	r3, r3
 8003198:	454b      	cmp	r3, r9
 800319a:	dc01      	bgt.n	80031a0 <_printf_float+0x2b4>
 800319c:	9b0e      	ldr	r3, [sp, #56]	; 0x38
 800319e:	e794      	b.n	80030ca <_printf_float+0x1de>
 80031a0:	2301      	movs	r3, #1
 80031a2:	4652      	mov	r2, sl
 80031a4:	4631      	mov	r1, r6
 80031a6:	4628      	mov	r0, r5
 80031a8:	47b8      	blx	r7
 80031aa:	3001      	adds	r0, #1
 80031ac:	f43f aef9 	beq.w	8002fa2 <_printf_float+0xb6>
 80031b0:	f109 0901 	add.w	r9, r9, #1
 80031b4:	e7ee      	b.n	8003194 <_printf_float+0x2a8>
 80031b6:	bf00      	nop
 80031b8:	7fefffff 	.word	0x7fefffff
 80031bc:	08006510 	.word	0x08006510
 80031c0:	08006514 	.word	0x08006514
 80031c4:	08006518 	.word	0x08006518
 80031c8:	0800651c 	.word	0x0800651c
 80031cc:	0800674b 	.word	0x0800674b
 80031d0:	9a0e      	ldr	r2, [sp, #56]	; 0x38
 80031d2:	6da3      	ldr	r3, [r4, #88]	; 0x58
 80031d4:	429a      	cmp	r2, r3
 80031d6:	bfa8      	it	ge
 80031d8:	461a      	movge	r2, r3
 80031da:	2a00      	cmp	r2, #0
 80031dc:	4691      	mov	r9, r2
 80031de:	dc37      	bgt.n	8003250 <_printf_float+0x364>
 80031e0:	f04f 0b00 	mov.w	fp, #0
 80031e4:	ea29 79e9 	bic.w	r9, r9, r9, asr #31
 80031e8:	f104 021a 	add.w	r2, r4, #26
 80031ec:	f8d4 a058 	ldr.w	sl, [r4, #88]	; 0x58
 80031f0:	ebaa 0309 	sub.w	r3, sl, r9
 80031f4:	455b      	cmp	r3, fp
 80031f6:	dc33      	bgt.n	8003260 <_printf_float+0x374>
 80031f8:	e9dd 230d 	ldrd	r2, r3, [sp, #52]	; 0x34
 80031fc:	429a      	cmp	r2, r3
 80031fe:	db3b      	blt.n	8003278 <_printf_float+0x38c>
 8003200:	6823      	ldr	r3, [r4, #0]
 8003202:	07da      	lsls	r2, r3, #31
 8003204:	d438      	bmi.n	8003278 <_printf_float+0x38c>
 8003206:	e9dd 320d 	ldrd	r3, r2, [sp, #52]	; 0x34
 800320a:	eba2 0903 	sub.w	r9, r2, r3
 800320e:	eba2 020a 	sub.w	r2, r2, sl
 8003212:	4591      	cmp	r9, r2
 8003214:	bfa8      	it	ge
 8003216:	4691      	movge	r9, r2
 8003218:	f1b9 0f00 	cmp.w	r9, #0
 800321c:	dc34      	bgt.n	8003288 <_printf_float+0x39c>
 800321e:	f04f 0800 	mov.w	r8, #0
 8003222:	ea29 79e9 	bic.w	r9, r9, r9, asr #31
 8003226:	f104 0a1a 	add.w	sl, r4, #26
 800322a:	e9dd 230d 	ldrd	r2, r3, [sp, #52]	; 0x34
 800322e:	1a9b      	subs	r3, r3, r2
 8003230:	eba3 0309 	sub.w	r3, r3, r9
 8003234:	4543      	cmp	r3, r8
 8003236:	f77f af7a 	ble.w	800312e <_printf_float+0x242>
 800323a:	2301      	movs	r3, #1
 800323c:	4652      	mov	r2, sl
 800323e:	4631      	mov	r1, r6
 8003240:	4628      	mov	r0, r5
 8003242:	47b8      	blx	r7
 8003244:	3001      	adds	r0, #1
 8003246:	f43f aeac 	beq.w	8002fa2 <_printf_float+0xb6>
 800324a:	f108 0801 	add.w	r8, r8, #1
 800324e:	e7ec      	b.n	800322a <_printf_float+0x33e>
 8003250:	4613      	mov	r3, r2
 8003252:	4631      	mov	r1, r6
 8003254:	4642      	mov	r2, r8
 8003256:	4628      	mov	r0, r5
 8003258:	47b8      	blx	r7
 800325a:	3001      	adds	r0, #1
 800325c:	d1c0      	bne.n	80031e0 <_printf_float+0x2f4>
 800325e:	e6a0      	b.n	8002fa2 <_printf_float+0xb6>
 8003260:	2301      	movs	r3, #1
 8003262:	4631      	mov	r1, r6
 8003264:	4628      	mov	r0, r5
 8003266:	920b      	str	r2, [sp, #44]	; 0x2c
 8003268:	47b8      	blx	r7
 800326a:	3001      	adds	r0, #1
 800326c:	f43f ae99 	beq.w	8002fa2 <_printf_float+0xb6>
 8003270:	9a0b      	ldr	r2, [sp, #44]	; 0x2c
 8003272:	f10b 0b01 	add.w	fp, fp, #1
 8003276:	e7b9      	b.n	80031ec <_printf_float+0x300>
 8003278:	4631      	mov	r1, r6
 800327a:	e9dd 2309 	ldrd	r2, r3, [sp, #36]	; 0x24
 800327e:	4628      	mov	r0, r5
 8003280:	47b8      	blx	r7
 8003282:	3001      	adds	r0, #1
 8003284:	d1bf      	bne.n	8003206 <_printf_float+0x31a>
 8003286:	e68c      	b.n	8002fa2 <_printf_float+0xb6>
 8003288:	464b      	mov	r3, r9
 800328a:	4631      	mov	r1, r6
 800328c:	4628      	mov	r0, r5
 800328e:	eb08 020a 	add.w	r2, r8, sl
 8003292:	47b8      	blx	r7
 8003294:	3001      	adds	r0, #1
 8003296:	d1c2      	bne.n	800321e <_printf_float+0x332>
 8003298:	e683      	b.n	8002fa2 <_printf_float+0xb6>
 800329a:	9a0e      	ldr	r2, [sp, #56]	; 0x38
 800329c:	2a01      	cmp	r2, #1
 800329e:	dc01      	bgt.n	80032a4 <_printf_float+0x3b8>
 80032a0:	07db      	lsls	r3, r3, #31
 80032a2:	d539      	bpl.n	8003318 <_printf_float+0x42c>
 80032a4:	2301      	movs	r3, #1
 80032a6:	4642      	mov	r2, r8
 80032a8:	4631      	mov	r1, r6
 80032aa:	4628      	mov	r0, r5
 80032ac:	47b8      	blx	r7
 80032ae:	3001      	adds	r0, #1
 80032b0:	f43f ae77 	beq.w	8002fa2 <_printf_float+0xb6>
 80032b4:	e9dd 2309 	ldrd	r2, r3, [sp, #36]	; 0x24
 80032b8:	4631      	mov	r1, r6
 80032ba:	4628      	mov	r0, r5
 80032bc:	47b8      	blx	r7
 80032be:	3001      	adds	r0, #1
 80032c0:	f43f ae6f 	beq.w	8002fa2 <_printf_float+0xb6>
 80032c4:	e9d4 0112 	ldrd	r0, r1, [r4, #72]	; 0x48
 80032c8:	2200      	movs	r2, #0
 80032ca:	2300      	movs	r3, #0
 80032cc:	f8dd 9038 	ldr.w	r9, [sp, #56]	; 0x38
 80032d0:	f7fd fb74 	bl	80009bc <__aeabi_dcmpeq>
 80032d4:	b9d8      	cbnz	r0, 800330e <_printf_float+0x422>
 80032d6:	f109 33ff 	add.w	r3, r9, #4294967295
 80032da:	f108 0201 	add.w	r2, r8, #1
 80032de:	4631      	mov	r1, r6
 80032e0:	4628      	mov	r0, r5
 80032e2:	47b8      	blx	r7
 80032e4:	3001      	adds	r0, #1
 80032e6:	d10e      	bne.n	8003306 <_printf_float+0x41a>
 80032e8:	e65b      	b.n	8002fa2 <_printf_float+0xb6>
 80032ea:	2301      	movs	r3, #1
 80032ec:	464a      	mov	r2, r9
 80032ee:	4631      	mov	r1, r6
 80032f0:	4628      	mov	r0, r5
 80032f2:	47b8      	blx	r7
 80032f4:	3001      	adds	r0, #1
 80032f6:	f43f ae54 	beq.w	8002fa2 <_printf_float+0xb6>
 80032fa:	f108 0801 	add.w	r8, r8, #1
 80032fe:	9b0e      	ldr	r3, [sp, #56]	; 0x38
 8003300:	3b01      	subs	r3, #1
 8003302:	4543      	cmp	r3, r8
 8003304:	dcf1      	bgt.n	80032ea <_printf_float+0x3fe>
 8003306:	4653      	mov	r3, sl
 8003308:	f104 0250 	add.w	r2, r4, #80	; 0x50
 800330c:	e6de      	b.n	80030cc <_printf_float+0x1e0>
 800330e:	f04f 0800 	mov.w	r8, #0
 8003312:	f104 091a 	add.w	r9, r4, #26
 8003316:	e7f2      	b.n	80032fe <_printf_float+0x412>
 8003318:	2301      	movs	r3, #1
 800331a:	4642      	mov	r2, r8
 800331c:	e7df      	b.n	80032de <_printf_float+0x3f2>
 800331e:	2301      	movs	r3, #1
 8003320:	464a      	mov	r2, r9
 8003322:	4631      	mov	r1, r6
 8003324:	4628      	mov	r0, r5
 8003326:	47b8      	blx	r7
 8003328:	3001      	adds	r0, #1
 800332a:	f43f ae3a 	beq.w	8002fa2 <_printf_float+0xb6>
 800332e:	f108 0801 	add.w	r8, r8, #1
 8003332:	68e3      	ldr	r3, [r4, #12]
 8003334:	990f      	ldr	r1, [sp, #60]	; 0x3c
 8003336:	1a5b      	subs	r3, r3, r1
 8003338:	4543      	cmp	r3, r8
 800333a:	dcf0      	bgt.n	800331e <_printf_float+0x432>
 800333c:	e6fb      	b.n	8003136 <_printf_float+0x24a>
 800333e:	f04f 0800 	mov.w	r8, #0
 8003342:	f104 0919 	add.w	r9, r4, #25
 8003346:	e7f4      	b.n	8003332 <_printf_float+0x446>

08003348 <_printf_common>:
 8003348:	e92d 47f0 	stmdb	sp!, {r4, r5, r6, r7, r8, r9, sl, lr}
 800334c:	4616      	mov	r6, r2
 800334e:	4699      	mov	r9, r3
 8003350:	688a      	ldr	r2, [r1, #8]
 8003352:	690b      	ldr	r3, [r1, #16]
 8003354:	4607      	mov	r7, r0
 8003356:	4293      	cmp	r3, r2
 8003358:	bfb8      	it	lt
 800335a:	4613      	movlt	r3, r2
 800335c:	6033      	str	r3, [r6, #0]
 800335e:	f891 2043 	ldrb.w	r2, [r1, #67]	; 0x43
 8003362:	460c      	mov	r4, r1
 8003364:	f8dd 8020 	ldr.w	r8, [sp, #32]
 8003368:	b10a      	cbz	r2, 800336e <_printf_common+0x26>
 800336a:	3301      	adds	r3, #1
 800336c:	6033      	str	r3, [r6, #0]
 800336e:	6823      	ldr	r3, [r4, #0]
 8003370:	0699      	lsls	r1, r3, #26
 8003372:	bf42      	ittt	mi
 8003374:	6833      	ldrmi	r3, [r6, #0]
 8003376:	3302      	addmi	r3, #2
 8003378:	6033      	strmi	r3, [r6, #0]
 800337a:	6825      	ldr	r5, [r4, #0]
 800337c:	f015 0506 	ands.w	r5, r5, #6
 8003380:	d106      	bne.n	8003390 <_printf_common+0x48>
 8003382:	f104 0a19 	add.w	sl, r4, #25
 8003386:	68e3      	ldr	r3, [r4, #12]
 8003388:	6832      	ldr	r2, [r6, #0]
 800338a:	1a9b      	subs	r3, r3, r2
 800338c:	42ab      	cmp	r3, r5
 800338e:	dc2b      	bgt.n	80033e8 <_printf_common+0xa0>
 8003390:	f894 2043 	ldrb.w	r2, [r4, #67]	; 0x43
 8003394:	1e13      	subs	r3, r2, #0
 8003396:	6822      	ldr	r2, [r4, #0]
 8003398:	bf18      	it	ne
 800339a:	2301      	movne	r3, #1
 800339c:	0692      	lsls	r2, r2, #26
 800339e:	d430      	bmi.n	8003402 <_printf_common+0xba>
 80033a0:	4649      	mov	r1, r9
 80033a2:	4638      	mov	r0, r7
 80033a4:	f104 0243 	add.w	r2, r4, #67	; 0x43
 80033a8:	47c0      	blx	r8
 80033aa:	3001      	adds	r0, #1
 80033ac:	d023      	beq.n	80033f6 <_printf_common+0xae>
 80033ae:	6823      	ldr	r3, [r4, #0]
 80033b0:	6922      	ldr	r2, [r4, #16]
 80033b2:	f003 0306 	and.w	r3, r3, #6
 80033b6:	2b04      	cmp	r3, #4
 80033b8:	bf14      	ite	ne
 80033ba:	2500      	movne	r5, #0
 80033bc:	6833      	ldreq	r3, [r6, #0]
 80033be:	f04f 0600 	mov.w	r6, #0
 80033c2:	bf08      	it	eq
 80033c4:	68e5      	ldreq	r5, [r4, #12]
 80033c6:	f104 041a 	add.w	r4, r4, #26
 80033ca:	bf08      	it	eq
 80033cc:	1aed      	subeq	r5, r5, r3
 80033ce:	f854 3c12 	ldr.w	r3, [r4, #-18]
 80033d2:	bf08      	it	eq
 80033d4:	ea25 75e5 	biceq.w	r5, r5, r5, asr #31
 80033d8:	4293      	cmp	r3, r2
 80033da:	bfc4      	itt	gt
 80033dc:	1a9b      	subgt	r3, r3, r2
 80033de:	18ed      	addgt	r5, r5, r3
 80033e0:	42b5      	cmp	r5, r6
 80033e2:	d11a      	bne.n	800341a <_printf_common+0xd2>
 80033e4:	2000      	movs	r0, #0
 80033e6:	e008      	b.n	80033fa <_printf_common+0xb2>
 80033e8:	2301      	movs	r3, #1
 80033ea:	4652      	mov	r2, sl
 80033ec:	4649      	mov	r1, r9
 80033ee:	4638      	mov	r0, r7
 80033f0:	47c0      	blx	r8
 80033f2:	3001      	adds	r0, #1
 80033f4:	d103      	bne.n	80033fe <_printf_common+0xb6>
 80033f6:	f04f 30ff 	mov.w	r0, #4294967295
 80033fa:	e8bd 87f0 	ldmia.w	sp!, {r4, r5, r6, r7, r8, r9, sl, pc}
 80033fe:	3501      	adds	r5, #1
 8003400:	e7c1      	b.n	8003386 <_printf_common+0x3e>
 8003402:	2030      	movs	r0, #48	; 0x30
 8003404:	18e1      	adds	r1, r4, r3
 8003406:	f881 0043 	strb.w	r0, [r1, #67]	; 0x43
 800340a:	1c5a      	adds	r2, r3, #1
 800340c:	f894 1045 	ldrb.w	r1, [r4, #69]	; 0x45
 8003410:	4422      	add	r2, r4
 8003412:	3302      	adds	r3, #2
 8003414:	f882 1043 	strb.w	r1, [r2, #67]	; 0x43
 8003418:	e7c2      	b.n	80033a0 <_printf_common+0x58>
 800341a:	2301      	movs	r3, #1
 800341c:	4622      	mov	r2, r4
 800341e:	4649      	mov	r1, r9
 8003420:	4638      	mov	r0, r7
 8003422:	47c0      	blx	r8
 8003424:	3001      	adds	r0, #1
 8003426:	d0e6      	beq.n	80033f6 <_printf_common+0xae>
 8003428:	3601      	adds	r6, #1
 800342a:	e7d9      	b.n	80033e0 <_printf_common+0x98>

0800342c <_printf_i>:
 800342c:	e92d 47ff 	stmdb	sp!, {r0, r1, r2, r3, r4, r5, r6, r7, r8, r9, sl, lr}
 8003430:	7e0f      	ldrb	r7, [r1, #24]
 8003432:	4691      	mov	r9, r2
 8003434:	2f78      	cmp	r7, #120	; 0x78
 8003436:	4680      	mov	r8, r0
 8003438:	460c      	mov	r4, r1
 800343a:	469a      	mov	sl, r3
 800343c:	9d0c      	ldr	r5, [sp, #48]	; 0x30
 800343e:	f101 0243 	add.w	r2, r1, #67	; 0x43
 8003442:	d807      	bhi.n	8003454 <_printf_i+0x28>
 8003444:	2f62      	cmp	r7, #98	; 0x62
 8003446:	d80a      	bhi.n	800345e <_printf_i+0x32>
 8003448:	2f00      	cmp	r7, #0
 800344a:	f000 80d5 	beq.w	80035f8 <_printf_i+0x1cc>
 800344e:	2f58      	cmp	r7, #88	; 0x58
 8003450:	f000 80c1 	beq.w	80035d6 <_printf_i+0x1aa>
 8003454:	f104 0542 	add.w	r5, r4, #66	; 0x42
 8003458:	f884 7042 	strb.w	r7, [r4, #66]	; 0x42
 800345c:	e03a      	b.n	80034d4 <_printf_i+0xa8>
 800345e:	f1a7 0363 	sub.w	r3, r7, #99	; 0x63
 8003462:	2b15      	cmp	r3, #21
 8003464:	d8f6      	bhi.n	8003454 <_printf_i+0x28>
 8003466:	a101      	add	r1, pc, #4	; (adr r1, 800346c <_printf_i+0x40>)
 8003468:	f851 f023 	ldr.w	pc, [r1, r3, lsl #2]
 800346c:	080034c5 	.word	0x080034c5
 8003470:	080034d9 	.word	0x080034d9
 8003474:	08003455 	.word	0x08003455
 8003478:	08003455 	.word	0x08003455
 800347c:	08003455 	.word	0x08003455
 8003480:	08003455 	.word	0x08003455
 8003484:	080034d9 	.word	0x080034d9
 8003488:	08003455 	.word	0x08003455
 800348c:	08003455 	.word	0x08003455
 8003490:	08003455 	.word	0x08003455
 8003494:	08003455 	.word	0x08003455
 8003498:	080035df 	.word	0x080035df
 800349c:	08003505 	.word	0x08003505
 80034a0:	08003599 	.word	0x08003599
 80034a4:	08003455 	.word	0x08003455
 80034a8:	08003455 	.word	0x08003455
 80034ac:	08003601 	.word	0x08003601
 80034b0:	08003455 	.word	0x08003455
 80034b4:	08003505 	.word	0x08003505
 80034b8:	08003455 	.word	0x08003455
 80034bc:	08003455 	.word	0x08003455
 80034c0:	080035a1 	.word	0x080035a1
 80034c4:	682b      	ldr	r3, [r5, #0]
 80034c6:	1d1a      	adds	r2, r3, #4
 80034c8:	681b      	ldr	r3, [r3, #0]
 80034ca:	602a      	str	r2, [r5, #0]
 80034cc:	f104 0542 	add.w	r5, r4, #66	; 0x42
 80034d0:	f884 3042 	strb.w	r3, [r4, #66]	; 0x42
 80034d4:	2301      	movs	r3, #1
 80034d6:	e0a0      	b.n	800361a <_printf_i+0x1ee>
 80034d8:	6820      	ldr	r0, [r4, #0]
 80034da:	682b      	ldr	r3, [r5, #0]
 80034dc:	0607      	lsls	r7, r0, #24
 80034de:	f103 0104 	add.w	r1, r3, #4
 80034e2:	6029      	str	r1, [r5, #0]
 80034e4:	d501      	bpl.n	80034ea <_printf_i+0xbe>
 80034e6:	681e      	ldr	r6, [r3, #0]
 80034e8:	e003      	b.n	80034f2 <_printf_i+0xc6>
 80034ea:	0646      	lsls	r6, r0, #25
 80034ec:	d5fb      	bpl.n	80034e6 <_printf_i+0xba>
 80034ee:	f9b3 6000 	ldrsh.w	r6, [r3]
 80034f2:	2e00      	cmp	r6, #0
 80034f4:	da03      	bge.n	80034fe <_printf_i+0xd2>
 80034f6:	232d      	movs	r3, #45	; 0x2d
 80034f8:	4276      	negs	r6, r6
 80034fa:	f884 3043 	strb.w	r3, [r4, #67]	; 0x43
 80034fe:	230a      	movs	r3, #10
 8003500:	4859      	ldr	r0, [pc, #356]	; (8003668 <_printf_i+0x23c>)
 8003502:	e012      	b.n	800352a <_printf_i+0xfe>
 8003504:	682b      	ldr	r3, [r5, #0]
 8003506:	6820      	ldr	r0, [r4, #0]
 8003508:	1d19      	adds	r1, r3, #4
 800350a:	6029      	str	r1, [r5, #0]
 800350c:	0605      	lsls	r5, r0, #24
 800350e:	d501      	bpl.n	8003514 <_printf_i+0xe8>
 8003510:	681e      	ldr	r6, [r3, #0]
 8003512:	e002      	b.n	800351a <_printf_i+0xee>
 8003514:	0641      	lsls	r1, r0, #25
 8003516:	d5fb      	bpl.n	8003510 <_printf_i+0xe4>
 8003518:	881e      	ldrh	r6, [r3, #0]
 800351a:	2f6f      	cmp	r7, #111	; 0x6f
 800351c:	bf0c      	ite	eq
 800351e:	2308      	moveq	r3, #8
 8003520:	230a      	movne	r3, #10
 8003522:	4851      	ldr	r0, [pc, #324]	; (8003668 <_printf_i+0x23c>)
 8003524:	2100      	movs	r1, #0
 8003526:	f884 1043 	strb.w	r1, [r4, #67]	; 0x43
 800352a:	6865      	ldr	r5, [r4, #4]
 800352c:	2d00      	cmp	r5, #0
 800352e:	bfa8      	it	ge
 8003530:	6821      	ldrge	r1, [r4, #0]
 8003532:	60a5      	str	r5, [r4, #8]
 8003534:	bfa4      	itt	ge
 8003536:	f021 0104 	bicge.w	r1, r1, #4
 800353a:	6021      	strge	r1, [r4, #0]
 800353c:	b90e      	cbnz	r6, 8003542 <_printf_i+0x116>
 800353e:	2d00      	cmp	r5, #0
 8003540:	d04b      	beq.n	80035da <_printf_i+0x1ae>
 8003542:	4615      	mov	r5, r2
 8003544:	fbb6 f1f3 	udiv	r1, r6, r3
 8003548:	fb03 6711 	mls	r7, r3, r1, r6
 800354c:	5dc7      	ldrb	r7, [r0, r7]
 800354e:	f805 7d01 	strb.w	r7, [r5, #-1]!
 8003552:	4637      	mov	r7, r6
 8003554:	42bb      	cmp	r3, r7
 8003556:	460e      	mov	r6, r1
 8003558:	d9f4      	bls.n	8003544 <_printf_i+0x118>
 800355a:	2b08      	cmp	r3, #8
 800355c:	d10b      	bne.n	8003576 <_printf_i+0x14a>
 800355e:	6823      	ldr	r3, [r4, #0]
 8003560:	07de      	lsls	r6, r3, #31
 8003562:	d508      	bpl.n	8003576 <_printf_i+0x14a>
 8003564:	6923      	ldr	r3, [r4, #16]
 8003566:	6861      	ldr	r1, [r4, #4]
 8003568:	4299      	cmp	r1, r3
 800356a:	bfde      	ittt	le
 800356c:	2330      	movle	r3, #48	; 0x30
 800356e:	f805 3c01 	strble.w	r3, [r5, #-1]
 8003572:	f105 35ff 	addle.w	r5, r5, #4294967295
 8003576:	1b52      	subs	r2, r2, r5
 8003578:	6122      	str	r2, [r4, #16]
 800357a:	464b      	mov	r3, r9
 800357c:	4621      	mov	r1, r4
 800357e:	4640      	mov	r0, r8
 8003580:	f8cd a000 	str.w	sl, [sp]
 8003584:	aa03      	add	r2, sp, #12
 8003586:	f7ff fedf 	bl	8003348 <_printf_common>
 800358a:	3001      	adds	r0, #1
 800358c:	d14a      	bne.n	8003624 <_printf_i+0x1f8>
 800358e:	f04f 30ff 	mov.w	r0, #4294967295
 8003592:	b004      	add	sp, #16
 8003594:	e8bd 87f0 	ldmia.w	sp!, {r4, r5, r6, r7, r8, r9, sl, pc}
 8003598:	6823      	ldr	r3, [r4, #0]
 800359a:	f043 0320 	orr.w	r3, r3, #32
 800359e:	6023      	str	r3, [r4, #0]
 80035a0:	2778      	movs	r7, #120	; 0x78
 80035a2:	4832      	ldr	r0, [pc, #200]	; (800366c <_printf_i+0x240>)
 80035a4:	f884 7045 	strb.w	r7, [r4, #69]	; 0x45
 80035a8:	6823      	ldr	r3, [r4, #0]
 80035aa:	6829      	ldr	r1, [r5, #0]
 80035ac:	061f      	lsls	r7, r3, #24
 80035ae:	f851 6b04 	ldr.w	r6, [r1], #4
 80035b2:	d402      	bmi.n	80035ba <_printf_i+0x18e>
 80035b4:	065f      	lsls	r7, r3, #25
 80035b6:	bf48      	it	mi
 80035b8:	b2b6      	uxthmi	r6, r6
 80035ba:	07df      	lsls	r7, r3, #31
 80035bc:	bf48      	it	mi
 80035be:	f043 0320 	orrmi.w	r3, r3, #32
 80035c2:	6029      	str	r1, [r5, #0]
 80035c4:	bf48      	it	mi
 80035c6:	6023      	strmi	r3, [r4, #0]
 80035c8:	b91e      	cbnz	r6, 80035d2 <_printf_i+0x1a6>
 80035ca:	6823      	ldr	r3, [r4, #0]
 80035cc:	f023 0320 	bic.w	r3, r3, #32
 80035d0:	6023      	str	r3, [r4, #0]
 80035d2:	2310      	movs	r3, #16
 80035d4:	e7a6      	b.n	8003524 <_printf_i+0xf8>
 80035d6:	4824      	ldr	r0, [pc, #144]	; (8003668 <_printf_i+0x23c>)
 80035d8:	e7e4      	b.n	80035a4 <_printf_i+0x178>
 80035da:	4615      	mov	r5, r2
 80035dc:	e7bd      	b.n	800355a <_printf_i+0x12e>
 80035de:	682b      	ldr	r3, [r5, #0]
 80035e0:	6826      	ldr	r6, [r4, #0]
 80035e2:	1d18      	adds	r0, r3, #4
 80035e4:	6961      	ldr	r1, [r4, #20]
 80035e6:	6028      	str	r0, [r5, #0]
 80035e8:	0635      	lsls	r5, r6, #24
 80035ea:	681b      	ldr	r3, [r3, #0]
 80035ec:	d501      	bpl.n	80035f2 <_printf_i+0x1c6>
 80035ee:	6019      	str	r1, [r3, #0]
 80035f0:	e002      	b.n	80035f8 <_printf_i+0x1cc>
 80035f2:	0670      	lsls	r0, r6, #25
 80035f4:	d5fb      	bpl.n	80035ee <_printf_i+0x1c2>
 80035f6:	8019      	strh	r1, [r3, #0]
 80035f8:	2300      	movs	r3, #0
 80035fa:	4615      	mov	r5, r2
 80035fc:	6123      	str	r3, [r4, #16]
 80035fe:	e7bc      	b.n	800357a <_printf_i+0x14e>
 8003600:	682b      	ldr	r3, [r5, #0]
 8003602:	2100      	movs	r1, #0
 8003604:	1d1a      	adds	r2, r3, #4
 8003606:	602a      	str	r2, [r5, #0]
 8003608:	681d      	ldr	r5, [r3, #0]
 800360a:	6862      	ldr	r2, [r4, #4]
 800360c:	4628      	mov	r0, r5
 800360e:	f000 fa33 	bl	8003a78 <memchr>
 8003612:	b108      	cbz	r0, 8003618 <_printf_i+0x1ec>
 8003614:	1b40      	subs	r0, r0, r5
 8003616:	6060      	str	r0, [r4, #4]
 8003618:	6863      	ldr	r3, [r4, #4]
 800361a:	6123      	str	r3, [r4, #16]
 800361c:	2300      	movs	r3, #0
 800361e:	f884 3043 	strb.w	r3, [r4, #67]	; 0x43
 8003622:	e7aa      	b.n	800357a <_printf_i+0x14e>
 8003624:	462a      	mov	r2, r5
 8003626:	4649      	mov	r1, r9
 8003628:	4640      	mov	r0, r8
 800362a:	6923      	ldr	r3, [r4, #16]
 800362c:	47d0      	blx	sl
 800362e:	3001      	adds	r0, #1
 8003630:	d0ad      	beq.n	800358e <_printf_i+0x162>
 8003632:	6823      	ldr	r3, [r4, #0]
 8003634:	079b      	lsls	r3, r3, #30
 8003636:	d413      	bmi.n	8003660 <_printf_i+0x234>
 8003638:	68e0      	ldr	r0, [r4, #12]
 800363a:	9b03      	ldr	r3, [sp, #12]
 800363c:	4298      	cmp	r0, r3
 800363e:	bfb8      	it	lt
 8003640:	4618      	movlt	r0, r3
 8003642:	e7a6      	b.n	8003592 <_printf_i+0x166>
 8003644:	2301      	movs	r3, #1
 8003646:	4632      	mov	r2, r6
 8003648:	4649      	mov	r1, r9
 800364a:	4640      	mov	r0, r8
 800364c:	47d0      	blx	sl
 800364e:	3001      	adds	r0, #1
 8003650:	d09d      	beq.n	800358e <_printf_i+0x162>
 8003652:	3501      	adds	r5, #1
 8003654:	68e3      	ldr	r3, [r4, #12]
 8003656:	9903      	ldr	r1, [sp, #12]
 8003658:	1a5b      	subs	r3, r3, r1
 800365a:	42ab      	cmp	r3, r5
 800365c:	dcf2      	bgt.n	8003644 <_printf_i+0x218>
 800365e:	e7eb      	b.n	8003638 <_printf_i+0x20c>
 8003660:	2500      	movs	r5, #0
 8003662:	f104 0619 	add.w	r6, r4, #25
 8003666:	e7f5      	b.n	8003654 <_printf_i+0x228>
 8003668:	08006520 	.word	0x08006520
 800366c:	08006531 	.word	0x08006531

08003670 <std>:
 8003670:	2300      	movs	r3, #0
 8003672:	b510      	push	{r4, lr}
 8003674:	4604      	mov	r4, r0
 8003676:	e9c0 3300 	strd	r3, r3, [r0]
 800367a:	e9c0 3304 	strd	r3, r3, [r0, #16]
 800367e:	6083      	str	r3, [r0, #8]
 8003680:	8181      	strh	r1, [r0, #12]
 8003682:	6643      	str	r3, [r0, #100]	; 0x64
 8003684:	81c2      	strh	r2, [r0, #14]
 8003686:	6183      	str	r3, [r0, #24]
 8003688:	4619      	mov	r1, r3
 800368a:	2208      	movs	r2, #8
 800368c:	305c      	adds	r0, #92	; 0x5c
 800368e:	f000 f962 	bl	8003956 <memset>
 8003692:	4b05      	ldr	r3, [pc, #20]	; (80036a8 <std+0x38>)
 8003694:	6224      	str	r4, [r4, #32]
 8003696:	6263      	str	r3, [r4, #36]	; 0x24
 8003698:	4b04      	ldr	r3, [pc, #16]	; (80036ac <std+0x3c>)
 800369a:	62a3      	str	r3, [r4, #40]	; 0x28
 800369c:	4b04      	ldr	r3, [pc, #16]	; (80036b0 <std+0x40>)
 800369e:	62e3      	str	r3, [r4, #44]	; 0x2c
 80036a0:	4b04      	ldr	r3, [pc, #16]	; (80036b4 <std+0x44>)
 80036a2:	6323      	str	r3, [r4, #48]	; 0x30
 80036a4:	bd10      	pop	{r4, pc}
 80036a6:	bf00      	nop
 80036a8:	080038cd 	.word	0x080038cd
 80036ac:	080038f3 	.word	0x080038f3
 80036b0:	0800392b 	.word	0x0800392b
 80036b4:	0800394f 	.word	0x0800394f

080036b8 <stdio_exit_handler>:
 80036b8:	4a02      	ldr	r2, [pc, #8]	; (80036c4 <stdio_exit_handler+0xc>)
 80036ba:	4903      	ldr	r1, [pc, #12]	; (80036c8 <stdio_exit_handler+0x10>)
 80036bc:	4803      	ldr	r0, [pc, #12]	; (80036cc <stdio_exit_handler+0x14>)
 80036be:	f000 b869 	b.w	8003794 <_fwalk_sglue>
 80036c2:	bf00      	nop
 80036c4:	2000000c 	.word	0x2000000c
 80036c8:	08005a49 	.word	0x08005a49
 80036cc:	20000018 	.word	0x20000018

080036d0 <cleanup_stdio>:
 80036d0:	6841      	ldr	r1, [r0, #4]
 80036d2:	4b0c      	ldr	r3, [pc, #48]	; (8003704 <cleanup_stdio+0x34>)
 80036d4:	b510      	push	{r4, lr}
 80036d6:	4299      	cmp	r1, r3
 80036d8:	4604      	mov	r4, r0
 80036da:	d001      	beq.n	80036e0 <cleanup_stdio+0x10>
 80036dc:	f002 f9b4 	bl	8005a48 <_fflush_r>
 80036e0:	68a1      	ldr	r1, [r4, #8]
 80036e2:	4b09      	ldr	r3, [pc, #36]	; (8003708 <cleanup_stdio+0x38>)
 80036e4:	4299      	cmp	r1, r3
 80036e6:	d002      	beq.n	80036ee <cleanup_stdio+0x1e>
 80036e8:	4620      	mov	r0, r4
 80036ea:	f002 f9ad 	bl	8005a48 <_fflush_r>
 80036ee:	68e1      	ldr	r1, [r4, #12]
 80036f0:	4b06      	ldr	r3, [pc, #24]	; (800370c <cleanup_stdio+0x3c>)
 80036f2:	4299      	cmp	r1, r3
 80036f4:	d004      	beq.n	8003700 <cleanup_stdio+0x30>
 80036f6:	4620      	mov	r0, r4
 80036f8:	e8bd 4010 	ldmia.w	sp!, {r4, lr}
 80036fc:	f002 b9a4 	b.w	8005a48 <_fflush_r>
 8003700:	bd10      	pop	{r4, pc}
 8003702:	bf00      	nop
 8003704:	20000334 	.word	0x20000334
 8003708:	2000039c 	.word	0x2000039c
 800370c:	20000404 	.word	0x20000404

08003710 <global_stdio_init.part.0>:
 8003710:	b510      	push	{r4, lr}
 8003712:	4b0b      	ldr	r3, [pc, #44]	; (8003740 <global_stdio_init.part.0+0x30>)
 8003714:	4c0b      	ldr	r4, [pc, #44]	; (8003744 <global_stdio_init.part.0+0x34>)
 8003716:	4a0c      	ldr	r2, [pc, #48]	; (8003748 <global_stdio_init.part.0+0x38>)
 8003718:	4620      	mov	r0, r4
 800371a:	601a      	str	r2, [r3, #0]
 800371c:	2104      	movs	r1, #4
 800371e:	2200      	movs	r2, #0
 8003720:	f7ff ffa6 	bl	8003670 <std>
 8003724:	f104 0068 	add.w	r0, r4, #104	; 0x68
 8003728:	2201      	movs	r2, #1
 800372a:	2109      	movs	r1, #9
 800372c:	f7ff ffa0 	bl	8003670 <std>
 8003730:	f104 00d0 	add.w	r0, r4, #208	; 0xd0
 8003734:	2202      	movs	r2, #2
 8003736:	e8bd 4010 	ldmia.w	sp!, {r4, lr}
 800373a:	2112      	movs	r1, #18
 800373c:	f7ff bf98 	b.w	8003670 <std>
 8003740:	2000046c 	.word	0x2000046c
 8003744:	20000334 	.word	0x20000334
 8003748:	080036b9 	.word	0x080036b9

0800374c <__sfp_lock_acquire>:
 800374c:	4801      	ldr	r0, [pc, #4]	; (8003754 <__sfp_lock_acquire+0x8>)
 800374e:	f000 b991 	b.w	8003a74 <__retarget_lock_acquire_recursive>
 8003752:	bf00      	nop
 8003754:	20000475 	.word	0x20000475

08003758 <__sfp_lock_release>:
 8003758:	4801      	ldr	r0, [pc, #4]	; (8003760 <__sfp_lock_release+0x8>)
 800375a:	f000 b98c 	b.w	8003a76 <__retarget_lock_release_recursive>
 800375e:	bf00      	nop
 8003760:	20000475 	.word	0x20000475

08003764 <__sinit>:
 8003764:	b510      	push	{r4, lr}
 8003766:	4604      	mov	r4, r0
 8003768:	f7ff fff0 	bl	800374c <__sfp_lock_acquire>
 800376c:	6a23      	ldr	r3, [r4, #32]
 800376e:	b11b      	cbz	r3, 8003778 <__sinit+0x14>
 8003770:	e8bd 4010 	ldmia.w	sp!, {r4, lr}
 8003774:	f7ff bff0 	b.w	8003758 <__sfp_lock_release>
 8003778:	4b04      	ldr	r3, [pc, #16]	; (800378c <__sinit+0x28>)
 800377a:	6223      	str	r3, [r4, #32]
 800377c:	4b04      	ldr	r3, [pc, #16]	; (8003790 <__sinit+0x2c>)
 800377e:	681b      	ldr	r3, [r3, #0]
 8003780:	2b00      	cmp	r3, #0
 8003782:	d1f5      	bne.n	8003770 <__sinit+0xc>
 8003784:	f7ff ffc4 	bl	8003710 <global_stdio_init.part.0>
 8003788:	e7f2      	b.n	8003770 <__sinit+0xc>
 800378a:	bf00      	nop
 800378c:	080036d1 	.word	0x080036d1
 8003790:	2000046c 	.word	0x2000046c

08003794 <_fwalk_sglue>:
 8003794:	e92d 43f8 	stmdb	sp!, {r3, r4, r5, r6, r7, r8, r9, lr}
 8003798:	4607      	mov	r7, r0
 800379a:	4688      	mov	r8, r1
 800379c:	4614      	mov	r4, r2
 800379e:	2600      	movs	r6, #0
 80037a0:	e9d4 9501 	ldrd	r9, r5, [r4, #4]
 80037a4:	f1b9 0901 	subs.w	r9, r9, #1
 80037a8:	d505      	bpl.n	80037b6 <_fwalk_sglue+0x22>
 80037aa:	6824      	ldr	r4, [r4, #0]
 80037ac:	2c00      	cmp	r4, #0
 80037ae:	d1f7      	bne.n	80037a0 <_fwalk_sglue+0xc>
 80037b0:	4630      	mov	r0, r6
 80037b2:	e8bd 83f8 	ldmia.w	sp!, {r3, r4, r5, r6, r7, r8, r9, pc}
 80037b6:	89ab      	ldrh	r3, [r5, #12]
 80037b8:	2b01      	cmp	r3, #1
 80037ba:	d907      	bls.n	80037cc <_fwalk_sglue+0x38>
 80037bc:	f9b5 300e 	ldrsh.w	r3, [r5, #14]
 80037c0:	3301      	adds	r3, #1
 80037c2:	d003      	beq.n	80037cc <_fwalk_sglue+0x38>
 80037c4:	4629      	mov	r1, r5
 80037c6:	4638      	mov	r0, r7
 80037c8:	47c0      	blx	r8
 80037ca:	4306      	orrs	r6, r0
 80037cc:	3568      	adds	r5, #104	; 0x68
 80037ce:	e7e9      	b.n	80037a4 <_fwalk_sglue+0x10>

080037d0 <sniprintf>:
 80037d0:	b40c      	push	{r2, r3}
 80037d2:	b530      	push	{r4, r5, lr}
 80037d4:	4b17      	ldr	r3, [pc, #92]	; (8003834 <sniprintf+0x64>)
 80037d6:	1e0c      	subs	r4, r1, #0
 80037d8:	681d      	ldr	r5, [r3, #0]
 80037da:	b09d      	sub	sp, #116	; 0x74
 80037dc:	da08      	bge.n	80037f0 <sniprintf+0x20>
 80037de:	238b      	movs	r3, #139	; 0x8b
 80037e0:	f04f 30ff 	mov.w	r0, #4294967295
 80037e4:	602b      	str	r3, [r5, #0]
 80037e6:	b01d      	add	sp, #116	; 0x74
 80037e8:	e8bd 4030 	ldmia.w	sp!, {r4, r5, lr}
 80037ec:	b002      	add	sp, #8
 80037ee:	4770      	bx	lr
 80037f0:	f44f 7302 	mov.w	r3, #520	; 0x208
 80037f4:	f8ad 3014 	strh.w	r3, [sp, #20]
 80037f8:	bf0c      	ite	eq
 80037fa:	4623      	moveq	r3, r4
 80037fc:	f104 33ff 	addne.w	r3, r4, #4294967295
 8003800:	9304      	str	r3, [sp, #16]
 8003802:	9307      	str	r3, [sp, #28]
 8003804:	f64f 73ff 	movw	r3, #65535	; 0xffff
 8003808:	9002      	str	r0, [sp, #8]
 800380a:	9006      	str	r0, [sp, #24]
 800380c:	f8ad 3016 	strh.w	r3, [sp, #22]
 8003810:	4628      	mov	r0, r5
 8003812:	ab21      	add	r3, sp, #132	; 0x84
 8003814:	9a20      	ldr	r2, [sp, #128]	; 0x80
 8003816:	a902      	add	r1, sp, #8
 8003818:	9301      	str	r3, [sp, #4]
 800381a:	f001 fc77 	bl	800510c <_svfiprintf_r>
 800381e:	1c43      	adds	r3, r0, #1
 8003820:	bfbc      	itt	lt
 8003822:	238b      	movlt	r3, #139	; 0x8b
 8003824:	602b      	strlt	r3, [r5, #0]
 8003826:	2c00      	cmp	r4, #0
 8003828:	d0dd      	beq.n	80037e6 <sniprintf+0x16>
 800382a:	2200      	movs	r2, #0
 800382c:	9b02      	ldr	r3, [sp, #8]
 800382e:	701a      	strb	r2, [r3, #0]
 8003830:	e7d9      	b.n	80037e6 <sniprintf+0x16>
 8003832:	bf00      	nop
 8003834:	20000064 	.word	0x20000064

08003838 <siprintf>:
 8003838:	b40e      	push	{r1, r2, r3}
 800383a:	f06f 4100 	mvn.w	r1, #2147483648	; 0x80000000
 800383e:	b500      	push	{lr}
 8003840:	b09c      	sub	sp, #112	; 0x70
 8003842:	ab1d      	add	r3, sp, #116	; 0x74
 8003844:	9002      	str	r0, [sp, #8]
 8003846:	9006      	str	r0, [sp, #24]
 8003848:	9107      	str	r1, [sp, #28]
 800384a:	9104      	str	r1, [sp, #16]
 800384c:	4808      	ldr	r0, [pc, #32]	; (8003870 <siprintf+0x38>)
 800384e:	4909      	ldr	r1, [pc, #36]	; (8003874 <siprintf+0x3c>)
 8003850:	f853 2b04 	ldr.w	r2, [r3], #4
 8003854:	9105      	str	r1, [sp, #20]
 8003856:	6800      	ldr	r0, [r0, #0]
 8003858:	a902      	add	r1, sp, #8
 800385a:	9301      	str	r3, [sp, #4]
 800385c:	f001 fc56 	bl	800510c <_svfiprintf_r>
 8003860:	2200      	movs	r2, #0
 8003862:	9b02      	ldr	r3, [sp, #8]
 8003864:	701a      	strb	r2, [r3, #0]
 8003866:	b01c      	add	sp, #112	; 0x70
 8003868:	f85d eb04 	ldr.w	lr, [sp], #4
 800386c:	b003      	add	sp, #12
 800386e:	4770      	bx	lr
 8003870:	20000064 	.word	0x20000064
 8003874:	ffff0208 	.word	0xffff0208

08003878 <siscanf>:
 8003878:	b40e      	push	{r1, r2, r3}
 800387a:	f44f 7201 	mov.w	r2, #516	; 0x204
 800387e:	b530      	push	{r4, r5, lr}
 8003880:	b09c      	sub	sp, #112	; 0x70
 8003882:	ac1f      	add	r4, sp, #124	; 0x7c
 8003884:	f854 5b04 	ldr.w	r5, [r4], #4
 8003888:	f8ad 2014 	strh.w	r2, [sp, #20]
 800388c:	9002      	str	r0, [sp, #8]
 800388e:	9006      	str	r0, [sp, #24]
 8003890:	f7fc fc68 	bl	8000164 <strlen>
 8003894:	4b0b      	ldr	r3, [pc, #44]	; (80038c4 <siscanf+0x4c>)
 8003896:	9003      	str	r0, [sp, #12]
 8003898:	930b      	str	r3, [sp, #44]	; 0x2c
 800389a:	2300      	movs	r3, #0
 800389c:	930f      	str	r3, [sp, #60]	; 0x3c
 800389e:	9314      	str	r3, [sp, #80]	; 0x50
 80038a0:	f64f 73ff 	movw	r3, #65535	; 0xffff
 80038a4:	9007      	str	r0, [sp, #28]
 80038a6:	4808      	ldr	r0, [pc, #32]	; (80038c8 <siscanf+0x50>)
 80038a8:	f8ad 3016 	strh.w	r3, [sp, #22]
 80038ac:	462a      	mov	r2, r5
 80038ae:	4623      	mov	r3, r4
 80038b0:	a902      	add	r1, sp, #8
 80038b2:	6800      	ldr	r0, [r0, #0]
 80038b4:	9401      	str	r4, [sp, #4]
 80038b6:	f001 fd81 	bl	80053bc <__ssvfiscanf_r>
 80038ba:	b01c      	add	sp, #112	; 0x70
 80038bc:	e8bd 4030 	ldmia.w	sp!, {r4, r5, lr}
 80038c0:	b003      	add	sp, #12
 80038c2:	4770      	bx	lr
 80038c4:	080038ef 	.word	0x080038ef
 80038c8:	20000064 	.word	0x20000064

080038cc <__sread>:
 80038cc:	b510      	push	{r4, lr}
 80038ce:	460c      	mov	r4, r1
 80038d0:	f9b1 100e 	ldrsh.w	r1, [r1, #14]
 80038d4:	f000 f880 	bl	80039d8 <_read_r>
 80038d8:	2800      	cmp	r0, #0
 80038da:	bfab      	itete	ge
 80038dc:	6d63      	ldrge	r3, [r4, #84]	; 0x54
 80038de:	89a3      	ldrhlt	r3, [r4, #12]
 80038e0:	181b      	addge	r3, r3, r0
 80038e2:	f423 5380 	biclt.w	r3, r3, #4096	; 0x1000
 80038e6:	bfac      	ite	ge
 80038e8:	6563      	strge	r3, [r4, #84]	; 0x54
 80038ea:	81a3      	strhlt	r3, [r4, #12]
 80038ec:	bd10      	pop	{r4, pc}

080038ee <__seofread>:
 80038ee:	2000      	movs	r0, #0
 80038f0:	4770      	bx	lr

080038f2 <__swrite>:
 80038f2:	e92d 41f0 	stmdb	sp!, {r4, r5, r6, r7, r8, lr}
 80038f6:	461f      	mov	r7, r3
 80038f8:	898b      	ldrh	r3, [r1, #12]
 80038fa:	4605      	mov	r5, r0
 80038fc:	05db      	lsls	r3, r3, #23
 80038fe:	460c      	mov	r4, r1
 8003900:	4616      	mov	r6, r2
 8003902:	d505      	bpl.n	8003910 <__swrite+0x1e>
 8003904:	2302      	movs	r3, #2
 8003906:	2200      	movs	r2, #0
 8003908:	f9b1 100e 	ldrsh.w	r1, [r1, #14]
 800390c:	f000 f852 	bl	80039b4 <_lseek_r>
 8003910:	89a3      	ldrh	r3, [r4, #12]
 8003912:	4632      	mov	r2, r6
 8003914:	f423 5380 	bic.w	r3, r3, #4096	; 0x1000
 8003918:	81a3      	strh	r3, [r4, #12]
 800391a:	4628      	mov	r0, r5
 800391c:	463b      	mov	r3, r7
 800391e:	f9b4 100e 	ldrsh.w	r1, [r4, #14]
 8003922:	e8bd 41f0 	ldmia.w	sp!, {r4, r5, r6, r7, r8, lr}
 8003926:	f000 b869 	b.w	80039fc <_write_r>

0800392a <__sseek>:
 800392a:	b510      	push	{r4, lr}
 800392c:	460c      	mov	r4, r1
 800392e:	f9b1 100e 	ldrsh.w	r1, [r1, #14]
 8003932:	f000 f83f 	bl	80039b4 <_lseek_r>
 8003936:	1c43      	adds	r3, r0, #1
 8003938:	89a3      	ldrh	r3, [r4, #12]
 800393a:	bf15      	itete	ne
 800393c:	6560      	strne	r0, [r4, #84]	; 0x54
 800393e:	f423 5380 	biceq.w	r3, r3, #4096	; 0x1000
 8003942:	f443 5380 	orrne.w	r3, r3, #4096	; 0x1000
 8003946:	81a3      	strheq	r3, [r4, #12]
 8003948:	bf18      	it	ne
 800394a:	81a3      	strhne	r3, [r4, #12]
 800394c:	bd10      	pop	{r4, pc}

0800394e <__sclose>:
 800394e:	f9b1 100e 	ldrsh.w	r1, [r1, #14]
 8003952:	f000 b81f 	b.w	8003994 <_close_r>

08003956 <memset>:
 8003956:	4603      	mov	r3, r0
 8003958:	4402      	add	r2, r0
 800395a:	4293      	cmp	r3, r2
 800395c:	d100      	bne.n	8003960 <memset+0xa>
 800395e:	4770      	bx	lr
 8003960:	f803 1b01 	strb.w	r1, [r3], #1
 8003964:	e7f9      	b.n	800395a <memset+0x4>

08003966 <strncmp>:
 8003966:	b510      	push	{r4, lr}
 8003968:	b16a      	cbz	r2, 8003986 <strncmp+0x20>
 800396a:	3901      	subs	r1, #1
 800396c:	1884      	adds	r4, r0, r2
 800396e:	f810 2b01 	ldrb.w	r2, [r0], #1
 8003972:	f811 3f01 	ldrb.w	r3, [r1, #1]!
 8003976:	429a      	cmp	r2, r3
 8003978:	d103      	bne.n	8003982 <strncmp+0x1c>
 800397a:	42a0      	cmp	r0, r4
 800397c:	d001      	beq.n	8003982 <strncmp+0x1c>
 800397e:	2a00      	cmp	r2, #0
 8003980:	d1f5      	bne.n	800396e <strncmp+0x8>
 8003982:	1ad0      	subs	r0, r2, r3
 8003984:	bd10      	pop	{r4, pc}
 8003986:	4610      	mov	r0, r2
 8003988:	e7fc      	b.n	8003984 <strncmp+0x1e>
	...

0800398c <_localeconv_r>:
 800398c:	4800      	ldr	r0, [pc, #0]	; (8003990 <_localeconv_r+0x4>)
 800398e:	4770      	bx	lr
 8003990:	20000158 	.word	0x20000158

08003994 <_close_r>:
 8003994:	b538      	push	{r3, r4, r5, lr}
 8003996:	2300      	movs	r3, #0
 8003998:	4d05      	ldr	r5, [pc, #20]	; (80039b0 <_close_r+0x1c>)
 800399a:	4604      	mov	r4, r0
 800399c:	4608      	mov	r0, r1
 800399e:	602b      	str	r3, [r5, #0]
 80039a0:	f7fd fc32 	bl	8001208 <_close>
 80039a4:	1c43      	adds	r3, r0, #1
 80039a6:	d102      	bne.n	80039ae <_close_r+0x1a>
 80039a8:	682b      	ldr	r3, [r5, #0]
 80039aa:	b103      	cbz	r3, 80039ae <_close_r+0x1a>
 80039ac:	6023      	str	r3, [r4, #0]
 80039ae:	bd38      	pop	{r3, r4, r5, pc}
 80039b0:	20000470 	.word	0x20000470

080039b4 <_lseek_r>:
 80039b4:	b538      	push	{r3, r4, r5, lr}
 80039b6:	4604      	mov	r4, r0
 80039b8:	4608      	mov	r0, r1
 80039ba:	4611      	mov	r1, r2
 80039bc:	2200      	movs	r2, #0
 80039be:	4d05      	ldr	r5, [pc, #20]	; (80039d4 <_lseek_r+0x20>)
 80039c0:	602a      	str	r2, [r5, #0]
 80039c2:	461a      	mov	r2, r3
 80039c4:	f7fd fc2a 	bl	800121c <_lseek>
 80039c8:	1c43      	adds	r3, r0, #1
 80039ca:	d102      	bne.n	80039d2 <_lseek_r+0x1e>
 80039cc:	682b      	ldr	r3, [r5, #0]
 80039ce:	b103      	cbz	r3, 80039d2 <_lseek_r+0x1e>
 80039d0:	6023      	str	r3, [r4, #0]
 80039d2:	bd38      	pop	{r3, r4, r5, pc}
 80039d4:	20000470 	.word	0x20000470

080039d8 <_read_r>:
 80039d8:	b538      	push	{r3, r4, r5, lr}
 80039da:	4604      	mov	r4, r0
 80039dc:	4608      	mov	r0, r1
 80039de:	4611      	mov	r1, r2
 80039e0:	2200      	movs	r2, #0
 80039e2:	4d05      	ldr	r5, [pc, #20]	; (80039f8 <_read_r+0x20>)
 80039e4:	602a      	str	r2, [r5, #0]
 80039e6:	461a      	mov	r2, r3
 80039e8:	f7fd fbf2 	bl	80011d0 <_read>
 80039ec:	1c43      	adds	r3, r0, #1
 80039ee:	d102      	bne.n	80039f6 <_read_r+0x1e>
 80039f0:	682b      	ldr	r3, [r5, #0]
 80039f2:	b103      	cbz	r3, 80039f6 <_read_r+0x1e>
 80039f4:	6023      	str	r3, [r4, #0]
 80039f6:	bd38      	pop	{r3, r4, r5, pc}
 80039f8:	20000470 	.word	0x20000470

080039fc <_write_r>:
 80039fc:	b538      	push	{r3, r4, r5, lr}
 80039fe:	4604      	mov	r4, r0
 8003a00:	4608      	mov	r0, r1
 8003a02:	4611      	mov	r1, r2
 8003a04:	2200      	movs	r2, #0
 8003a06:	4d05      	ldr	r5, [pc, #20]	; (8003a1c <_write_r+0x20>)
 8003a08:	602a      	str	r2, [r5, #0]
 8003a0a:	461a      	mov	r2, r3
 8003a0c:	f7fd fbee 	bl	80011ec <_write>
 8003a10:	1c43      	adds	r3, r0, #1
 8003a12:	d102      	bne.n	8003a1a <_write_r+0x1e>
 8003a14:	682b      	ldr	r3, [r5, #0]
 8003a16:	b103      	cbz	r3, 8003a1a <_write_r+0x1e>
 8003a18:	6023      	str	r3, [r4, #0]
 8003a1a:	bd38      	pop	{r3, r4, r5, pc}
 8003a1c:	20000470 	.word	0x20000470

08003a20 <__errno>:
 8003a20:	4b01      	ldr	r3, [pc, #4]	; (8003a28 <__errno+0x8>)
 8003a22:	6818      	ldr	r0, [r3, #0]
 8003a24:	4770      	bx	lr
 8003a26:	bf00      	nop
 8003a28:	20000064 	.word	0x20000064

08003a2c <__libc_init_array>:
 8003a2c:	b570      	push	{r4, r5, r6, lr}
 8003a2e:	2600      	movs	r6, #0
 8003a30:	4d0c      	ldr	r5, [pc, #48]	; (8003a64 <__libc_init_array+0x38>)
 8003a32:	4c0d      	ldr	r4, [pc, #52]	; (8003a68 <__libc_init_array+0x3c>)
 8003a34:	1b64      	subs	r4, r4, r5
 8003a36:	10a4      	asrs	r4, r4, #2
 8003a38:	42a6      	cmp	r6, r4
 8003a3a:	d109      	bne.n	8003a50 <__libc_init_array+0x24>
 8003a3c:	f002 fd0c 	bl	8006458 <_init>
 8003a40:	2600      	movs	r6, #0
 8003a42:	4d0a      	ldr	r5, [pc, #40]	; (8003a6c <__libc_init_array+0x40>)
 8003a44:	4c0a      	ldr	r4, [pc, #40]	; (8003a70 <__libc_init_array+0x44>)
 8003a46:	1b64      	subs	r4, r4, r5
 8003a48:	10a4      	asrs	r4, r4, #2
 8003a4a:	42a6      	cmp	r6, r4
 8003a4c:	d105      	bne.n	8003a5a <__libc_init_array+0x2e>
 8003a4e:	bd70      	pop	{r4, r5, r6, pc}
 8003a50:	f855 3b04 	ldr.w	r3, [r5], #4
 8003a54:	4798      	blx	r3
 8003a56:	3601      	adds	r6, #1
 8003a58:	e7ee      	b.n	8003a38 <__libc_init_array+0xc>
 8003a5a:	f855 3b04 	ldr.w	r3, [r5], #4
 8003a5e:	4798      	blx	r3
 8003a60:	3601      	adds	r6, #1
 8003a62:	e7f2      	b.n	8003a4a <__libc_init_array+0x1e>
 8003a64:	08006898 	.word	0x08006898
 8003a68:	08006898 	.word	0x08006898
 8003a6c:	08006898 	.word	0x08006898
 8003a70:	0800689c 	.word	0x0800689c

08003a74 <__retarget_lock_acquire_recursive>:
 8003a74:	4770      	bx	lr

08003a76 <__retarget_lock_release_recursive>:
 8003a76:	4770      	bx	lr

08003a78 <memchr>:
 8003a78:	4603      	mov	r3, r0
 8003a7a:	b510      	push	{r4, lr}
 8003a7c:	b2c9      	uxtb	r1, r1
 8003a7e:	4402      	add	r2, r0
 8003a80:	4293      	cmp	r3, r2
 8003a82:	4618      	mov	r0, r3
 8003a84:	d101      	bne.n	8003a8a <memchr+0x12>
 8003a86:	2000      	movs	r0, #0
 8003a88:	e003      	b.n	8003a92 <memchr+0x1a>
 8003a8a:	7804      	ldrb	r4, [r0, #0]
 8003a8c:	3301      	adds	r3, #1
 8003a8e:	428c      	cmp	r4, r1
 8003a90:	d1f6      	bne.n	8003a80 <memchr+0x8>
 8003a92:	bd10      	pop	{r4, pc}

08003a94 <quorem>:
 8003a94:	e92d 4ff7 	stmdb	sp!, {r0, r1, r2, r4, r5, r6, r7, r8, r9, sl, fp, lr}
 8003a98:	6903      	ldr	r3, [r0, #16]
 8003a9a:	690c      	ldr	r4, [r1, #16]
 8003a9c:	4607      	mov	r7, r0
 8003a9e:	42a3      	cmp	r3, r4
 8003aa0:	db7f      	blt.n	8003ba2 <quorem+0x10e>
 8003aa2:	3c01      	subs	r4, #1
 8003aa4:	f100 0514 	add.w	r5, r0, #20
 8003aa8:	f101 0814 	add.w	r8, r1, #20
 8003aac:	eb05 0384 	add.w	r3, r5, r4, lsl #2
 8003ab0:	9301      	str	r3, [sp, #4]
 8003ab2:	f858 3024 	ldr.w	r3, [r8, r4, lsl #2]
 8003ab6:	f855 2024 	ldr.w	r2, [r5, r4, lsl #2]
 8003aba:	3301      	adds	r3, #1
 8003abc:	429a      	cmp	r2, r3
 8003abe:	fbb2 f6f3 	udiv	r6, r2, r3
 8003ac2:	ea4f 0b84 	mov.w	fp, r4, lsl #2
 8003ac6:	eb08 0984 	add.w	r9, r8, r4, lsl #2
 8003aca:	d331      	bcc.n	8003b30 <quorem+0x9c>
 8003acc:	f04f 0e00 	mov.w	lr, #0
 8003ad0:	4640      	mov	r0, r8
 8003ad2:	46ac      	mov	ip, r5
 8003ad4:	46f2      	mov	sl, lr
 8003ad6:	f850 2b04 	ldr.w	r2, [r0], #4
 8003ada:	b293      	uxth	r3, r2
 8003adc:	fb06 e303 	mla	r3, r6, r3, lr
 8003ae0:	ea4f 4e12 	mov.w	lr, r2, lsr #16
 8003ae4:	0c1a      	lsrs	r2, r3, #16
 8003ae6:	b29b      	uxth	r3, r3
 8003ae8:	fb06 220e 	mla	r2, r6, lr, r2
 8003aec:	ebaa 0303 	sub.w	r3, sl, r3
 8003af0:	f8dc a000 	ldr.w	sl, [ip]
 8003af4:	ea4f 4e12 	mov.w	lr, r2, lsr #16
 8003af8:	fa1f fa8a 	uxth.w	sl, sl
 8003afc:	4453      	add	r3, sl
 8003afe:	f8dc a000 	ldr.w	sl, [ip]
 8003b02:	b292      	uxth	r2, r2
 8003b04:	ebc2 421a 	rsb	r2, r2, sl, lsr #16
 8003b08:	eb02 4223 	add.w	r2, r2, r3, asr #16
 8003b0c:	b29b      	uxth	r3, r3
 8003b0e:	ea43 4302 	orr.w	r3, r3, r2, lsl #16
 8003b12:	4581      	cmp	r9, r0
 8003b14:	ea4f 4a22 	mov.w	sl, r2, asr #16
 8003b18:	f84c 3b04 	str.w	r3, [ip], #4
 8003b1c:	d2db      	bcs.n	8003ad6 <quorem+0x42>
 8003b1e:	f855 300b 	ldr.w	r3, [r5, fp]
 8003b22:	b92b      	cbnz	r3, 8003b30 <quorem+0x9c>
 8003b24:	9b01      	ldr	r3, [sp, #4]
 8003b26:	3b04      	subs	r3, #4
 8003b28:	429d      	cmp	r5, r3
 8003b2a:	461a      	mov	r2, r3
 8003b2c:	d32d      	bcc.n	8003b8a <quorem+0xf6>
 8003b2e:	613c      	str	r4, [r7, #16]
 8003b30:	4638      	mov	r0, r7
 8003b32:	f001 f993 	bl	8004e5c <__mcmp>
 8003b36:	2800      	cmp	r0, #0
 8003b38:	db23      	blt.n	8003b82 <quorem+0xee>
 8003b3a:	4629      	mov	r1, r5
 8003b3c:	2000      	movs	r0, #0
 8003b3e:	3601      	adds	r6, #1
 8003b40:	f858 2b04 	ldr.w	r2, [r8], #4
 8003b44:	f8d1 c000 	ldr.w	ip, [r1]
 8003b48:	b293      	uxth	r3, r2
 8003b4a:	1ac3      	subs	r3, r0, r3
 8003b4c:	0c12      	lsrs	r2, r2, #16
 8003b4e:	fa1f f08c 	uxth.w	r0, ip
 8003b52:	4403      	add	r3, r0
 8003b54:	ebc2 421c 	rsb	r2, r2, ip, lsr #16
 8003b58:	eb02 4223 	add.w	r2, r2, r3, asr #16
 8003b5c:	b29b      	uxth	r3, r3
 8003b5e:	ea43 4302 	orr.w	r3, r3, r2, lsl #16
 8003b62:	45c1      	cmp	r9, r8
 8003b64:	ea4f 4022 	mov.w	r0, r2, asr #16
 8003b68:	f841 3b04 	str.w	r3, [r1], #4
 8003b6c:	d2e8      	bcs.n	8003b40 <quorem+0xac>
 8003b6e:	f855 2024 	ldr.w	r2, [r5, r4, lsl #2]
 8003b72:	eb05 0384 	add.w	r3, r5, r4, lsl #2
 8003b76:	b922      	cbnz	r2, 8003b82 <quorem+0xee>
 8003b78:	3b04      	subs	r3, #4
 8003b7a:	429d      	cmp	r5, r3
 8003b7c:	461a      	mov	r2, r3
 8003b7e:	d30a      	bcc.n	8003b96 <quorem+0x102>
 8003b80:	613c      	str	r4, [r7, #16]
 8003b82:	4630      	mov	r0, r6
 8003b84:	b003      	add	sp, #12
 8003b86:	e8bd 8ff0 	ldmia.w	sp!, {r4, r5, r6, r7, r8, r9, sl, fp, pc}
 8003b8a:	6812      	ldr	r2, [r2, #0]
 8003b8c:	3b04      	subs	r3, #4
 8003b8e:	2a00      	cmp	r2, #0
 8003b90:	d1cd      	bne.n	8003b2e <quorem+0x9a>
 8003b92:	3c01      	subs	r4, #1
 8003b94:	e7c8      	b.n	8003b28 <quorem+0x94>
 8003b96:	6812      	ldr	r2, [r2, #0]
 8003b98:	3b04      	subs	r3, #4
 8003b9a:	2a00      	cmp	r2, #0
 8003b9c:	d1f0      	bne.n	8003b80 <quorem+0xec>
 8003b9e:	3c01      	subs	r4, #1
 8003ba0:	e7eb      	b.n	8003b7a <quorem+0xe6>
 8003ba2:	2000      	movs	r0, #0
 8003ba4:	e7ee      	b.n	8003b84 <quorem+0xf0>
	...

08003ba8 <_dtoa_r>:
 8003ba8:	e92d 4ff0 	stmdb	sp!, {r4, r5, r6, r7, r8, r9, sl, fp, lr}
 8003bac:	4616      	mov	r6, r2
 8003bae:	461f      	mov	r7, r3
 8003bb0:	69c4      	ldr	r4, [r0, #28]
 8003bb2:	b099      	sub	sp, #100	; 0x64
 8003bb4:	4605      	mov	r5, r0
 8003bb6:	e9cd 6704 	strd	r6, r7, [sp, #16]
 8003bba:	f8dd 8094 	ldr.w	r8, [sp, #148]	; 0x94
 8003bbe:	b974      	cbnz	r4, 8003bde <_dtoa_r+0x36>
 8003bc0:	2010      	movs	r0, #16
 8003bc2:	f000 fe1d 	bl	8004800 <malloc>
 8003bc6:	4602      	mov	r2, r0
 8003bc8:	61e8      	str	r0, [r5, #28]
 8003bca:	b920      	cbnz	r0, 8003bd6 <_dtoa_r+0x2e>
 8003bcc:	21ef      	movs	r1, #239	; 0xef
 8003bce:	4bac      	ldr	r3, [pc, #688]	; (8003e80 <_dtoa_r+0x2d8>)
 8003bd0:	48ac      	ldr	r0, [pc, #688]	; (8003e84 <_dtoa_r+0x2dc>)
 8003bd2:	f002 f80b 	bl	8005bec <__assert_func>
 8003bd6:	e9c0 4401 	strd	r4, r4, [r0, #4]
 8003bda:	6004      	str	r4, [r0, #0]
 8003bdc:	60c4      	str	r4, [r0, #12]
 8003bde:	69eb      	ldr	r3, [r5, #28]
 8003be0:	6819      	ldr	r1, [r3, #0]
 8003be2:	b151      	cbz	r1, 8003bfa <_dtoa_r+0x52>
 8003be4:	685a      	ldr	r2, [r3, #4]
 8003be6:	2301      	movs	r3, #1
 8003be8:	4093      	lsls	r3, r2
 8003bea:	604a      	str	r2, [r1, #4]
 8003bec:	608b      	str	r3, [r1, #8]
 8003bee:	4628      	mov	r0, r5
 8003bf0:	f000 fefa 	bl	80049e8 <_Bfree>
 8003bf4:	2200      	movs	r2, #0
 8003bf6:	69eb      	ldr	r3, [r5, #28]
 8003bf8:	601a      	str	r2, [r3, #0]
 8003bfa:	1e3b      	subs	r3, r7, #0
 8003bfc:	bfaf      	iteee	ge
 8003bfe:	2300      	movge	r3, #0
 8003c00:	2201      	movlt	r2, #1
 8003c02:	f023 4300 	biclt.w	r3, r3, #2147483648	; 0x80000000
 8003c06:	9305      	strlt	r3, [sp, #20]
 8003c08:	bfa8      	it	ge
 8003c0a:	f8c8 3000 	strge.w	r3, [r8]
 8003c0e:	f8dd 9014 	ldr.w	r9, [sp, #20]
 8003c12:	4b9d      	ldr	r3, [pc, #628]	; (8003e88 <_dtoa_r+0x2e0>)
 8003c14:	bfb8      	it	lt
 8003c16:	f8c8 2000 	strlt.w	r2, [r8]
 8003c1a:	ea33 0309 	bics.w	r3, r3, r9
 8003c1e:	d119      	bne.n	8003c54 <_dtoa_r+0xac>
 8003c20:	f242 730f 	movw	r3, #9999	; 0x270f
 8003c24:	9a24      	ldr	r2, [sp, #144]	; 0x90
 8003c26:	6013      	str	r3, [r2, #0]
 8003c28:	f3c9 0313 	ubfx	r3, r9, #0, #20
 8003c2c:	4333      	orrs	r3, r6
 8003c2e:	f000 8589 	beq.w	8004744 <_dtoa_r+0xb9c>
 8003c32:	9b26      	ldr	r3, [sp, #152]	; 0x98
 8003c34:	b953      	cbnz	r3, 8003c4c <_dtoa_r+0xa4>
 8003c36:	4b95      	ldr	r3, [pc, #596]	; (8003e8c <_dtoa_r+0x2e4>)
 8003c38:	e023      	b.n	8003c82 <_dtoa_r+0xda>
 8003c3a:	4b95      	ldr	r3, [pc, #596]	; (8003e90 <_dtoa_r+0x2e8>)
 8003c3c:	9303      	str	r3, [sp, #12]
 8003c3e:	3308      	adds	r3, #8
 8003c40:	9a26      	ldr	r2, [sp, #152]	; 0x98
 8003c42:	6013      	str	r3, [r2, #0]
 8003c44:	9803      	ldr	r0, [sp, #12]
 8003c46:	b019      	add	sp, #100	; 0x64
 8003c48:	e8bd 8ff0 	ldmia.w	sp!, {r4, r5, r6, r7, r8, r9, sl, fp, pc}
 8003c4c:	4b8f      	ldr	r3, [pc, #572]	; (8003e8c <_dtoa_r+0x2e4>)
 8003c4e:	9303      	str	r3, [sp, #12]
 8003c50:	3303      	adds	r3, #3
 8003c52:	e7f5      	b.n	8003c40 <_dtoa_r+0x98>
 8003c54:	e9dd 3404 	ldrd	r3, r4, [sp, #16]
 8003c58:	e9cd 340c 	strd	r3, r4, [sp, #48]	; 0x30
 8003c5c:	e9dd 010c 	ldrd	r0, r1, [sp, #48]	; 0x30
 8003c60:	2200      	movs	r2, #0
 8003c62:	2300      	movs	r3, #0
 8003c64:	f7fc feaa 	bl	80009bc <__aeabi_dcmpeq>
 8003c68:	4680      	mov	r8, r0
 8003c6a:	b160      	cbz	r0, 8003c86 <_dtoa_r+0xde>
 8003c6c:	2301      	movs	r3, #1
 8003c6e:	9a24      	ldr	r2, [sp, #144]	; 0x90
 8003c70:	6013      	str	r3, [r2, #0]
 8003c72:	9b26      	ldr	r3, [sp, #152]	; 0x98
 8003c74:	2b00      	cmp	r3, #0
 8003c76:	f000 8562 	beq.w	800473e <_dtoa_r+0xb96>
 8003c7a:	4b86      	ldr	r3, [pc, #536]	; (8003e94 <_dtoa_r+0x2ec>)
 8003c7c:	9a26      	ldr	r2, [sp, #152]	; 0x98
 8003c7e:	6013      	str	r3, [r2, #0]
 8003c80:	3b01      	subs	r3, #1
 8003c82:	9303      	str	r3, [sp, #12]
 8003c84:	e7de      	b.n	8003c44 <_dtoa_r+0x9c>
 8003c86:	ab16      	add	r3, sp, #88	; 0x58
 8003c88:	9301      	str	r3, [sp, #4]
 8003c8a:	ab17      	add	r3, sp, #92	; 0x5c
 8003c8c:	9300      	str	r3, [sp, #0]
 8003c8e:	4628      	mov	r0, r5
 8003c90:	e9dd 230c 	ldrd	r2, r3, [sp, #48]	; 0x30
 8003c94:	f001 f98a 	bl	8004fac <__d2b>
 8003c98:	f3c9 540a 	ubfx	r4, r9, #20, #11
 8003c9c:	4682      	mov	sl, r0
 8003c9e:	2c00      	cmp	r4, #0
 8003ca0:	d07e      	beq.n	8003da0 <_dtoa_r+0x1f8>
 8003ca2:	e9dd 010c 	ldrd	r0, r1, [sp, #48]	; 0x30
 8003ca6:	9b0d      	ldr	r3, [sp, #52]	; 0x34
 8003ca8:	f2a4 34ff 	subw	r4, r4, #1023	; 0x3ff
 8003cac:	f3c3 0313 	ubfx	r3, r3, #0, #20
 8003cb0:	f043 537f 	orr.w	r3, r3, #1069547520	; 0x3fc00000
 8003cb4:	f443 1340 	orr.w	r3, r3, #3145728	; 0x300000
 8003cb8:	f8cd 804c 	str.w	r8, [sp, #76]	; 0x4c
 8003cbc:	4619      	mov	r1, r3
 8003cbe:	2200      	movs	r2, #0
 8003cc0:	4b75      	ldr	r3, [pc, #468]	; (8003e98 <_dtoa_r+0x2f0>)
 8003cc2:	f7fc fa5b 	bl	800017c <__aeabi_dsub>
 8003cc6:	a368      	add	r3, pc, #416	; (adr r3, 8003e68 <_dtoa_r+0x2c0>)
 8003cc8:	e9d3 2300 	ldrd	r2, r3, [r3]
 8003ccc:	f7fc fc0e 	bl	80004ec <__aeabi_dmul>
 8003cd0:	a367      	add	r3, pc, #412	; (adr r3, 8003e70 <_dtoa_r+0x2c8>)
 8003cd2:	e9d3 2300 	ldrd	r2, r3, [r3]
 8003cd6:	f7fc fa53 	bl	8000180 <__adddf3>
 8003cda:	4606      	mov	r6, r0
 8003cdc:	4620      	mov	r0, r4
 8003cde:	460f      	mov	r7, r1
 8003ce0:	f7fc fb9a 	bl	8000418 <__aeabi_i2d>
 8003ce4:	a364      	add	r3, pc, #400	; (adr r3, 8003e78 <_dtoa_r+0x2d0>)
 8003ce6:	e9d3 2300 	ldrd	r2, r3, [r3]
 8003cea:	f7fc fbff 	bl	80004ec <__aeabi_dmul>
 8003cee:	4602      	mov	r2, r0
 8003cf0:	460b      	mov	r3, r1
 8003cf2:	4630      	mov	r0, r6
 8003cf4:	4639      	mov	r1, r7
 8003cf6:	f7fc fa43 	bl	8000180 <__adddf3>
 8003cfa:	4606      	mov	r6, r0
 8003cfc:	460f      	mov	r7, r1
 8003cfe:	f7fc fea5 	bl	8000a4c <__aeabi_d2iz>
 8003d02:	2200      	movs	r2, #0
 8003d04:	4683      	mov	fp, r0
 8003d06:	2300      	movs	r3, #0
 8003d08:	4630      	mov	r0, r6
 8003d0a:	4639      	mov	r1, r7
 8003d0c:	f7fc fe60 	bl	80009d0 <__aeabi_dcmplt>
 8003d10:	b148      	cbz	r0, 8003d26 <_dtoa_r+0x17e>
 8003d12:	4658      	mov	r0, fp
 8003d14:	f7fc fb80 	bl	8000418 <__aeabi_i2d>
 8003d18:	4632      	mov	r2, r6
 8003d1a:	463b      	mov	r3, r7
 8003d1c:	f7fc fe4e 	bl	80009bc <__aeabi_dcmpeq>
 8003d20:	b908      	cbnz	r0, 8003d26 <_dtoa_r+0x17e>
 8003d22:	f10b 3bff 	add.w	fp, fp, #4294967295
 8003d26:	f1bb 0f16 	cmp.w	fp, #22
 8003d2a:	d857      	bhi.n	8003ddc <_dtoa_r+0x234>
 8003d2c:	e9dd 010c 	ldrd	r0, r1, [sp, #48]	; 0x30
 8003d30:	4b5a      	ldr	r3, [pc, #360]	; (8003e9c <_dtoa_r+0x2f4>)
 8003d32:	eb03 03cb 	add.w	r3, r3, fp, lsl #3
 8003d36:	e9d3 2300 	ldrd	r2, r3, [r3]
 8003d3a:	f7fc fe49 	bl	80009d0 <__aeabi_dcmplt>
 8003d3e:	2800      	cmp	r0, #0
 8003d40:	d04e      	beq.n	8003de0 <_dtoa_r+0x238>
 8003d42:	2300      	movs	r3, #0
 8003d44:	f10b 3bff 	add.w	fp, fp, #4294967295
 8003d48:	930f      	str	r3, [sp, #60]	; 0x3c
 8003d4a:	9b16      	ldr	r3, [sp, #88]	; 0x58
 8003d4c:	1b1b      	subs	r3, r3, r4
 8003d4e:	1e5a      	subs	r2, r3, #1
 8003d50:	bf46      	itte	mi
 8003d52:	f1c3 0901 	rsbmi	r9, r3, #1
 8003d56:	2300      	movmi	r3, #0
 8003d58:	f04f 0900 	movpl.w	r9, #0
 8003d5c:	9209      	str	r2, [sp, #36]	; 0x24
 8003d5e:	bf48      	it	mi
 8003d60:	9309      	strmi	r3, [sp, #36]	; 0x24
 8003d62:	f1bb 0f00 	cmp.w	fp, #0
 8003d66:	db3d      	blt.n	8003de4 <_dtoa_r+0x23c>
 8003d68:	9b09      	ldr	r3, [sp, #36]	; 0x24
 8003d6a:	f8cd b038 	str.w	fp, [sp, #56]	; 0x38
 8003d6e:	445b      	add	r3, fp
 8003d70:	9309      	str	r3, [sp, #36]	; 0x24
 8003d72:	2300      	movs	r3, #0
 8003d74:	930a      	str	r3, [sp, #40]	; 0x28
 8003d76:	9b22      	ldr	r3, [sp, #136]	; 0x88
 8003d78:	2b09      	cmp	r3, #9
 8003d7a:	d867      	bhi.n	8003e4c <_dtoa_r+0x2a4>
 8003d7c:	2b05      	cmp	r3, #5
 8003d7e:	bfc4      	itt	gt
 8003d80:	3b04      	subgt	r3, #4
 8003d82:	9322      	strgt	r3, [sp, #136]	; 0x88
 8003d84:	9b22      	ldr	r3, [sp, #136]	; 0x88
 8003d86:	bfc8      	it	gt
 8003d88:	2400      	movgt	r4, #0
 8003d8a:	f1a3 0302 	sub.w	r3, r3, #2
 8003d8e:	bfd8      	it	le
 8003d90:	2401      	movle	r4, #1
 8003d92:	2b03      	cmp	r3, #3
 8003d94:	f200 8086 	bhi.w	8003ea4 <_dtoa_r+0x2fc>
 8003d98:	e8df f003 	tbb	[pc, r3]
 8003d9c:	5637392c 	.word	0x5637392c
 8003da0:	e9dd 4316 	ldrd	r4, r3, [sp, #88]	; 0x58
 8003da4:	441c      	add	r4, r3
 8003da6:	f204 4332 	addw	r3, r4, #1074	; 0x432
 8003daa:	2b20      	cmp	r3, #32
 8003dac:	bfc1      	itttt	gt
 8003dae:	f1c3 0340 	rsbgt	r3, r3, #64	; 0x40
 8003db2:	fa09 f903 	lslgt.w	r9, r9, r3
 8003db6:	f204 4312 	addwgt	r3, r4, #1042	; 0x412
 8003dba:	fa26 f303 	lsrgt.w	r3, r6, r3
 8003dbe:	bfd6      	itet	le
 8003dc0:	f1c3 0320 	rsble	r3, r3, #32
 8003dc4:	ea49 0003 	orrgt.w	r0, r9, r3
 8003dc8:	fa06 f003 	lslle.w	r0, r6, r3
 8003dcc:	f7fc fb14 	bl	80003f8 <__aeabi_ui2d>
 8003dd0:	2201      	movs	r2, #1
 8003dd2:	f1a1 73f8 	sub.w	r3, r1, #32505856	; 0x1f00000
 8003dd6:	3c01      	subs	r4, #1
 8003dd8:	9213      	str	r2, [sp, #76]	; 0x4c
 8003dda:	e76f      	b.n	8003cbc <_dtoa_r+0x114>
 8003ddc:	2301      	movs	r3, #1
 8003dde:	e7b3      	b.n	8003d48 <_dtoa_r+0x1a0>
 8003de0:	900f      	str	r0, [sp, #60]	; 0x3c
 8003de2:	e7b2      	b.n	8003d4a <_dtoa_r+0x1a2>
 8003de4:	f1cb 0300 	rsb	r3, fp, #0
 8003de8:	930a      	str	r3, [sp, #40]	; 0x28
 8003dea:	2300      	movs	r3, #0
 8003dec:	eba9 090b 	sub.w	r9, r9, fp
 8003df0:	930e      	str	r3, [sp, #56]	; 0x38
 8003df2:	e7c0      	b.n	8003d76 <_dtoa_r+0x1ce>
 8003df4:	2300      	movs	r3, #0
 8003df6:	930b      	str	r3, [sp, #44]	; 0x2c
 8003df8:	9b23      	ldr	r3, [sp, #140]	; 0x8c
 8003dfa:	2b00      	cmp	r3, #0
 8003dfc:	dc55      	bgt.n	8003eaa <_dtoa_r+0x302>
 8003dfe:	2301      	movs	r3, #1
 8003e00:	461a      	mov	r2, r3
 8003e02:	9306      	str	r3, [sp, #24]
 8003e04:	9308      	str	r3, [sp, #32]
 8003e06:	9223      	str	r2, [sp, #140]	; 0x8c
 8003e08:	e00b      	b.n	8003e22 <_dtoa_r+0x27a>
 8003e0a:	2301      	movs	r3, #1
 8003e0c:	e7f3      	b.n	8003df6 <_dtoa_r+0x24e>
 8003e0e:	2300      	movs	r3, #0
 8003e10:	930b      	str	r3, [sp, #44]	; 0x2c
 8003e12:	9b23      	ldr	r3, [sp, #140]	; 0x8c
 8003e14:	445b      	add	r3, fp
 8003e16:	9306      	str	r3, [sp, #24]
 8003e18:	3301      	adds	r3, #1
 8003e1a:	2b01      	cmp	r3, #1
 8003e1c:	9308      	str	r3, [sp, #32]
 8003e1e:	bfb8      	it	lt
 8003e20:	2301      	movlt	r3, #1
 8003e22:	2100      	movs	r1, #0
 8003e24:	2204      	movs	r2, #4
 8003e26:	69e8      	ldr	r0, [r5, #28]
 8003e28:	f102 0614 	add.w	r6, r2, #20
 8003e2c:	429e      	cmp	r6, r3
 8003e2e:	d940      	bls.n	8003eb2 <_dtoa_r+0x30a>
 8003e30:	6041      	str	r1, [r0, #4]
 8003e32:	4628      	mov	r0, r5
 8003e34:	f000 fd98 	bl	8004968 <_Balloc>
 8003e38:	9003      	str	r0, [sp, #12]
 8003e3a:	2800      	cmp	r0, #0
 8003e3c:	d13c      	bne.n	8003eb8 <_dtoa_r+0x310>
 8003e3e:	4602      	mov	r2, r0
 8003e40:	f240 11af 	movw	r1, #431	; 0x1af
 8003e44:	4b16      	ldr	r3, [pc, #88]	; (8003ea0 <_dtoa_r+0x2f8>)
 8003e46:	e6c3      	b.n	8003bd0 <_dtoa_r+0x28>
 8003e48:	2301      	movs	r3, #1
 8003e4a:	e7e1      	b.n	8003e10 <_dtoa_r+0x268>
 8003e4c:	2401      	movs	r4, #1
 8003e4e:	2300      	movs	r3, #0
 8003e50:	940b      	str	r4, [sp, #44]	; 0x2c
 8003e52:	9322      	str	r3, [sp, #136]	; 0x88
 8003e54:	f04f 33ff 	mov.w	r3, #4294967295
 8003e58:	2200      	movs	r2, #0
 8003e5a:	9306      	str	r3, [sp, #24]
 8003e5c:	9308      	str	r3, [sp, #32]
 8003e5e:	2312      	movs	r3, #18
 8003e60:	e7d1      	b.n	8003e06 <_dtoa_r+0x25e>
 8003e62:	bf00      	nop
 8003e64:	f3af 8000 	nop.w
 8003e68:	636f4361 	.word	0x636f4361
 8003e6c:	3fd287a7 	.word	0x3fd287a7
 8003e70:	8b60c8b3 	.word	0x8b60c8b3
 8003e74:	3fc68a28 	.word	0x3fc68a28
 8003e78:	509f79fb 	.word	0x509f79fb
 8003e7c:	3fd34413 	.word	0x3fd34413
 8003e80:	0800654f 	.word	0x0800654f
 8003e84:	08006566 	.word	0x08006566
 8003e88:	7ff00000 	.word	0x7ff00000
 8003e8c:	0800654b 	.word	0x0800654b
 8003e90:	08006542 	.word	0x08006542
 8003e94:	0800674c 	.word	0x0800674c
 8003e98:	3ff80000 	.word	0x3ff80000
 8003e9c:	08006650 	.word	0x08006650
 8003ea0:	080065be 	.word	0x080065be
 8003ea4:	2301      	movs	r3, #1
 8003ea6:	930b      	str	r3, [sp, #44]	; 0x2c
 8003ea8:	e7d4      	b.n	8003e54 <_dtoa_r+0x2ac>
 8003eaa:	9b23      	ldr	r3, [sp, #140]	; 0x8c
 8003eac:	9306      	str	r3, [sp, #24]
 8003eae:	9308      	str	r3, [sp, #32]
 8003eb0:	e7b7      	b.n	8003e22 <_dtoa_r+0x27a>
 8003eb2:	3101      	adds	r1, #1
 8003eb4:	0052      	lsls	r2, r2, #1
 8003eb6:	e7b7      	b.n	8003e28 <_dtoa_r+0x280>
 8003eb8:	69eb      	ldr	r3, [r5, #28]
 8003eba:	9a03      	ldr	r2, [sp, #12]
 8003ebc:	601a      	str	r2, [r3, #0]
 8003ebe:	9b08      	ldr	r3, [sp, #32]
 8003ec0:	2b0e      	cmp	r3, #14
 8003ec2:	f200 80a8 	bhi.w	8004016 <_dtoa_r+0x46e>
 8003ec6:	2c00      	cmp	r4, #0
 8003ec8:	f000 80a5 	beq.w	8004016 <_dtoa_r+0x46e>
 8003ecc:	f1bb 0f00 	cmp.w	fp, #0
 8003ed0:	dd34      	ble.n	8003f3c <_dtoa_r+0x394>
 8003ed2:	4b9a      	ldr	r3, [pc, #616]	; (800413c <_dtoa_r+0x594>)
 8003ed4:	f00b 020f 	and.w	r2, fp, #15
 8003ed8:	eb03 03c2 	add.w	r3, r3, r2, lsl #3
 8003edc:	f41b 7f80 	tst.w	fp, #256	; 0x100
 8003ee0:	e9d3 3400 	ldrd	r3, r4, [r3]
 8003ee4:	e9cd 3410 	strd	r3, r4, [sp, #64]	; 0x40
 8003ee8:	ea4f 142b 	mov.w	r4, fp, asr #4
 8003eec:	d016      	beq.n	8003f1c <_dtoa_r+0x374>
 8003eee:	e9dd 010c 	ldrd	r0, r1, [sp, #48]	; 0x30
 8003ef2:	4b93      	ldr	r3, [pc, #588]	; (8004140 <_dtoa_r+0x598>)
 8003ef4:	2703      	movs	r7, #3
 8003ef6:	e9d3 2308 	ldrd	r2, r3, [r3, #32]
 8003efa:	f7fc fc21 	bl	8000740 <__aeabi_ddiv>
 8003efe:	e9cd 0104 	strd	r0, r1, [sp, #16]
 8003f02:	f004 040f 	and.w	r4, r4, #15
 8003f06:	4e8e      	ldr	r6, [pc, #568]	; (8004140 <_dtoa_r+0x598>)
 8003f08:	b954      	cbnz	r4, 8003f20 <_dtoa_r+0x378>
 8003f0a:	e9dd 2310 	ldrd	r2, r3, [sp, #64]	; 0x40
 8003f0e:	e9dd 0104 	ldrd	r0, r1, [sp, #16]
 8003f12:	f7fc fc15 	bl	8000740 <__aeabi_ddiv>
 8003f16:	e9cd 0104 	strd	r0, r1, [sp, #16]
 8003f1a:	e029      	b.n	8003f70 <_dtoa_r+0x3c8>
 8003f1c:	2702      	movs	r7, #2
 8003f1e:	e7f2      	b.n	8003f06 <_dtoa_r+0x35e>
 8003f20:	07e1      	lsls	r1, r4, #31
 8003f22:	d508      	bpl.n	8003f36 <_dtoa_r+0x38e>
 8003f24:	e9dd 0110 	ldrd	r0, r1, [sp, #64]	; 0x40
 8003f28:	e9d6 2300 	ldrd	r2, r3, [r6]
 8003f2c:	f7fc fade 	bl	80004ec <__aeabi_dmul>
 8003f30:	e9cd 0110 	strd	r0, r1, [sp, #64]	; 0x40
 8003f34:	3701      	adds	r7, #1
 8003f36:	1064      	asrs	r4, r4, #1
 8003f38:	3608      	adds	r6, #8
 8003f3a:	e7e5      	b.n	8003f08 <_dtoa_r+0x360>
 8003f3c:	f000 80a5 	beq.w	800408a <_dtoa_r+0x4e2>
 8003f40:	e9dd 010c 	ldrd	r0, r1, [sp, #48]	; 0x30
 8003f44:	f1cb 0400 	rsb	r4, fp, #0
 8003f48:	4b7c      	ldr	r3, [pc, #496]	; (800413c <_dtoa_r+0x594>)
 8003f4a:	f004 020f 	and.w	r2, r4, #15
 8003f4e:	eb03 03c2 	add.w	r3, r3, r2, lsl #3
 8003f52:	e9d3 2300 	ldrd	r2, r3, [r3]
 8003f56:	f7fc fac9 	bl	80004ec <__aeabi_dmul>
 8003f5a:	2702      	movs	r7, #2
 8003f5c:	2300      	movs	r3, #0
 8003f5e:	e9cd 0104 	strd	r0, r1, [sp, #16]
 8003f62:	4e77      	ldr	r6, [pc, #476]	; (8004140 <_dtoa_r+0x598>)
 8003f64:	1124      	asrs	r4, r4, #4
 8003f66:	2c00      	cmp	r4, #0
 8003f68:	f040 8084 	bne.w	8004074 <_dtoa_r+0x4cc>
 8003f6c:	2b00      	cmp	r3, #0
 8003f6e:	d1d2      	bne.n	8003f16 <_dtoa_r+0x36e>
 8003f70:	e9dd 3404 	ldrd	r3, r4, [sp, #16]
 8003f74:	e9cd 3410 	strd	r3, r4, [sp, #64]	; 0x40
 8003f78:	9b0f      	ldr	r3, [sp, #60]	; 0x3c
 8003f7a:	2b00      	cmp	r3, #0
 8003f7c:	f000 8087 	beq.w	800408e <_dtoa_r+0x4e6>
 8003f80:	e9dd 0110 	ldrd	r0, r1, [sp, #64]	; 0x40
 8003f84:	2200      	movs	r2, #0
 8003f86:	4b6f      	ldr	r3, [pc, #444]	; (8004144 <_dtoa_r+0x59c>)
 8003f88:	f7fc fd22 	bl	80009d0 <__aeabi_dcmplt>
 8003f8c:	2800      	cmp	r0, #0
 8003f8e:	d07e      	beq.n	800408e <_dtoa_r+0x4e6>
 8003f90:	9b08      	ldr	r3, [sp, #32]
 8003f92:	2b00      	cmp	r3, #0
 8003f94:	d07b      	beq.n	800408e <_dtoa_r+0x4e6>
 8003f96:	9b06      	ldr	r3, [sp, #24]
 8003f98:	2b00      	cmp	r3, #0
 8003f9a:	dd38      	ble.n	800400e <_dtoa_r+0x466>
 8003f9c:	e9dd 0110 	ldrd	r0, r1, [sp, #64]	; 0x40
 8003fa0:	2200      	movs	r2, #0
 8003fa2:	4b69      	ldr	r3, [pc, #420]	; (8004148 <_dtoa_r+0x5a0>)
 8003fa4:	f7fc faa2 	bl	80004ec <__aeabi_dmul>
 8003fa8:	e9cd 0104 	strd	r0, r1, [sp, #16]
 8003fac:	9c06      	ldr	r4, [sp, #24]
 8003fae:	f10b 38ff 	add.w	r8, fp, #4294967295
 8003fb2:	3701      	adds	r7, #1
 8003fb4:	4638      	mov	r0, r7
 8003fb6:	f7fc fa2f 	bl	8000418 <__aeabi_i2d>
 8003fba:	e9dd 2304 	ldrd	r2, r3, [sp, #16]
 8003fbe:	f7fc fa95 	bl	80004ec <__aeabi_dmul>
 8003fc2:	2200      	movs	r2, #0
 8003fc4:	4b61      	ldr	r3, [pc, #388]	; (800414c <_dtoa_r+0x5a4>)
 8003fc6:	f7fc f8db 	bl	8000180 <__adddf3>
 8003fca:	f1a1 7650 	sub.w	r6, r1, #54525952	; 0x3400000
 8003fce:	e9cd 0110 	strd	r0, r1, [sp, #64]	; 0x40
 8003fd2:	9611      	str	r6, [sp, #68]	; 0x44
 8003fd4:	2c00      	cmp	r4, #0
 8003fd6:	d15d      	bne.n	8004094 <_dtoa_r+0x4ec>
 8003fd8:	e9dd 0104 	ldrd	r0, r1, [sp, #16]
 8003fdc:	2200      	movs	r2, #0
 8003fde:	4b5c      	ldr	r3, [pc, #368]	; (8004150 <_dtoa_r+0x5a8>)
 8003fe0:	f7fc f8cc 	bl	800017c <__aeabi_dsub>
 8003fe4:	4602      	mov	r2, r0
 8003fe6:	460b      	mov	r3, r1
 8003fe8:	e9cd 2304 	strd	r2, r3, [sp, #16]
 8003fec:	4633      	mov	r3, r6
 8003fee:	9a10      	ldr	r2, [sp, #64]	; 0x40
 8003ff0:	f7fc fd0c 	bl	8000a0c <__aeabi_dcmpgt>
 8003ff4:	2800      	cmp	r0, #0
 8003ff6:	f040 8295 	bne.w	8004524 <_dtoa_r+0x97c>
 8003ffa:	e9dd 0104 	ldrd	r0, r1, [sp, #16]
 8003ffe:	9a10      	ldr	r2, [sp, #64]	; 0x40
 8004000:	f106 4300 	add.w	r3, r6, #2147483648	; 0x80000000
 8004004:	f7fc fce4 	bl	80009d0 <__aeabi_dcmplt>
 8004008:	2800      	cmp	r0, #0
 800400a:	f040 8289 	bne.w	8004520 <_dtoa_r+0x978>
 800400e:	e9dd 340c 	ldrd	r3, r4, [sp, #48]	; 0x30
 8004012:	e9cd 3404 	strd	r3, r4, [sp, #16]
 8004016:	9b17      	ldr	r3, [sp, #92]	; 0x5c
 8004018:	2b00      	cmp	r3, #0
 800401a:	f2c0 8151 	blt.w	80042c0 <_dtoa_r+0x718>
 800401e:	f1bb 0f0e 	cmp.w	fp, #14
 8004022:	f300 814d 	bgt.w	80042c0 <_dtoa_r+0x718>
 8004026:	4b45      	ldr	r3, [pc, #276]	; (800413c <_dtoa_r+0x594>)
 8004028:	eb03 03cb 	add.w	r3, r3, fp, lsl #3
 800402c:	e9d3 3400 	ldrd	r3, r4, [r3]
 8004030:	e9cd 3406 	strd	r3, r4, [sp, #24]
 8004034:	9b23      	ldr	r3, [sp, #140]	; 0x8c
 8004036:	2b00      	cmp	r3, #0
 8004038:	f280 80da 	bge.w	80041f0 <_dtoa_r+0x648>
 800403c:	9b08      	ldr	r3, [sp, #32]
 800403e:	2b00      	cmp	r3, #0
 8004040:	f300 80d6 	bgt.w	80041f0 <_dtoa_r+0x648>
 8004044:	f040 826b 	bne.w	800451e <_dtoa_r+0x976>
 8004048:	e9dd 0106 	ldrd	r0, r1, [sp, #24]
 800404c:	2200      	movs	r2, #0
 800404e:	4b40      	ldr	r3, [pc, #256]	; (8004150 <_dtoa_r+0x5a8>)
 8004050:	f7fc fa4c 	bl	80004ec <__aeabi_dmul>
 8004054:	e9dd 2304 	ldrd	r2, r3, [sp, #16]
 8004058:	f7fc fcce 	bl	80009f8 <__aeabi_dcmpge>
 800405c:	9c08      	ldr	r4, [sp, #32]
 800405e:	4626      	mov	r6, r4
 8004060:	2800      	cmp	r0, #0
 8004062:	f040 8241 	bne.w	80044e8 <_dtoa_r+0x940>
 8004066:	2331      	movs	r3, #49	; 0x31
 8004068:	9f03      	ldr	r7, [sp, #12]
 800406a:	f10b 0b01 	add.w	fp, fp, #1
 800406e:	f807 3b01 	strb.w	r3, [r7], #1
 8004072:	e23d      	b.n	80044f0 <_dtoa_r+0x948>
 8004074:	07e2      	lsls	r2, r4, #31
 8004076:	d505      	bpl.n	8004084 <_dtoa_r+0x4dc>
 8004078:	e9d6 2300 	ldrd	r2, r3, [r6]
 800407c:	f7fc fa36 	bl	80004ec <__aeabi_dmul>
 8004080:	2301      	movs	r3, #1
 8004082:	3701      	adds	r7, #1
 8004084:	1064      	asrs	r4, r4, #1
 8004086:	3608      	adds	r6, #8
 8004088:	e76d      	b.n	8003f66 <_dtoa_r+0x3be>
 800408a:	2702      	movs	r7, #2
 800408c:	e770      	b.n	8003f70 <_dtoa_r+0x3c8>
 800408e:	46d8      	mov	r8, fp
 8004090:	9c08      	ldr	r4, [sp, #32]
 8004092:	e78f      	b.n	8003fb4 <_dtoa_r+0x40c>
 8004094:	9903      	ldr	r1, [sp, #12]
 8004096:	4b29      	ldr	r3, [pc, #164]	; (800413c <_dtoa_r+0x594>)
 8004098:	4421      	add	r1, r4
 800409a:	9112      	str	r1, [sp, #72]	; 0x48
 800409c:	990b      	ldr	r1, [sp, #44]	; 0x2c
 800409e:	eb03 03c4 	add.w	r3, r3, r4, lsl #3
 80040a2:	e9dd 6710 	ldrd	r6, r7, [sp, #64]	; 0x40
 80040a6:	e953 2302 	ldrd	r2, r3, [r3, #-8]
 80040aa:	2900      	cmp	r1, #0
 80040ac:	d054      	beq.n	8004158 <_dtoa_r+0x5b0>
 80040ae:	2000      	movs	r0, #0
 80040b0:	4928      	ldr	r1, [pc, #160]	; (8004154 <_dtoa_r+0x5ac>)
 80040b2:	f7fc fb45 	bl	8000740 <__aeabi_ddiv>
 80040b6:	463b      	mov	r3, r7
 80040b8:	4632      	mov	r2, r6
 80040ba:	f7fc f85f 	bl	800017c <__aeabi_dsub>
 80040be:	e9cd 0110 	strd	r0, r1, [sp, #64]	; 0x40
 80040c2:	9f03      	ldr	r7, [sp, #12]
 80040c4:	e9dd 0104 	ldrd	r0, r1, [sp, #16]
 80040c8:	f7fc fcc0 	bl	8000a4c <__aeabi_d2iz>
 80040cc:	4604      	mov	r4, r0
 80040ce:	f7fc f9a3 	bl	8000418 <__aeabi_i2d>
 80040d2:	4602      	mov	r2, r0
 80040d4:	460b      	mov	r3, r1
 80040d6:	e9dd 0104 	ldrd	r0, r1, [sp, #16]
 80040da:	f7fc f84f 	bl	800017c <__aeabi_dsub>
 80040de:	4602      	mov	r2, r0
 80040e0:	460b      	mov	r3, r1
 80040e2:	3430      	adds	r4, #48	; 0x30
 80040e4:	e9cd 2304 	strd	r2, r3, [sp, #16]
 80040e8:	e9dd 2310 	ldrd	r2, r3, [sp, #64]	; 0x40
 80040ec:	f807 4b01 	strb.w	r4, [r7], #1
 80040f0:	f7fc fc6e 	bl	80009d0 <__aeabi_dcmplt>
 80040f4:	2800      	cmp	r0, #0
 80040f6:	d173      	bne.n	80041e0 <_dtoa_r+0x638>
 80040f8:	e9dd 2304 	ldrd	r2, r3, [sp, #16]
 80040fc:	2000      	movs	r0, #0
 80040fe:	4911      	ldr	r1, [pc, #68]	; (8004144 <_dtoa_r+0x59c>)
 8004100:	f7fc f83c 	bl	800017c <__aeabi_dsub>
 8004104:	e9dd 2310 	ldrd	r2, r3, [sp, #64]	; 0x40
 8004108:	f7fc fc62 	bl	80009d0 <__aeabi_dcmplt>
 800410c:	2800      	cmp	r0, #0
 800410e:	f040 80b6 	bne.w	800427e <_dtoa_r+0x6d6>
 8004112:	9b12      	ldr	r3, [sp, #72]	; 0x48
 8004114:	429f      	cmp	r7, r3
 8004116:	f43f af7a 	beq.w	800400e <_dtoa_r+0x466>
 800411a:	e9dd 0110 	ldrd	r0, r1, [sp, #64]	; 0x40
 800411e:	2200      	movs	r2, #0
 8004120:	4b09      	ldr	r3, [pc, #36]	; (8004148 <_dtoa_r+0x5a0>)
 8004122:	f7fc f9e3 	bl	80004ec <__aeabi_dmul>
 8004126:	2200      	movs	r2, #0
 8004128:	e9cd 0110 	strd	r0, r1, [sp, #64]	; 0x40
 800412c:	e9dd 0104 	ldrd	r0, r1, [sp, #16]
 8004130:	4b05      	ldr	r3, [pc, #20]	; (8004148 <_dtoa_r+0x5a0>)
 8004132:	f7fc f9db 	bl	80004ec <__aeabi_dmul>
 8004136:	e9cd 0104 	strd	r0, r1, [sp, #16]
 800413a:	e7c3      	b.n	80040c4 <_dtoa_r+0x51c>
 800413c:	08006650 	.word	0x08006650
 8004140:	08006628 	.word	0x08006628
 8004144:	3ff00000 	.word	0x3ff00000
 8004148:	40240000 	.word	0x40240000
 800414c:	401c0000 	.word	0x401c0000
 8004150:	40140000 	.word	0x40140000
 8004154:	3fe00000 	.word	0x3fe00000
 8004158:	4630      	mov	r0, r6
 800415a:	4639      	mov	r1, r7
 800415c:	f7fc f9c6 	bl	80004ec <__aeabi_dmul>
 8004160:	9b12      	ldr	r3, [sp, #72]	; 0x48
 8004162:	e9cd 0110 	strd	r0, r1, [sp, #64]	; 0x40
 8004166:	9c03      	ldr	r4, [sp, #12]
 8004168:	9314      	str	r3, [sp, #80]	; 0x50
 800416a:	e9dd 0104 	ldrd	r0, r1, [sp, #16]
 800416e:	f7fc fc6d 	bl	8000a4c <__aeabi_d2iz>
 8004172:	9015      	str	r0, [sp, #84]	; 0x54
 8004174:	f7fc f950 	bl	8000418 <__aeabi_i2d>
 8004178:	4602      	mov	r2, r0
 800417a:	460b      	mov	r3, r1
 800417c:	e9dd 0104 	ldrd	r0, r1, [sp, #16]
 8004180:	f7fb fffc 	bl	800017c <__aeabi_dsub>
 8004184:	9b15      	ldr	r3, [sp, #84]	; 0x54
 8004186:	4606      	mov	r6, r0
 8004188:	3330      	adds	r3, #48	; 0x30
 800418a:	f804 3b01 	strb.w	r3, [r4], #1
 800418e:	9b12      	ldr	r3, [sp, #72]	; 0x48
 8004190:	460f      	mov	r7, r1
 8004192:	429c      	cmp	r4, r3
 8004194:	f04f 0200 	mov.w	r2, #0
 8004198:	d124      	bne.n	80041e4 <_dtoa_r+0x63c>
 800419a:	e9dd 0110 	ldrd	r0, r1, [sp, #64]	; 0x40
 800419e:	4baf      	ldr	r3, [pc, #700]	; (800445c <_dtoa_r+0x8b4>)
 80041a0:	f7fb ffee 	bl	8000180 <__adddf3>
 80041a4:	4602      	mov	r2, r0
 80041a6:	460b      	mov	r3, r1
 80041a8:	4630      	mov	r0, r6
 80041aa:	4639      	mov	r1, r7
 80041ac:	f7fc fc2e 	bl	8000a0c <__aeabi_dcmpgt>
 80041b0:	2800      	cmp	r0, #0
 80041b2:	d163      	bne.n	800427c <_dtoa_r+0x6d4>
 80041b4:	e9dd 2310 	ldrd	r2, r3, [sp, #64]	; 0x40
 80041b8:	2000      	movs	r0, #0
 80041ba:	49a8      	ldr	r1, [pc, #672]	; (800445c <_dtoa_r+0x8b4>)
 80041bc:	f7fb ffde 	bl	800017c <__aeabi_dsub>
 80041c0:	4602      	mov	r2, r0
 80041c2:	460b      	mov	r3, r1
 80041c4:	4630      	mov	r0, r6
 80041c6:	4639      	mov	r1, r7
 80041c8:	f7fc fc02 	bl	80009d0 <__aeabi_dcmplt>
 80041cc:	2800      	cmp	r0, #0
 80041ce:	f43f af1e 	beq.w	800400e <_dtoa_r+0x466>
 80041d2:	9f14      	ldr	r7, [sp, #80]	; 0x50
 80041d4:	1e7b      	subs	r3, r7, #1
 80041d6:	9314      	str	r3, [sp, #80]	; 0x50
 80041d8:	f817 3c01 	ldrb.w	r3, [r7, #-1]
 80041dc:	2b30      	cmp	r3, #48	; 0x30
 80041de:	d0f8      	beq.n	80041d2 <_dtoa_r+0x62a>
 80041e0:	46c3      	mov	fp, r8
 80041e2:	e03b      	b.n	800425c <_dtoa_r+0x6b4>
 80041e4:	4b9e      	ldr	r3, [pc, #632]	; (8004460 <_dtoa_r+0x8b8>)
 80041e6:	f7fc f981 	bl	80004ec <__aeabi_dmul>
 80041ea:	e9cd 0104 	strd	r0, r1, [sp, #16]
 80041ee:	e7bc      	b.n	800416a <_dtoa_r+0x5c2>
 80041f0:	9f03      	ldr	r7, [sp, #12]
 80041f2:	e9dd 8904 	ldrd	r8, r9, [sp, #16]
 80041f6:	e9dd 2306 	ldrd	r2, r3, [sp, #24]
 80041fa:	4640      	mov	r0, r8
 80041fc:	4649      	mov	r1, r9
 80041fe:	f7fc fa9f 	bl	8000740 <__aeabi_ddiv>
 8004202:	f7fc fc23 	bl	8000a4c <__aeabi_d2iz>
 8004206:	4604      	mov	r4, r0
 8004208:	f7fc f906 	bl	8000418 <__aeabi_i2d>
 800420c:	e9dd 2306 	ldrd	r2, r3, [sp, #24]
 8004210:	f7fc f96c 	bl	80004ec <__aeabi_dmul>
 8004214:	4602      	mov	r2, r0
 8004216:	460b      	mov	r3, r1
 8004218:	4640      	mov	r0, r8
 800421a:	4649      	mov	r1, r9
 800421c:	f7fb ffae 	bl	800017c <__aeabi_dsub>
 8004220:	f104 0630 	add.w	r6, r4, #48	; 0x30
 8004224:	f807 6b01 	strb.w	r6, [r7], #1
 8004228:	9e03      	ldr	r6, [sp, #12]
 800422a:	f8dd c020 	ldr.w	ip, [sp, #32]
 800422e:	1bbe      	subs	r6, r7, r6
 8004230:	45b4      	cmp	ip, r6
 8004232:	4602      	mov	r2, r0
 8004234:	460b      	mov	r3, r1
 8004236:	d136      	bne.n	80042a6 <_dtoa_r+0x6fe>
 8004238:	f7fb ffa2 	bl	8000180 <__adddf3>
 800423c:	e9dd 2306 	ldrd	r2, r3, [sp, #24]
 8004240:	4680      	mov	r8, r0
 8004242:	4689      	mov	r9, r1
 8004244:	f7fc fbe2 	bl	8000a0c <__aeabi_dcmpgt>
 8004248:	bb58      	cbnz	r0, 80042a2 <_dtoa_r+0x6fa>
 800424a:	e9dd 2306 	ldrd	r2, r3, [sp, #24]
 800424e:	4640      	mov	r0, r8
 8004250:	4649      	mov	r1, r9
 8004252:	f7fc fbb3 	bl	80009bc <__aeabi_dcmpeq>
 8004256:	b108      	cbz	r0, 800425c <_dtoa_r+0x6b4>
 8004258:	07e3      	lsls	r3, r4, #31
 800425a:	d422      	bmi.n	80042a2 <_dtoa_r+0x6fa>
 800425c:	4651      	mov	r1, sl
 800425e:	4628      	mov	r0, r5
 8004260:	f000 fbc2 	bl	80049e8 <_Bfree>
 8004264:	2300      	movs	r3, #0
 8004266:	9a24      	ldr	r2, [sp, #144]	; 0x90
 8004268:	703b      	strb	r3, [r7, #0]
 800426a:	f10b 0301 	add.w	r3, fp, #1
 800426e:	6013      	str	r3, [r2, #0]
 8004270:	9b26      	ldr	r3, [sp, #152]	; 0x98
 8004272:	2b00      	cmp	r3, #0
 8004274:	f43f ace6 	beq.w	8003c44 <_dtoa_r+0x9c>
 8004278:	601f      	str	r7, [r3, #0]
 800427a:	e4e3      	b.n	8003c44 <_dtoa_r+0x9c>
 800427c:	4627      	mov	r7, r4
 800427e:	463b      	mov	r3, r7
 8004280:	461f      	mov	r7, r3
 8004282:	f813 2d01 	ldrb.w	r2, [r3, #-1]!
 8004286:	2a39      	cmp	r2, #57	; 0x39
 8004288:	d107      	bne.n	800429a <_dtoa_r+0x6f2>
 800428a:	9a03      	ldr	r2, [sp, #12]
 800428c:	429a      	cmp	r2, r3
 800428e:	d1f7      	bne.n	8004280 <_dtoa_r+0x6d8>
 8004290:	2230      	movs	r2, #48	; 0x30
 8004292:	9903      	ldr	r1, [sp, #12]
 8004294:	f108 0801 	add.w	r8, r8, #1
 8004298:	700a      	strb	r2, [r1, #0]
 800429a:	781a      	ldrb	r2, [r3, #0]
 800429c:	3201      	adds	r2, #1
 800429e:	701a      	strb	r2, [r3, #0]
 80042a0:	e79e      	b.n	80041e0 <_dtoa_r+0x638>
 80042a2:	46d8      	mov	r8, fp
 80042a4:	e7eb      	b.n	800427e <_dtoa_r+0x6d6>
 80042a6:	2200      	movs	r2, #0
 80042a8:	4b6d      	ldr	r3, [pc, #436]	; (8004460 <_dtoa_r+0x8b8>)
 80042aa:	f7fc f91f 	bl	80004ec <__aeabi_dmul>
 80042ae:	2200      	movs	r2, #0
 80042b0:	2300      	movs	r3, #0
 80042b2:	4680      	mov	r8, r0
 80042b4:	4689      	mov	r9, r1
 80042b6:	f7fc fb81 	bl	80009bc <__aeabi_dcmpeq>
 80042ba:	2800      	cmp	r0, #0
 80042bc:	d09b      	beq.n	80041f6 <_dtoa_r+0x64e>
 80042be:	e7cd      	b.n	800425c <_dtoa_r+0x6b4>
 80042c0:	9a0b      	ldr	r2, [sp, #44]	; 0x2c
 80042c2:	2a00      	cmp	r2, #0
 80042c4:	f000 80c4 	beq.w	8004450 <_dtoa_r+0x8a8>
 80042c8:	9a22      	ldr	r2, [sp, #136]	; 0x88
 80042ca:	2a01      	cmp	r2, #1
 80042cc:	f300 80a8 	bgt.w	8004420 <_dtoa_r+0x878>
 80042d0:	9a13      	ldr	r2, [sp, #76]	; 0x4c
 80042d2:	2a00      	cmp	r2, #0
 80042d4:	f000 80a0 	beq.w	8004418 <_dtoa_r+0x870>
 80042d8:	f203 4333 	addw	r3, r3, #1075	; 0x433
 80042dc:	464f      	mov	r7, r9
 80042de:	9c0a      	ldr	r4, [sp, #40]	; 0x28
 80042e0:	9a09      	ldr	r2, [sp, #36]	; 0x24
 80042e2:	2101      	movs	r1, #1
 80042e4:	441a      	add	r2, r3
 80042e6:	4628      	mov	r0, r5
 80042e8:	4499      	add	r9, r3
 80042ea:	9209      	str	r2, [sp, #36]	; 0x24
 80042ec:	f000 fc32 	bl	8004b54 <__i2b>
 80042f0:	4606      	mov	r6, r0
 80042f2:	b15f      	cbz	r7, 800430c <_dtoa_r+0x764>
 80042f4:	9b09      	ldr	r3, [sp, #36]	; 0x24
 80042f6:	2b00      	cmp	r3, #0
 80042f8:	dd08      	ble.n	800430c <_dtoa_r+0x764>
 80042fa:	42bb      	cmp	r3, r7
 80042fc:	bfa8      	it	ge
 80042fe:	463b      	movge	r3, r7
 8004300:	9a09      	ldr	r2, [sp, #36]	; 0x24
 8004302:	eba9 0903 	sub.w	r9, r9, r3
 8004306:	1aff      	subs	r7, r7, r3
 8004308:	1ad3      	subs	r3, r2, r3
 800430a:	9309      	str	r3, [sp, #36]	; 0x24
 800430c:	9b0a      	ldr	r3, [sp, #40]	; 0x28
 800430e:	b1f3      	cbz	r3, 800434e <_dtoa_r+0x7a6>
 8004310:	9b0b      	ldr	r3, [sp, #44]	; 0x2c
 8004312:	2b00      	cmp	r3, #0
 8004314:	f000 80a0 	beq.w	8004458 <_dtoa_r+0x8b0>
 8004318:	2c00      	cmp	r4, #0
 800431a:	dd10      	ble.n	800433e <_dtoa_r+0x796>
 800431c:	4631      	mov	r1, r6
 800431e:	4622      	mov	r2, r4
 8004320:	4628      	mov	r0, r5
 8004322:	f000 fcd5 	bl	8004cd0 <__pow5mult>
 8004326:	4652      	mov	r2, sl
 8004328:	4601      	mov	r1, r0
 800432a:	4606      	mov	r6, r0
 800432c:	4628      	mov	r0, r5
 800432e:	f000 fc27 	bl	8004b80 <__multiply>
 8004332:	4680      	mov	r8, r0
 8004334:	4651      	mov	r1, sl
 8004336:	4628      	mov	r0, r5
 8004338:	f000 fb56 	bl	80049e8 <_Bfree>
 800433c:	46c2      	mov	sl, r8
 800433e:	9b0a      	ldr	r3, [sp, #40]	; 0x28
 8004340:	1b1a      	subs	r2, r3, r4
 8004342:	d004      	beq.n	800434e <_dtoa_r+0x7a6>
 8004344:	4651      	mov	r1, sl
 8004346:	4628      	mov	r0, r5
 8004348:	f000 fcc2 	bl	8004cd0 <__pow5mult>
 800434c:	4682      	mov	sl, r0
 800434e:	2101      	movs	r1, #1
 8004350:	4628      	mov	r0, r5
 8004352:	f000 fbff 	bl	8004b54 <__i2b>
 8004356:	9b0e      	ldr	r3, [sp, #56]	; 0x38
 8004358:	4604      	mov	r4, r0
 800435a:	2b00      	cmp	r3, #0
 800435c:	f340 8082 	ble.w	8004464 <_dtoa_r+0x8bc>
 8004360:	461a      	mov	r2, r3
 8004362:	4601      	mov	r1, r0
 8004364:	4628      	mov	r0, r5
 8004366:	f000 fcb3 	bl	8004cd0 <__pow5mult>
 800436a:	9b22      	ldr	r3, [sp, #136]	; 0x88
 800436c:	4604      	mov	r4, r0
 800436e:	2b01      	cmp	r3, #1
 8004370:	dd7b      	ble.n	800446a <_dtoa_r+0x8c2>
 8004372:	f04f 0800 	mov.w	r8, #0
 8004376:	6923      	ldr	r3, [r4, #16]
 8004378:	eb04 0383 	add.w	r3, r4, r3, lsl #2
 800437c:	6918      	ldr	r0, [r3, #16]
 800437e:	f000 fb9b 	bl	8004ab8 <__hi0bits>
 8004382:	f1c0 0020 	rsb	r0, r0, #32
 8004386:	9b09      	ldr	r3, [sp, #36]	; 0x24
 8004388:	4418      	add	r0, r3
 800438a:	f010 001f 	ands.w	r0, r0, #31
 800438e:	f000 8092 	beq.w	80044b6 <_dtoa_r+0x90e>
 8004392:	f1c0 0320 	rsb	r3, r0, #32
 8004396:	2b04      	cmp	r3, #4
 8004398:	f340 8085 	ble.w	80044a6 <_dtoa_r+0x8fe>
 800439c:	9b09      	ldr	r3, [sp, #36]	; 0x24
 800439e:	f1c0 001c 	rsb	r0, r0, #28
 80043a2:	4403      	add	r3, r0
 80043a4:	4481      	add	r9, r0
 80043a6:	4407      	add	r7, r0
 80043a8:	9309      	str	r3, [sp, #36]	; 0x24
 80043aa:	f1b9 0f00 	cmp.w	r9, #0
 80043ae:	dd05      	ble.n	80043bc <_dtoa_r+0x814>
 80043b0:	4651      	mov	r1, sl
 80043b2:	464a      	mov	r2, r9
 80043b4:	4628      	mov	r0, r5
 80043b6:	f000 fce5 	bl	8004d84 <__lshift>
 80043ba:	4682      	mov	sl, r0
 80043bc:	9b09      	ldr	r3, [sp, #36]	; 0x24
 80043be:	2b00      	cmp	r3, #0
 80043c0:	dd05      	ble.n	80043ce <_dtoa_r+0x826>
 80043c2:	4621      	mov	r1, r4
 80043c4:	461a      	mov	r2, r3
 80043c6:	4628      	mov	r0, r5
 80043c8:	f000 fcdc 	bl	8004d84 <__lshift>
 80043cc:	4604      	mov	r4, r0
 80043ce:	9b0f      	ldr	r3, [sp, #60]	; 0x3c
 80043d0:	2b00      	cmp	r3, #0
 80043d2:	d072      	beq.n	80044ba <_dtoa_r+0x912>
 80043d4:	4621      	mov	r1, r4
 80043d6:	4650      	mov	r0, sl
 80043d8:	f000 fd40 	bl	8004e5c <__mcmp>
 80043dc:	2800      	cmp	r0, #0
 80043de:	da6c      	bge.n	80044ba <_dtoa_r+0x912>
 80043e0:	2300      	movs	r3, #0
 80043e2:	4651      	mov	r1, sl
 80043e4:	220a      	movs	r2, #10
 80043e6:	4628      	mov	r0, r5
 80043e8:	f000 fb20 	bl	8004a2c <__multadd>
 80043ec:	9b0b      	ldr	r3, [sp, #44]	; 0x2c
 80043ee:	4682      	mov	sl, r0
 80043f0:	f10b 3bff 	add.w	fp, fp, #4294967295
 80043f4:	2b00      	cmp	r3, #0
 80043f6:	f000 81ac 	beq.w	8004752 <_dtoa_r+0xbaa>
 80043fa:	2300      	movs	r3, #0
 80043fc:	4631      	mov	r1, r6
 80043fe:	220a      	movs	r2, #10
 8004400:	4628      	mov	r0, r5
 8004402:	f000 fb13 	bl	8004a2c <__multadd>
 8004406:	9b06      	ldr	r3, [sp, #24]
 8004408:	4606      	mov	r6, r0
 800440a:	2b00      	cmp	r3, #0
 800440c:	f300 8093 	bgt.w	8004536 <_dtoa_r+0x98e>
 8004410:	9b22      	ldr	r3, [sp, #136]	; 0x88
 8004412:	2b02      	cmp	r3, #2
 8004414:	dc59      	bgt.n	80044ca <_dtoa_r+0x922>
 8004416:	e08e      	b.n	8004536 <_dtoa_r+0x98e>
 8004418:	9b16      	ldr	r3, [sp, #88]	; 0x58
 800441a:	f1c3 0336 	rsb	r3, r3, #54	; 0x36
 800441e:	e75d      	b.n	80042dc <_dtoa_r+0x734>
 8004420:	9b08      	ldr	r3, [sp, #32]
 8004422:	1e5c      	subs	r4, r3, #1
 8004424:	9b0a      	ldr	r3, [sp, #40]	; 0x28
 8004426:	42a3      	cmp	r3, r4
 8004428:	bfbf      	itttt	lt
 800442a:	9b0a      	ldrlt	r3, [sp, #40]	; 0x28
 800442c:	9a0e      	ldrlt	r2, [sp, #56]	; 0x38
 800442e:	1ae3      	sublt	r3, r4, r3
 8004430:	18d2      	addlt	r2, r2, r3
 8004432:	bfa8      	it	ge
 8004434:	1b1c      	subge	r4, r3, r4
 8004436:	9b08      	ldr	r3, [sp, #32]
 8004438:	bfbe      	ittt	lt
 800443a:	940a      	strlt	r4, [sp, #40]	; 0x28
 800443c:	920e      	strlt	r2, [sp, #56]	; 0x38
 800443e:	2400      	movlt	r4, #0
 8004440:	2b00      	cmp	r3, #0
 8004442:	bfb5      	itete	lt
 8004444:	eba9 0703 	sublt.w	r7, r9, r3
 8004448:	464f      	movge	r7, r9
 800444a:	2300      	movlt	r3, #0
 800444c:	9b08      	ldrge	r3, [sp, #32]
 800444e:	e747      	b.n	80042e0 <_dtoa_r+0x738>
 8004450:	464f      	mov	r7, r9
 8004452:	9c0a      	ldr	r4, [sp, #40]	; 0x28
 8004454:	9e0b      	ldr	r6, [sp, #44]	; 0x2c
 8004456:	e74c      	b.n	80042f2 <_dtoa_r+0x74a>
 8004458:	9a0a      	ldr	r2, [sp, #40]	; 0x28
 800445a:	e773      	b.n	8004344 <_dtoa_r+0x79c>
 800445c:	3fe00000 	.word	0x3fe00000
 8004460:	40240000 	.word	0x40240000
 8004464:	9b22      	ldr	r3, [sp, #136]	; 0x88
 8004466:	2b01      	cmp	r3, #1
 8004468:	dc18      	bgt.n	800449c <_dtoa_r+0x8f4>
 800446a:	9b04      	ldr	r3, [sp, #16]
 800446c:	b9b3      	cbnz	r3, 800449c <_dtoa_r+0x8f4>
 800446e:	9b05      	ldr	r3, [sp, #20]
 8004470:	f3c3 0313 	ubfx	r3, r3, #0, #20
 8004474:	b993      	cbnz	r3, 800449c <_dtoa_r+0x8f4>
 8004476:	9b05      	ldr	r3, [sp, #20]
 8004478:	f023 4300 	bic.w	r3, r3, #2147483648	; 0x80000000
 800447c:	0d1b      	lsrs	r3, r3, #20
 800447e:	051b      	lsls	r3, r3, #20
 8004480:	b17b      	cbz	r3, 80044a2 <_dtoa_r+0x8fa>
 8004482:	f04f 0801 	mov.w	r8, #1
 8004486:	9b09      	ldr	r3, [sp, #36]	; 0x24
 8004488:	f109 0901 	add.w	r9, r9, #1
 800448c:	3301      	adds	r3, #1
 800448e:	9309      	str	r3, [sp, #36]	; 0x24
 8004490:	9b0e      	ldr	r3, [sp, #56]	; 0x38
 8004492:	2b00      	cmp	r3, #0
 8004494:	f47f af6f 	bne.w	8004376 <_dtoa_r+0x7ce>
 8004498:	2001      	movs	r0, #1
 800449a:	e774      	b.n	8004386 <_dtoa_r+0x7de>
 800449c:	f04f 0800 	mov.w	r8, #0
 80044a0:	e7f6      	b.n	8004490 <_dtoa_r+0x8e8>
 80044a2:	4698      	mov	r8, r3
 80044a4:	e7f4      	b.n	8004490 <_dtoa_r+0x8e8>
 80044a6:	d080      	beq.n	80043aa <_dtoa_r+0x802>
 80044a8:	9a09      	ldr	r2, [sp, #36]	; 0x24
 80044aa:	331c      	adds	r3, #28
 80044ac:	441a      	add	r2, r3
 80044ae:	4499      	add	r9, r3
 80044b0:	441f      	add	r7, r3
 80044b2:	9209      	str	r2, [sp, #36]	; 0x24
 80044b4:	e779      	b.n	80043aa <_dtoa_r+0x802>
 80044b6:	4603      	mov	r3, r0
 80044b8:	e7f6      	b.n	80044a8 <_dtoa_r+0x900>
 80044ba:	9b08      	ldr	r3, [sp, #32]
 80044bc:	2b00      	cmp	r3, #0
 80044be:	dc34      	bgt.n	800452a <_dtoa_r+0x982>
 80044c0:	9b22      	ldr	r3, [sp, #136]	; 0x88
 80044c2:	2b02      	cmp	r3, #2
 80044c4:	dd31      	ble.n	800452a <_dtoa_r+0x982>
 80044c6:	9b08      	ldr	r3, [sp, #32]
 80044c8:	9306      	str	r3, [sp, #24]
 80044ca:	9b06      	ldr	r3, [sp, #24]
 80044cc:	b963      	cbnz	r3, 80044e8 <_dtoa_r+0x940>
 80044ce:	4621      	mov	r1, r4
 80044d0:	2205      	movs	r2, #5
 80044d2:	4628      	mov	r0, r5
 80044d4:	f000 faaa 	bl	8004a2c <__multadd>
 80044d8:	4601      	mov	r1, r0
 80044da:	4604      	mov	r4, r0
 80044dc:	4650      	mov	r0, sl
 80044de:	f000 fcbd 	bl	8004e5c <__mcmp>
 80044e2:	2800      	cmp	r0, #0
 80044e4:	f73f adbf 	bgt.w	8004066 <_dtoa_r+0x4be>
 80044e8:	9b23      	ldr	r3, [sp, #140]	; 0x8c
 80044ea:	9f03      	ldr	r7, [sp, #12]
 80044ec:	ea6f 0b03 	mvn.w	fp, r3
 80044f0:	f04f 0800 	mov.w	r8, #0
 80044f4:	4621      	mov	r1, r4
 80044f6:	4628      	mov	r0, r5
 80044f8:	f000 fa76 	bl	80049e8 <_Bfree>
 80044fc:	2e00      	cmp	r6, #0
 80044fe:	f43f aead 	beq.w	800425c <_dtoa_r+0x6b4>
 8004502:	f1b8 0f00 	cmp.w	r8, #0
 8004506:	d005      	beq.n	8004514 <_dtoa_r+0x96c>
 8004508:	45b0      	cmp	r8, r6
 800450a:	d003      	beq.n	8004514 <_dtoa_r+0x96c>
 800450c:	4641      	mov	r1, r8
 800450e:	4628      	mov	r0, r5
 8004510:	f000 fa6a 	bl	80049e8 <_Bfree>
 8004514:	4631      	mov	r1, r6
 8004516:	4628      	mov	r0, r5
 8004518:	f000 fa66 	bl	80049e8 <_Bfree>
 800451c:	e69e      	b.n	800425c <_dtoa_r+0x6b4>
 800451e:	2400      	movs	r4, #0
 8004520:	4626      	mov	r6, r4
 8004522:	e7e1      	b.n	80044e8 <_dtoa_r+0x940>
 8004524:	46c3      	mov	fp, r8
 8004526:	4626      	mov	r6, r4
 8004528:	e59d      	b.n	8004066 <_dtoa_r+0x4be>
 800452a:	9b0b      	ldr	r3, [sp, #44]	; 0x2c
 800452c:	2b00      	cmp	r3, #0
 800452e:	f000 80c8 	beq.w	80046c2 <_dtoa_r+0xb1a>
 8004532:	9b08      	ldr	r3, [sp, #32]
 8004534:	9306      	str	r3, [sp, #24]
 8004536:	2f00      	cmp	r7, #0
 8004538:	dd05      	ble.n	8004546 <_dtoa_r+0x99e>
 800453a:	4631      	mov	r1, r6
 800453c:	463a      	mov	r2, r7
 800453e:	4628      	mov	r0, r5
 8004540:	f000 fc20 	bl	8004d84 <__lshift>
 8004544:	4606      	mov	r6, r0
 8004546:	f1b8 0f00 	cmp.w	r8, #0
 800454a:	d05b      	beq.n	8004604 <_dtoa_r+0xa5c>
 800454c:	4628      	mov	r0, r5
 800454e:	6871      	ldr	r1, [r6, #4]
 8004550:	f000 fa0a 	bl	8004968 <_Balloc>
 8004554:	4607      	mov	r7, r0
 8004556:	b928      	cbnz	r0, 8004564 <_dtoa_r+0x9bc>
 8004558:	4602      	mov	r2, r0
 800455a:	f240 21ef 	movw	r1, #751	; 0x2ef
 800455e:	4b81      	ldr	r3, [pc, #516]	; (8004764 <_dtoa_r+0xbbc>)
 8004560:	f7ff bb36 	b.w	8003bd0 <_dtoa_r+0x28>
 8004564:	6932      	ldr	r2, [r6, #16]
 8004566:	f106 010c 	add.w	r1, r6, #12
 800456a:	3202      	adds	r2, #2
 800456c:	0092      	lsls	r2, r2, #2
 800456e:	300c      	adds	r0, #12
 8004570:	f001 fb2e 	bl	8005bd0 <memcpy>
 8004574:	2201      	movs	r2, #1
 8004576:	4639      	mov	r1, r7
 8004578:	4628      	mov	r0, r5
 800457a:	f000 fc03 	bl	8004d84 <__lshift>
 800457e:	46b0      	mov	r8, r6
 8004580:	4606      	mov	r6, r0
 8004582:	9b03      	ldr	r3, [sp, #12]
 8004584:	9a03      	ldr	r2, [sp, #12]
 8004586:	3301      	adds	r3, #1
 8004588:	9308      	str	r3, [sp, #32]
 800458a:	9b06      	ldr	r3, [sp, #24]
 800458c:	4413      	add	r3, r2
 800458e:	930b      	str	r3, [sp, #44]	; 0x2c
 8004590:	9b04      	ldr	r3, [sp, #16]
 8004592:	f003 0301 	and.w	r3, r3, #1
 8004596:	930a      	str	r3, [sp, #40]	; 0x28
 8004598:	9b08      	ldr	r3, [sp, #32]
 800459a:	4621      	mov	r1, r4
 800459c:	3b01      	subs	r3, #1
 800459e:	4650      	mov	r0, sl
 80045a0:	9304      	str	r3, [sp, #16]
 80045a2:	f7ff fa77 	bl	8003a94 <quorem>
 80045a6:	4641      	mov	r1, r8
 80045a8:	9006      	str	r0, [sp, #24]
 80045aa:	f100 0930 	add.w	r9, r0, #48	; 0x30
 80045ae:	4650      	mov	r0, sl
 80045b0:	f000 fc54 	bl	8004e5c <__mcmp>
 80045b4:	4632      	mov	r2, r6
 80045b6:	9009      	str	r0, [sp, #36]	; 0x24
 80045b8:	4621      	mov	r1, r4
 80045ba:	4628      	mov	r0, r5
 80045bc:	f000 fc6a 	bl	8004e94 <__mdiff>
 80045c0:	68c2      	ldr	r2, [r0, #12]
 80045c2:	4607      	mov	r7, r0
 80045c4:	bb02      	cbnz	r2, 8004608 <_dtoa_r+0xa60>
 80045c6:	4601      	mov	r1, r0
 80045c8:	4650      	mov	r0, sl
 80045ca:	f000 fc47 	bl	8004e5c <__mcmp>
 80045ce:	4602      	mov	r2, r0
 80045d0:	4639      	mov	r1, r7
 80045d2:	4628      	mov	r0, r5
 80045d4:	920c      	str	r2, [sp, #48]	; 0x30
 80045d6:	f000 fa07 	bl	80049e8 <_Bfree>
 80045da:	9b22      	ldr	r3, [sp, #136]	; 0x88
 80045dc:	9a0c      	ldr	r2, [sp, #48]	; 0x30
 80045de:	9f08      	ldr	r7, [sp, #32]
 80045e0:	ea43 0102 	orr.w	r1, r3, r2
 80045e4:	9b0a      	ldr	r3, [sp, #40]	; 0x28
 80045e6:	4319      	orrs	r1, r3
 80045e8:	d110      	bne.n	800460c <_dtoa_r+0xa64>
 80045ea:	f1b9 0f39 	cmp.w	r9, #57	; 0x39
 80045ee:	d029      	beq.n	8004644 <_dtoa_r+0xa9c>
 80045f0:	9b09      	ldr	r3, [sp, #36]	; 0x24
 80045f2:	2b00      	cmp	r3, #0
 80045f4:	dd02      	ble.n	80045fc <_dtoa_r+0xa54>
 80045f6:	9b06      	ldr	r3, [sp, #24]
 80045f8:	f103 0931 	add.w	r9, r3, #49	; 0x31
 80045fc:	9b04      	ldr	r3, [sp, #16]
 80045fe:	f883 9000 	strb.w	r9, [r3]
 8004602:	e777      	b.n	80044f4 <_dtoa_r+0x94c>
 8004604:	4630      	mov	r0, r6
 8004606:	e7ba      	b.n	800457e <_dtoa_r+0x9d6>
 8004608:	2201      	movs	r2, #1
 800460a:	e7e1      	b.n	80045d0 <_dtoa_r+0xa28>
 800460c:	9b09      	ldr	r3, [sp, #36]	; 0x24
 800460e:	2b00      	cmp	r3, #0
 8004610:	db04      	blt.n	800461c <_dtoa_r+0xa74>
 8004612:	9922      	ldr	r1, [sp, #136]	; 0x88
 8004614:	430b      	orrs	r3, r1
 8004616:	990a      	ldr	r1, [sp, #40]	; 0x28
 8004618:	430b      	orrs	r3, r1
 800461a:	d120      	bne.n	800465e <_dtoa_r+0xab6>
 800461c:	2a00      	cmp	r2, #0
 800461e:	dded      	ble.n	80045fc <_dtoa_r+0xa54>
 8004620:	4651      	mov	r1, sl
 8004622:	2201      	movs	r2, #1
 8004624:	4628      	mov	r0, r5
 8004626:	f000 fbad 	bl	8004d84 <__lshift>
 800462a:	4621      	mov	r1, r4
 800462c:	4682      	mov	sl, r0
 800462e:	f000 fc15 	bl	8004e5c <__mcmp>
 8004632:	2800      	cmp	r0, #0
 8004634:	dc03      	bgt.n	800463e <_dtoa_r+0xa96>
 8004636:	d1e1      	bne.n	80045fc <_dtoa_r+0xa54>
 8004638:	f019 0f01 	tst.w	r9, #1
 800463c:	d0de      	beq.n	80045fc <_dtoa_r+0xa54>
 800463e:	f1b9 0f39 	cmp.w	r9, #57	; 0x39
 8004642:	d1d8      	bne.n	80045f6 <_dtoa_r+0xa4e>
 8004644:	2339      	movs	r3, #57	; 0x39
 8004646:	9a04      	ldr	r2, [sp, #16]
 8004648:	7013      	strb	r3, [r2, #0]
 800464a:	463b      	mov	r3, r7
 800464c:	461f      	mov	r7, r3
 800464e:	f817 2c01 	ldrb.w	r2, [r7, #-1]
 8004652:	3b01      	subs	r3, #1
 8004654:	2a39      	cmp	r2, #57	; 0x39
 8004656:	d06b      	beq.n	8004730 <_dtoa_r+0xb88>
 8004658:	3201      	adds	r2, #1
 800465a:	701a      	strb	r2, [r3, #0]
 800465c:	e74a      	b.n	80044f4 <_dtoa_r+0x94c>
 800465e:	2a00      	cmp	r2, #0
 8004660:	dd07      	ble.n	8004672 <_dtoa_r+0xaca>
 8004662:	f1b9 0f39 	cmp.w	r9, #57	; 0x39
 8004666:	d0ed      	beq.n	8004644 <_dtoa_r+0xa9c>
 8004668:	9a04      	ldr	r2, [sp, #16]
 800466a:	f109 0301 	add.w	r3, r9, #1
 800466e:	7013      	strb	r3, [r2, #0]
 8004670:	e740      	b.n	80044f4 <_dtoa_r+0x94c>
 8004672:	9b08      	ldr	r3, [sp, #32]
 8004674:	9a0b      	ldr	r2, [sp, #44]	; 0x2c
 8004676:	f803 9c01 	strb.w	r9, [r3, #-1]
 800467a:	4293      	cmp	r3, r2
 800467c:	d042      	beq.n	8004704 <_dtoa_r+0xb5c>
 800467e:	4651      	mov	r1, sl
 8004680:	2300      	movs	r3, #0
 8004682:	220a      	movs	r2, #10
 8004684:	4628      	mov	r0, r5
 8004686:	f000 f9d1 	bl	8004a2c <__multadd>
 800468a:	45b0      	cmp	r8, r6
 800468c:	4682      	mov	sl, r0
 800468e:	f04f 0300 	mov.w	r3, #0
 8004692:	f04f 020a 	mov.w	r2, #10
 8004696:	4641      	mov	r1, r8
 8004698:	4628      	mov	r0, r5
 800469a:	d107      	bne.n	80046ac <_dtoa_r+0xb04>
 800469c:	f000 f9c6 	bl	8004a2c <__multadd>
 80046a0:	4680      	mov	r8, r0
 80046a2:	4606      	mov	r6, r0
 80046a4:	9b08      	ldr	r3, [sp, #32]
 80046a6:	3301      	adds	r3, #1
 80046a8:	9308      	str	r3, [sp, #32]
 80046aa:	e775      	b.n	8004598 <_dtoa_r+0x9f0>
 80046ac:	f000 f9be 	bl	8004a2c <__multadd>
 80046b0:	4631      	mov	r1, r6
 80046b2:	4680      	mov	r8, r0
 80046b4:	2300      	movs	r3, #0
 80046b6:	220a      	movs	r2, #10
 80046b8:	4628      	mov	r0, r5
 80046ba:	f000 f9b7 	bl	8004a2c <__multadd>
 80046be:	4606      	mov	r6, r0
 80046c0:	e7f0      	b.n	80046a4 <_dtoa_r+0xafc>
 80046c2:	9b08      	ldr	r3, [sp, #32]
 80046c4:	9306      	str	r3, [sp, #24]
 80046c6:	9f03      	ldr	r7, [sp, #12]
 80046c8:	4621      	mov	r1, r4
 80046ca:	4650      	mov	r0, sl
 80046cc:	f7ff f9e2 	bl	8003a94 <quorem>
 80046d0:	9b03      	ldr	r3, [sp, #12]
 80046d2:	f100 0930 	add.w	r9, r0, #48	; 0x30
 80046d6:	f807 9b01 	strb.w	r9, [r7], #1
 80046da:	1afa      	subs	r2, r7, r3
 80046dc:	9b06      	ldr	r3, [sp, #24]
 80046de:	4293      	cmp	r3, r2
 80046e0:	dd07      	ble.n	80046f2 <_dtoa_r+0xb4a>
 80046e2:	4651      	mov	r1, sl
 80046e4:	2300      	movs	r3, #0
 80046e6:	220a      	movs	r2, #10
 80046e8:	4628      	mov	r0, r5
 80046ea:	f000 f99f 	bl	8004a2c <__multadd>
 80046ee:	4682      	mov	sl, r0
 80046f0:	e7ea      	b.n	80046c8 <_dtoa_r+0xb20>
 80046f2:	9b06      	ldr	r3, [sp, #24]
 80046f4:	f04f 0800 	mov.w	r8, #0
 80046f8:	2b00      	cmp	r3, #0
 80046fa:	bfcc      	ite	gt
 80046fc:	461f      	movgt	r7, r3
 80046fe:	2701      	movle	r7, #1
 8004700:	9b03      	ldr	r3, [sp, #12]
 8004702:	441f      	add	r7, r3
 8004704:	4651      	mov	r1, sl
 8004706:	2201      	movs	r2, #1
 8004708:	4628      	mov	r0, r5
 800470a:	f000 fb3b 	bl	8004d84 <__lshift>
 800470e:	4621      	mov	r1, r4
 8004710:	4682      	mov	sl, r0
 8004712:	f000 fba3 	bl	8004e5c <__mcmp>
 8004716:	2800      	cmp	r0, #0
 8004718:	dc97      	bgt.n	800464a <_dtoa_r+0xaa2>
 800471a:	d102      	bne.n	8004722 <_dtoa_r+0xb7a>
 800471c:	f019 0f01 	tst.w	r9, #1
 8004720:	d193      	bne.n	800464a <_dtoa_r+0xaa2>
 8004722:	463b      	mov	r3, r7
 8004724:	461f      	mov	r7, r3
 8004726:	f813 2d01 	ldrb.w	r2, [r3, #-1]!
 800472a:	2a30      	cmp	r2, #48	; 0x30
 800472c:	d0fa      	beq.n	8004724 <_dtoa_r+0xb7c>
 800472e:	e6e1      	b.n	80044f4 <_dtoa_r+0x94c>
 8004730:	9a03      	ldr	r2, [sp, #12]
 8004732:	429a      	cmp	r2, r3
 8004734:	d18a      	bne.n	800464c <_dtoa_r+0xaa4>
 8004736:	2331      	movs	r3, #49	; 0x31
 8004738:	f10b 0b01 	add.w	fp, fp, #1
 800473c:	e797      	b.n	800466e <_dtoa_r+0xac6>
 800473e:	4b0a      	ldr	r3, [pc, #40]	; (8004768 <_dtoa_r+0xbc0>)
 8004740:	f7ff ba9f 	b.w	8003c82 <_dtoa_r+0xda>
 8004744:	9b26      	ldr	r3, [sp, #152]	; 0x98
 8004746:	2b00      	cmp	r3, #0
 8004748:	f47f aa77 	bne.w	8003c3a <_dtoa_r+0x92>
 800474c:	4b07      	ldr	r3, [pc, #28]	; (800476c <_dtoa_r+0xbc4>)
 800474e:	f7ff ba98 	b.w	8003c82 <_dtoa_r+0xda>
 8004752:	9b06      	ldr	r3, [sp, #24]
 8004754:	2b00      	cmp	r3, #0
 8004756:	dcb6      	bgt.n	80046c6 <_dtoa_r+0xb1e>
 8004758:	9b22      	ldr	r3, [sp, #136]	; 0x88
 800475a:	2b02      	cmp	r3, #2
 800475c:	f73f aeb5 	bgt.w	80044ca <_dtoa_r+0x922>
 8004760:	e7b1      	b.n	80046c6 <_dtoa_r+0xb1e>
 8004762:	bf00      	nop
 8004764:	080065be 	.word	0x080065be
 8004768:	0800674b 	.word	0x0800674b
 800476c:	08006542 	.word	0x08006542

08004770 <_free_r>:
 8004770:	b538      	push	{r3, r4, r5, lr}
 8004772:	4605      	mov	r5, r0
 8004774:	2900      	cmp	r1, #0
 8004776:	d040      	beq.n	80047fa <_free_r+0x8a>
 8004778:	f851 3c04 	ldr.w	r3, [r1, #-4]
 800477c:	1f0c      	subs	r4, r1, #4
 800477e:	2b00      	cmp	r3, #0
 8004780:	bfb8      	it	lt
 8004782:	18e4      	addlt	r4, r4, r3
 8004784:	f000 f8e4 	bl	8004950 <__malloc_lock>
 8004788:	4a1c      	ldr	r2, [pc, #112]	; (80047fc <_free_r+0x8c>)
 800478a:	6813      	ldr	r3, [r2, #0]
 800478c:	b933      	cbnz	r3, 800479c <_free_r+0x2c>
 800478e:	6063      	str	r3, [r4, #4]
 8004790:	6014      	str	r4, [r2, #0]
 8004792:	4628      	mov	r0, r5
 8004794:	e8bd 4038 	ldmia.w	sp!, {r3, r4, r5, lr}
 8004798:	f000 b8e0 	b.w	800495c <__malloc_unlock>
 800479c:	42a3      	cmp	r3, r4
 800479e:	d908      	bls.n	80047b2 <_free_r+0x42>
 80047a0:	6820      	ldr	r0, [r4, #0]
 80047a2:	1821      	adds	r1, r4, r0
 80047a4:	428b      	cmp	r3, r1
 80047a6:	bf01      	itttt	eq
 80047a8:	6819      	ldreq	r1, [r3, #0]
 80047aa:	685b      	ldreq	r3, [r3, #4]
 80047ac:	1809      	addeq	r1, r1, r0
 80047ae:	6021      	streq	r1, [r4, #0]
 80047b0:	e7ed      	b.n	800478e <_free_r+0x1e>
 80047b2:	461a      	mov	r2, r3
 80047b4:	685b      	ldr	r3, [r3, #4]
 80047b6:	b10b      	cbz	r3, 80047bc <_free_r+0x4c>
 80047b8:	42a3      	cmp	r3, r4
 80047ba:	d9fa      	bls.n	80047b2 <_free_r+0x42>
 80047bc:	6811      	ldr	r1, [r2, #0]
 80047be:	1850      	adds	r0, r2, r1
 80047c0:	42a0      	cmp	r0, r4
 80047c2:	d10b      	bne.n	80047dc <_free_r+0x6c>
 80047c4:	6820      	ldr	r0, [r4, #0]
 80047c6:	4401      	add	r1, r0
 80047c8:	1850      	adds	r0, r2, r1
 80047ca:	4283      	cmp	r3, r0
 80047cc:	6011      	str	r1, [r2, #0]
 80047ce:	d1e0      	bne.n	8004792 <_free_r+0x22>
 80047d0:	6818      	ldr	r0, [r3, #0]
 80047d2:	685b      	ldr	r3, [r3, #4]
 80047d4:	4408      	add	r0, r1
 80047d6:	6010      	str	r0, [r2, #0]
 80047d8:	6053      	str	r3, [r2, #4]
 80047da:	e7da      	b.n	8004792 <_free_r+0x22>
 80047dc:	d902      	bls.n	80047e4 <_free_r+0x74>
 80047de:	230c      	movs	r3, #12
 80047e0:	602b      	str	r3, [r5, #0]
 80047e2:	e7d6      	b.n	8004792 <_free_r+0x22>
 80047e4:	6820      	ldr	r0, [r4, #0]
 80047e6:	1821      	adds	r1, r4, r0
 80047e8:	428b      	cmp	r3, r1
 80047ea:	bf01      	itttt	eq
 80047ec:	6819      	ldreq	r1, [r3, #0]
 80047ee:	685b      	ldreq	r3, [r3, #4]
 80047f0:	1809      	addeq	r1, r1, r0
 80047f2:	6021      	streq	r1, [r4, #0]
 80047f4:	6063      	str	r3, [r4, #4]
 80047f6:	6054      	str	r4, [r2, #4]
 80047f8:	e7cb      	b.n	8004792 <_free_r+0x22>
 80047fa:	bd38      	pop	{r3, r4, r5, pc}
 80047fc:	20000478 	.word	0x20000478

08004800 <malloc>:
 8004800:	4b02      	ldr	r3, [pc, #8]	; (800480c <malloc+0xc>)
 8004802:	4601      	mov	r1, r0
 8004804:	6818      	ldr	r0, [r3, #0]
 8004806:	f000 b823 	b.w	8004850 <_malloc_r>
 800480a:	bf00      	nop
 800480c:	20000064 	.word	0x20000064

08004810 <sbrk_aligned>:
 8004810:	b570      	push	{r4, r5, r6, lr}
 8004812:	4e0e      	ldr	r6, [pc, #56]	; (800484c <sbrk_aligned+0x3c>)
 8004814:	460c      	mov	r4, r1
 8004816:	6831      	ldr	r1, [r6, #0]
 8004818:	4605      	mov	r5, r0
 800481a:	b911      	cbnz	r1, 8004822 <sbrk_aligned+0x12>
 800481c:	f001 f9c8 	bl	8005bb0 <_sbrk_r>
 8004820:	6030      	str	r0, [r6, #0]
 8004822:	4621      	mov	r1, r4
 8004824:	4628      	mov	r0, r5
 8004826:	f001 f9c3 	bl	8005bb0 <_sbrk_r>
 800482a:	1c43      	adds	r3, r0, #1
 800482c:	d00a      	beq.n	8004844 <sbrk_aligned+0x34>
 800482e:	1cc4      	adds	r4, r0, #3
 8004830:	f024 0403 	bic.w	r4, r4, #3
 8004834:	42a0      	cmp	r0, r4
 8004836:	d007      	beq.n	8004848 <sbrk_aligned+0x38>
 8004838:	1a21      	subs	r1, r4, r0
 800483a:	4628      	mov	r0, r5
 800483c:	f001 f9b8 	bl	8005bb0 <_sbrk_r>
 8004840:	3001      	adds	r0, #1
 8004842:	d101      	bne.n	8004848 <sbrk_aligned+0x38>
 8004844:	f04f 34ff 	mov.w	r4, #4294967295
 8004848:	4620      	mov	r0, r4
 800484a:	bd70      	pop	{r4, r5, r6, pc}
 800484c:	2000047c 	.word	0x2000047c

08004850 <_malloc_r>:
 8004850:	e92d 43f8 	stmdb	sp!, {r3, r4, r5, r6, r7, r8, r9, lr}
 8004854:	1ccd      	adds	r5, r1, #3
 8004856:	f025 0503 	bic.w	r5, r5, #3
 800485a:	3508      	adds	r5, #8
 800485c:	2d0c      	cmp	r5, #12
 800485e:	bf38      	it	cc
 8004860:	250c      	movcc	r5, #12
 8004862:	2d00      	cmp	r5, #0
 8004864:	4607      	mov	r7, r0
 8004866:	db01      	blt.n	800486c <_malloc_r+0x1c>
 8004868:	42a9      	cmp	r1, r5
 800486a:	d905      	bls.n	8004878 <_malloc_r+0x28>
 800486c:	230c      	movs	r3, #12
 800486e:	2600      	movs	r6, #0
 8004870:	603b      	str	r3, [r7, #0]
 8004872:	4630      	mov	r0, r6
 8004874:	e8bd 83f8 	ldmia.w	sp!, {r3, r4, r5, r6, r7, r8, r9, pc}
 8004878:	f8df 80d0 	ldr.w	r8, [pc, #208]	; 800494c <_malloc_r+0xfc>
 800487c:	f000 f868 	bl	8004950 <__malloc_lock>
 8004880:	f8d8 3000 	ldr.w	r3, [r8]
 8004884:	461c      	mov	r4, r3
 8004886:	bb5c      	cbnz	r4, 80048e0 <_malloc_r+0x90>
 8004888:	4629      	mov	r1, r5
 800488a:	4638      	mov	r0, r7
 800488c:	f7ff ffc0 	bl	8004810 <sbrk_aligned>
 8004890:	1c43      	adds	r3, r0, #1
 8004892:	4604      	mov	r4, r0
 8004894:	d155      	bne.n	8004942 <_malloc_r+0xf2>
 8004896:	f8d8 4000 	ldr.w	r4, [r8]
 800489a:	4626      	mov	r6, r4
 800489c:	2e00      	cmp	r6, #0
 800489e:	d145      	bne.n	800492c <_malloc_r+0xdc>
 80048a0:	2c00      	cmp	r4, #0
 80048a2:	d048      	beq.n	8004936 <_malloc_r+0xe6>
 80048a4:	6823      	ldr	r3, [r4, #0]
 80048a6:	4631      	mov	r1, r6
 80048a8:	4638      	mov	r0, r7
 80048aa:	eb04 0903 	add.w	r9, r4, r3
 80048ae:	f001 f97f 	bl	8005bb0 <_sbrk_r>
 80048b2:	4581      	cmp	r9, r0
 80048b4:	d13f      	bne.n	8004936 <_malloc_r+0xe6>
 80048b6:	6821      	ldr	r1, [r4, #0]
 80048b8:	4638      	mov	r0, r7
 80048ba:	1a6d      	subs	r5, r5, r1
 80048bc:	4629      	mov	r1, r5
 80048be:	f7ff ffa7 	bl	8004810 <sbrk_aligned>
 80048c2:	3001      	adds	r0, #1
 80048c4:	d037      	beq.n	8004936 <_malloc_r+0xe6>
 80048c6:	6823      	ldr	r3, [r4, #0]
 80048c8:	442b      	add	r3, r5
 80048ca:	6023      	str	r3, [r4, #0]
 80048cc:	f8d8 3000 	ldr.w	r3, [r8]
 80048d0:	2b00      	cmp	r3, #0
 80048d2:	d038      	beq.n	8004946 <_malloc_r+0xf6>
 80048d4:	685a      	ldr	r2, [r3, #4]
 80048d6:	42a2      	cmp	r2, r4
 80048d8:	d12b      	bne.n	8004932 <_malloc_r+0xe2>
 80048da:	2200      	movs	r2, #0
 80048dc:	605a      	str	r2, [r3, #4]
 80048de:	e00f      	b.n	8004900 <_malloc_r+0xb0>
 80048e0:	6822      	ldr	r2, [r4, #0]
 80048e2:	1b52      	subs	r2, r2, r5
 80048e4:	d41f      	bmi.n	8004926 <_malloc_r+0xd6>
 80048e6:	2a0b      	cmp	r2, #11
 80048e8:	d917      	bls.n	800491a <_malloc_r+0xca>
 80048ea:	1961      	adds	r1, r4, r5
 80048ec:	42a3      	cmp	r3, r4
 80048ee:	6025      	str	r5, [r4, #0]
 80048f0:	bf18      	it	ne
 80048f2:	6059      	strne	r1, [r3, #4]
 80048f4:	6863      	ldr	r3, [r4, #4]
 80048f6:	bf08      	it	eq
 80048f8:	f8c8 1000 	streq.w	r1, [r8]
 80048fc:	5162      	str	r2, [r4, r5]
 80048fe:	604b      	str	r3, [r1, #4]
 8004900:	4638      	mov	r0, r7
 8004902:	f104 060b 	add.w	r6, r4, #11
 8004906:	f000 f829 	bl	800495c <__malloc_unlock>
 800490a:	f026 0607 	bic.w	r6, r6, #7
 800490e:	1d23      	adds	r3, r4, #4
 8004910:	1af2      	subs	r2, r6, r3
 8004912:	d0ae      	beq.n	8004872 <_malloc_r+0x22>
 8004914:	1b9b      	subs	r3, r3, r6
 8004916:	50a3      	str	r3, [r4, r2]
 8004918:	e7ab      	b.n	8004872 <_malloc_r+0x22>
 800491a:	42a3      	cmp	r3, r4
 800491c:	6862      	ldr	r2, [r4, #4]
 800491e:	d1dd      	bne.n	80048dc <_malloc_r+0x8c>
 8004920:	f8c8 2000 	str.w	r2, [r8]
 8004924:	e7ec      	b.n	8004900 <_malloc_r+0xb0>
 8004926:	4623      	mov	r3, r4
 8004928:	6864      	ldr	r4, [r4, #4]
 800492a:	e7ac      	b.n	8004886 <_malloc_r+0x36>
 800492c:	4634      	mov	r4, r6
 800492e:	6876      	ldr	r6, [r6, #4]
 8004930:	e7b4      	b.n	800489c <_malloc_r+0x4c>
 8004932:	4613      	mov	r3, r2
 8004934:	e7cc      	b.n	80048d0 <_malloc_r+0x80>
 8004936:	230c      	movs	r3, #12
 8004938:	4638      	mov	r0, r7
 800493a:	603b      	str	r3, [r7, #0]
 800493c:	f000 f80e 	bl	800495c <__malloc_unlock>
 8004940:	e797      	b.n	8004872 <_malloc_r+0x22>
 8004942:	6025      	str	r5, [r4, #0]
 8004944:	e7dc      	b.n	8004900 <_malloc_r+0xb0>
 8004946:	605b      	str	r3, [r3, #4]
 8004948:	deff      	udf	#255	; 0xff
 800494a:	bf00      	nop
 800494c:	20000478 	.word	0x20000478

08004950 <__malloc_lock>:
 8004950:	4801      	ldr	r0, [pc, #4]	; (8004958 <__malloc_lock+0x8>)
 8004952:	f7ff b88f 	b.w	8003a74 <__retarget_lock_acquire_recursive>
 8004956:	bf00      	nop
 8004958:	20000474 	.word	0x20000474

0800495c <__malloc_unlock>:
 800495c:	4801      	ldr	r0, [pc, #4]	; (8004964 <__malloc_unlock+0x8>)
 800495e:	f7ff b88a 	b.w	8003a76 <__retarget_lock_release_recursive>
 8004962:	bf00      	nop
 8004964:	20000474 	.word	0x20000474

08004968 <_Balloc>:
 8004968:	b570      	push	{r4, r5, r6, lr}
 800496a:	69c6      	ldr	r6, [r0, #28]
 800496c:	4604      	mov	r4, r0
 800496e:	460d      	mov	r5, r1
 8004970:	b976      	cbnz	r6, 8004990 <_Balloc+0x28>
 8004972:	2010      	movs	r0, #16
 8004974:	f7ff ff44 	bl	8004800 <malloc>
 8004978:	4602      	mov	r2, r0
 800497a:	61e0      	str	r0, [r4, #28]
 800497c:	b920      	cbnz	r0, 8004988 <_Balloc+0x20>
 800497e:	216b      	movs	r1, #107	; 0x6b
 8004980:	4b17      	ldr	r3, [pc, #92]	; (80049e0 <_Balloc+0x78>)
 8004982:	4818      	ldr	r0, [pc, #96]	; (80049e4 <_Balloc+0x7c>)
 8004984:	f001 f932 	bl	8005bec <__assert_func>
 8004988:	e9c0 6601 	strd	r6, r6, [r0, #4]
 800498c:	6006      	str	r6, [r0, #0]
 800498e:	60c6      	str	r6, [r0, #12]
 8004990:	69e6      	ldr	r6, [r4, #28]
 8004992:	68f3      	ldr	r3, [r6, #12]
 8004994:	b183      	cbz	r3, 80049b8 <_Balloc+0x50>
 8004996:	69e3      	ldr	r3, [r4, #28]
 8004998:	68db      	ldr	r3, [r3, #12]
 800499a:	f853 0025 	ldr.w	r0, [r3, r5, lsl #2]
 800499e:	b9b8      	cbnz	r0, 80049d0 <_Balloc+0x68>
 80049a0:	2101      	movs	r1, #1
 80049a2:	fa01 f605 	lsl.w	r6, r1, r5
 80049a6:	1d72      	adds	r2, r6, #5
 80049a8:	4620      	mov	r0, r4
 80049aa:	0092      	lsls	r2, r2, #2
 80049ac:	f001 f93c 	bl	8005c28 <_calloc_r>
 80049b0:	b160      	cbz	r0, 80049cc <_Balloc+0x64>
 80049b2:	e9c0 5601 	strd	r5, r6, [r0, #4]
 80049b6:	e00e      	b.n	80049d6 <_Balloc+0x6e>
 80049b8:	2221      	movs	r2, #33	; 0x21
 80049ba:	2104      	movs	r1, #4
 80049bc:	4620      	mov	r0, r4
 80049be:	f001 f933 	bl	8005c28 <_calloc_r>
 80049c2:	69e3      	ldr	r3, [r4, #28]
 80049c4:	60f0      	str	r0, [r6, #12]
 80049c6:	68db      	ldr	r3, [r3, #12]
 80049c8:	2b00      	cmp	r3, #0
 80049ca:	d1e4      	bne.n	8004996 <_Balloc+0x2e>
 80049cc:	2000      	movs	r0, #0
 80049ce:	bd70      	pop	{r4, r5, r6, pc}
 80049d0:	6802      	ldr	r2, [r0, #0]
 80049d2:	f843 2025 	str.w	r2, [r3, r5, lsl #2]
 80049d6:	2300      	movs	r3, #0
 80049d8:	e9c0 3303 	strd	r3, r3, [r0, #12]
 80049dc:	e7f7      	b.n	80049ce <_Balloc+0x66>
 80049de:	bf00      	nop
 80049e0:	0800654f 	.word	0x0800654f
 80049e4:	080065cf 	.word	0x080065cf

080049e8 <_Bfree>:
 80049e8:	b570      	push	{r4, r5, r6, lr}
 80049ea:	69c6      	ldr	r6, [r0, #28]
 80049ec:	4605      	mov	r5, r0
 80049ee:	460c      	mov	r4, r1
 80049f0:	b976      	cbnz	r6, 8004a10 <_Bfree+0x28>
 80049f2:	2010      	movs	r0, #16
 80049f4:	f7ff ff04 	bl	8004800 <malloc>
 80049f8:	4602      	mov	r2, r0
 80049fa:	61e8      	str	r0, [r5, #28]
 80049fc:	b920      	cbnz	r0, 8004a08 <_Bfree+0x20>
 80049fe:	218f      	movs	r1, #143	; 0x8f
 8004a00:	4b08      	ldr	r3, [pc, #32]	; (8004a24 <_Bfree+0x3c>)
 8004a02:	4809      	ldr	r0, [pc, #36]	; (8004a28 <_Bfree+0x40>)
 8004a04:	f001 f8f2 	bl	8005bec <__assert_func>
 8004a08:	e9c0 6601 	strd	r6, r6, [r0, #4]
 8004a0c:	6006      	str	r6, [r0, #0]
 8004a0e:	60c6      	str	r6, [r0, #12]
 8004a10:	b13c      	cbz	r4, 8004a22 <_Bfree+0x3a>
 8004a12:	69eb      	ldr	r3, [r5, #28]
 8004a14:	6862      	ldr	r2, [r4, #4]
 8004a16:	68db      	ldr	r3, [r3, #12]
 8004a18:	f853 1022 	ldr.w	r1, [r3, r2, lsl #2]
 8004a1c:	6021      	str	r1, [r4, #0]
 8004a1e:	f843 4022 	str.w	r4, [r3, r2, lsl #2]
 8004a22:	bd70      	pop	{r4, r5, r6, pc}
 8004a24:	0800654f 	.word	0x0800654f
 8004a28:	080065cf 	.word	0x080065cf

08004a2c <__multadd>:
 8004a2c:	e92d 41f0 	stmdb	sp!, {r4, r5, r6, r7, r8, lr}
 8004a30:	4607      	mov	r7, r0
 8004a32:	460c      	mov	r4, r1
 8004a34:	461e      	mov	r6, r3
 8004a36:	2000      	movs	r0, #0
 8004a38:	690d      	ldr	r5, [r1, #16]
 8004a3a:	f101 0c14 	add.w	ip, r1, #20
 8004a3e:	f8dc 3000 	ldr.w	r3, [ip]
 8004a42:	3001      	adds	r0, #1
 8004a44:	b299      	uxth	r1, r3
 8004a46:	fb02 6101 	mla	r1, r2, r1, r6
 8004a4a:	0c1e      	lsrs	r6, r3, #16
 8004a4c:	0c0b      	lsrs	r3, r1, #16
 8004a4e:	fb02 3306 	mla	r3, r2, r6, r3
 8004a52:	b289      	uxth	r1, r1
 8004a54:	eb01 4103 	add.w	r1, r1, r3, lsl #16
 8004a58:	4285      	cmp	r5, r0
 8004a5a:	ea4f 4613 	mov.w	r6, r3, lsr #16
 8004a5e:	f84c 1b04 	str.w	r1, [ip], #4
 8004a62:	dcec      	bgt.n	8004a3e <__multadd+0x12>
 8004a64:	b30e      	cbz	r6, 8004aaa <__multadd+0x7e>
 8004a66:	68a3      	ldr	r3, [r4, #8]
 8004a68:	42ab      	cmp	r3, r5
 8004a6a:	dc19      	bgt.n	8004aa0 <__multadd+0x74>
 8004a6c:	6861      	ldr	r1, [r4, #4]
 8004a6e:	4638      	mov	r0, r7
 8004a70:	3101      	adds	r1, #1
 8004a72:	f7ff ff79 	bl	8004968 <_Balloc>
 8004a76:	4680      	mov	r8, r0
 8004a78:	b928      	cbnz	r0, 8004a86 <__multadd+0x5a>
 8004a7a:	4602      	mov	r2, r0
 8004a7c:	21ba      	movs	r1, #186	; 0xba
 8004a7e:	4b0c      	ldr	r3, [pc, #48]	; (8004ab0 <__multadd+0x84>)
 8004a80:	480c      	ldr	r0, [pc, #48]	; (8004ab4 <__multadd+0x88>)
 8004a82:	f001 f8b3 	bl	8005bec <__assert_func>
 8004a86:	6922      	ldr	r2, [r4, #16]
 8004a88:	f104 010c 	add.w	r1, r4, #12
 8004a8c:	3202      	adds	r2, #2
 8004a8e:	0092      	lsls	r2, r2, #2
 8004a90:	300c      	adds	r0, #12
 8004a92:	f001 f89d 	bl	8005bd0 <memcpy>
 8004a96:	4621      	mov	r1, r4
 8004a98:	4638      	mov	r0, r7
 8004a9a:	f7ff ffa5 	bl	80049e8 <_Bfree>
 8004a9e:	4644      	mov	r4, r8
 8004aa0:	eb04 0385 	add.w	r3, r4, r5, lsl #2
 8004aa4:	3501      	adds	r5, #1
 8004aa6:	615e      	str	r6, [r3, #20]
 8004aa8:	6125      	str	r5, [r4, #16]
 8004aaa:	4620      	mov	r0, r4
 8004aac:	e8bd 81f0 	ldmia.w	sp!, {r4, r5, r6, r7, r8, pc}
 8004ab0:	080065be 	.word	0x080065be
 8004ab4:	080065cf 	.word	0x080065cf

08004ab8 <__hi0bits>:
 8004ab8:	0c02      	lsrs	r2, r0, #16
 8004aba:	0412      	lsls	r2, r2, #16
 8004abc:	4603      	mov	r3, r0
 8004abe:	b9ca      	cbnz	r2, 8004af4 <__hi0bits+0x3c>
 8004ac0:	0403      	lsls	r3, r0, #16
 8004ac2:	2010      	movs	r0, #16
 8004ac4:	f013 4f7f 	tst.w	r3, #4278190080	; 0xff000000
 8004ac8:	bf04      	itt	eq
 8004aca:	021b      	lsleq	r3, r3, #8
 8004acc:	3008      	addeq	r0, #8
 8004ace:	f013 4f70 	tst.w	r3, #4026531840	; 0xf0000000
 8004ad2:	bf04      	itt	eq
 8004ad4:	011b      	lsleq	r3, r3, #4
 8004ad6:	3004      	addeq	r0, #4
 8004ad8:	f013 4f40 	tst.w	r3, #3221225472	; 0xc0000000
 8004adc:	bf04      	itt	eq
 8004ade:	009b      	lsleq	r3, r3, #2
 8004ae0:	3002      	addeq	r0, #2
 8004ae2:	2b00      	cmp	r3, #0
 8004ae4:	db05      	blt.n	8004af2 <__hi0bits+0x3a>
 8004ae6:	f013 4f80 	tst.w	r3, #1073741824	; 0x40000000
 8004aea:	f100 0001 	add.w	r0, r0, #1
 8004aee:	bf08      	it	eq
 8004af0:	2020      	moveq	r0, #32
 8004af2:	4770      	bx	lr
 8004af4:	2000      	movs	r0, #0
 8004af6:	e7e5      	b.n	8004ac4 <__hi0bits+0xc>

08004af8 <__lo0bits>:
 8004af8:	6803      	ldr	r3, [r0, #0]
 8004afa:	4602      	mov	r2, r0
 8004afc:	f013 0007 	ands.w	r0, r3, #7
 8004b00:	d00b      	beq.n	8004b1a <__lo0bits+0x22>
 8004b02:	07d9      	lsls	r1, r3, #31
 8004b04:	d421      	bmi.n	8004b4a <__lo0bits+0x52>
 8004b06:	0798      	lsls	r0, r3, #30
 8004b08:	bf49      	itett	mi
 8004b0a:	085b      	lsrmi	r3, r3, #1
 8004b0c:	089b      	lsrpl	r3, r3, #2
 8004b0e:	2001      	movmi	r0, #1
 8004b10:	6013      	strmi	r3, [r2, #0]
 8004b12:	bf5c      	itt	pl
 8004b14:	2002      	movpl	r0, #2
 8004b16:	6013      	strpl	r3, [r2, #0]
 8004b18:	4770      	bx	lr
 8004b1a:	b299      	uxth	r1, r3
 8004b1c:	b909      	cbnz	r1, 8004b22 <__lo0bits+0x2a>
 8004b1e:	2010      	movs	r0, #16
 8004b20:	0c1b      	lsrs	r3, r3, #16
 8004b22:	b2d9      	uxtb	r1, r3
 8004b24:	b909      	cbnz	r1, 8004b2a <__lo0bits+0x32>
 8004b26:	3008      	adds	r0, #8
 8004b28:	0a1b      	lsrs	r3, r3, #8
 8004b2a:	0719      	lsls	r1, r3, #28
 8004b2c:	bf04      	itt	eq
 8004b2e:	091b      	lsreq	r3, r3, #4
 8004b30:	3004      	addeq	r0, #4
 8004b32:	0799      	lsls	r1, r3, #30
 8004b34:	bf04      	itt	eq
 8004b36:	089b      	lsreq	r3, r3, #2
 8004b38:	3002      	addeq	r0, #2
 8004b3a:	07d9      	lsls	r1, r3, #31
 8004b3c:	d403      	bmi.n	8004b46 <__lo0bits+0x4e>
 8004b3e:	085b      	lsrs	r3, r3, #1
 8004b40:	f100 0001 	add.w	r0, r0, #1
 8004b44:	d003      	beq.n	8004b4e <__lo0bits+0x56>
 8004b46:	6013      	str	r3, [r2, #0]
 8004b48:	4770      	bx	lr
 8004b4a:	2000      	movs	r0, #0
 8004b4c:	4770      	bx	lr
 8004b4e:	2020      	movs	r0, #32
 8004b50:	4770      	bx	lr
	...

08004b54 <__i2b>:
 8004b54:	b510      	push	{r4, lr}
 8004b56:	460c      	mov	r4, r1
 8004b58:	2101      	movs	r1, #1
 8004b5a:	f7ff ff05 	bl	8004968 <_Balloc>
 8004b5e:	4602      	mov	r2, r0
 8004b60:	b928      	cbnz	r0, 8004b6e <__i2b+0x1a>
 8004b62:	f240 1145 	movw	r1, #325	; 0x145
 8004b66:	4b04      	ldr	r3, [pc, #16]	; (8004b78 <__i2b+0x24>)
 8004b68:	4804      	ldr	r0, [pc, #16]	; (8004b7c <__i2b+0x28>)
 8004b6a:	f001 f83f 	bl	8005bec <__assert_func>
 8004b6e:	2301      	movs	r3, #1
 8004b70:	6144      	str	r4, [r0, #20]
 8004b72:	6103      	str	r3, [r0, #16]
 8004b74:	bd10      	pop	{r4, pc}
 8004b76:	bf00      	nop
 8004b78:	080065be 	.word	0x080065be
 8004b7c:	080065cf 	.word	0x080065cf

08004b80 <__multiply>:
 8004b80:	e92d 4ff0 	stmdb	sp!, {r4, r5, r6, r7, r8, r9, sl, fp, lr}
 8004b84:	4691      	mov	r9, r2
 8004b86:	690a      	ldr	r2, [r1, #16]
 8004b88:	f8d9 3010 	ldr.w	r3, [r9, #16]
 8004b8c:	460c      	mov	r4, r1
 8004b8e:	429a      	cmp	r2, r3
 8004b90:	bfbe      	ittt	lt
 8004b92:	460b      	movlt	r3, r1
 8004b94:	464c      	movlt	r4, r9
 8004b96:	4699      	movlt	r9, r3
 8004b98:	6927      	ldr	r7, [r4, #16]
 8004b9a:	f8d9 a010 	ldr.w	sl, [r9, #16]
 8004b9e:	68a3      	ldr	r3, [r4, #8]
 8004ba0:	6861      	ldr	r1, [r4, #4]
 8004ba2:	eb07 060a 	add.w	r6, r7, sl
 8004ba6:	42b3      	cmp	r3, r6
 8004ba8:	b085      	sub	sp, #20
 8004baa:	bfb8      	it	lt
 8004bac:	3101      	addlt	r1, #1
 8004bae:	f7ff fedb 	bl	8004968 <_Balloc>
 8004bb2:	b930      	cbnz	r0, 8004bc2 <__multiply+0x42>
 8004bb4:	4602      	mov	r2, r0
 8004bb6:	f44f 71b1 	mov.w	r1, #354	; 0x162
 8004bba:	4b43      	ldr	r3, [pc, #268]	; (8004cc8 <__multiply+0x148>)
 8004bbc:	4843      	ldr	r0, [pc, #268]	; (8004ccc <__multiply+0x14c>)
 8004bbe:	f001 f815 	bl	8005bec <__assert_func>
 8004bc2:	f100 0514 	add.w	r5, r0, #20
 8004bc6:	462b      	mov	r3, r5
 8004bc8:	2200      	movs	r2, #0
 8004bca:	eb05 0886 	add.w	r8, r5, r6, lsl #2
 8004bce:	4543      	cmp	r3, r8
 8004bd0:	d321      	bcc.n	8004c16 <__multiply+0x96>
 8004bd2:	f104 0314 	add.w	r3, r4, #20
 8004bd6:	eb03 0787 	add.w	r7, r3, r7, lsl #2
 8004bda:	f109 0314 	add.w	r3, r9, #20
 8004bde:	eb03 028a 	add.w	r2, r3, sl, lsl #2
 8004be2:	9202      	str	r2, [sp, #8]
 8004be4:	1b3a      	subs	r2, r7, r4
 8004be6:	3a15      	subs	r2, #21
 8004be8:	f022 0203 	bic.w	r2, r2, #3
 8004bec:	3204      	adds	r2, #4
 8004bee:	f104 0115 	add.w	r1, r4, #21
 8004bf2:	428f      	cmp	r7, r1
 8004bf4:	bf38      	it	cc
 8004bf6:	2204      	movcc	r2, #4
 8004bf8:	9201      	str	r2, [sp, #4]
 8004bfa:	9a02      	ldr	r2, [sp, #8]
 8004bfc:	9303      	str	r3, [sp, #12]
 8004bfe:	429a      	cmp	r2, r3
 8004c00:	d80c      	bhi.n	8004c1c <__multiply+0x9c>
 8004c02:	2e00      	cmp	r6, #0
 8004c04:	dd03      	ble.n	8004c0e <__multiply+0x8e>
 8004c06:	f858 3d04 	ldr.w	r3, [r8, #-4]!
 8004c0a:	2b00      	cmp	r3, #0
 8004c0c:	d05a      	beq.n	8004cc4 <__multiply+0x144>
 8004c0e:	6106      	str	r6, [r0, #16]
 8004c10:	b005      	add	sp, #20
 8004c12:	e8bd 8ff0 	ldmia.w	sp!, {r4, r5, r6, r7, r8, r9, sl, fp, pc}
 8004c16:	f843 2b04 	str.w	r2, [r3], #4
 8004c1a:	e7d8      	b.n	8004bce <__multiply+0x4e>
 8004c1c:	f8b3 a000 	ldrh.w	sl, [r3]
 8004c20:	f1ba 0f00 	cmp.w	sl, #0
 8004c24:	d023      	beq.n	8004c6e <__multiply+0xee>
 8004c26:	46a9      	mov	r9, r5
 8004c28:	f04f 0c00 	mov.w	ip, #0
 8004c2c:	f104 0e14 	add.w	lr, r4, #20
 8004c30:	f85e 2b04 	ldr.w	r2, [lr], #4
 8004c34:	f8d9 1000 	ldr.w	r1, [r9]
 8004c38:	fa1f fb82 	uxth.w	fp, r2
 8004c3c:	b289      	uxth	r1, r1
 8004c3e:	fb0a 110b 	mla	r1, sl, fp, r1
 8004c42:	4461      	add	r1, ip
 8004c44:	f8d9 c000 	ldr.w	ip, [r9]
 8004c48:	0c12      	lsrs	r2, r2, #16
 8004c4a:	ea4f 4c1c 	mov.w	ip, ip, lsr #16
 8004c4e:	fb0a c202 	mla	r2, sl, r2, ip
 8004c52:	eb02 4211 	add.w	r2, r2, r1, lsr #16
 8004c56:	b289      	uxth	r1, r1
 8004c58:	ea41 4102 	orr.w	r1, r1, r2, lsl #16
 8004c5c:	4577      	cmp	r7, lr
 8004c5e:	ea4f 4c12 	mov.w	ip, r2, lsr #16
 8004c62:	f849 1b04 	str.w	r1, [r9], #4
 8004c66:	d8e3      	bhi.n	8004c30 <__multiply+0xb0>
 8004c68:	9a01      	ldr	r2, [sp, #4]
 8004c6a:	f845 c002 	str.w	ip, [r5, r2]
 8004c6e:	9a03      	ldr	r2, [sp, #12]
 8004c70:	3304      	adds	r3, #4
 8004c72:	f8b2 9002 	ldrh.w	r9, [r2, #2]
 8004c76:	f1b9 0f00 	cmp.w	r9, #0
 8004c7a:	d021      	beq.n	8004cc0 <__multiply+0x140>
 8004c7c:	46ae      	mov	lr, r5
 8004c7e:	f04f 0a00 	mov.w	sl, #0
 8004c82:	6829      	ldr	r1, [r5, #0]
 8004c84:	f104 0c14 	add.w	ip, r4, #20
 8004c88:	f8bc b000 	ldrh.w	fp, [ip]
 8004c8c:	f8be 2002 	ldrh.w	r2, [lr, #2]
 8004c90:	b289      	uxth	r1, r1
 8004c92:	fb09 220b 	mla	r2, r9, fp, r2
 8004c96:	4452      	add	r2, sl
 8004c98:	ea41 4102 	orr.w	r1, r1, r2, lsl #16
 8004c9c:	f84e 1b04 	str.w	r1, [lr], #4
 8004ca0:	f85c 1b04 	ldr.w	r1, [ip], #4
 8004ca4:	ea4f 4a11 	mov.w	sl, r1, lsr #16
 8004ca8:	f8be 1000 	ldrh.w	r1, [lr]
 8004cac:	4567      	cmp	r7, ip
 8004cae:	fb09 110a 	mla	r1, r9, sl, r1
 8004cb2:	eb01 4112 	add.w	r1, r1, r2, lsr #16
 8004cb6:	ea4f 4a11 	mov.w	sl, r1, lsr #16
 8004cba:	d8e5      	bhi.n	8004c88 <__multiply+0x108>
 8004cbc:	9a01      	ldr	r2, [sp, #4]
 8004cbe:	50a9      	str	r1, [r5, r2]
 8004cc0:	3504      	adds	r5, #4
 8004cc2:	e79a      	b.n	8004bfa <__multiply+0x7a>
 8004cc4:	3e01      	subs	r6, #1
 8004cc6:	e79c      	b.n	8004c02 <__multiply+0x82>
 8004cc8:	080065be 	.word	0x080065be
 8004ccc:	080065cf 	.word	0x080065cf

08004cd0 <__pow5mult>:
 8004cd0:	e92d 43f8 	stmdb	sp!, {r3, r4, r5, r6, r7, r8, r9, lr}
 8004cd4:	4615      	mov	r5, r2
 8004cd6:	f012 0203 	ands.w	r2, r2, #3
 8004cda:	4606      	mov	r6, r0
 8004cdc:	460f      	mov	r7, r1
 8004cde:	d007      	beq.n	8004cf0 <__pow5mult+0x20>
 8004ce0:	4c25      	ldr	r4, [pc, #148]	; (8004d78 <__pow5mult+0xa8>)
 8004ce2:	3a01      	subs	r2, #1
 8004ce4:	2300      	movs	r3, #0
 8004ce6:	f854 2022 	ldr.w	r2, [r4, r2, lsl #2]
 8004cea:	f7ff fe9f 	bl	8004a2c <__multadd>
 8004cee:	4607      	mov	r7, r0
 8004cf0:	10ad      	asrs	r5, r5, #2
 8004cf2:	d03d      	beq.n	8004d70 <__pow5mult+0xa0>
 8004cf4:	69f4      	ldr	r4, [r6, #28]
 8004cf6:	b97c      	cbnz	r4, 8004d18 <__pow5mult+0x48>
 8004cf8:	2010      	movs	r0, #16
 8004cfa:	f7ff fd81 	bl	8004800 <malloc>
 8004cfe:	4602      	mov	r2, r0
 8004d00:	61f0      	str	r0, [r6, #28]
 8004d02:	b928      	cbnz	r0, 8004d10 <__pow5mult+0x40>
 8004d04:	f240 11b3 	movw	r1, #435	; 0x1b3
 8004d08:	4b1c      	ldr	r3, [pc, #112]	; (8004d7c <__pow5mult+0xac>)
 8004d0a:	481d      	ldr	r0, [pc, #116]	; (8004d80 <__pow5mult+0xb0>)
 8004d0c:	f000 ff6e 	bl	8005bec <__assert_func>
 8004d10:	e9c0 4401 	strd	r4, r4, [r0, #4]
 8004d14:	6004      	str	r4, [r0, #0]
 8004d16:	60c4      	str	r4, [r0, #12]
 8004d18:	f8d6 801c 	ldr.w	r8, [r6, #28]
 8004d1c:	f8d8 4008 	ldr.w	r4, [r8, #8]
 8004d20:	b94c      	cbnz	r4, 8004d36 <__pow5mult+0x66>
 8004d22:	f240 2171 	movw	r1, #625	; 0x271
 8004d26:	4630      	mov	r0, r6
 8004d28:	f7ff ff14 	bl	8004b54 <__i2b>
 8004d2c:	2300      	movs	r3, #0
 8004d2e:	4604      	mov	r4, r0
 8004d30:	f8c8 0008 	str.w	r0, [r8, #8]
 8004d34:	6003      	str	r3, [r0, #0]
 8004d36:	f04f 0900 	mov.w	r9, #0
 8004d3a:	07eb      	lsls	r3, r5, #31
 8004d3c:	d50a      	bpl.n	8004d54 <__pow5mult+0x84>
 8004d3e:	4639      	mov	r1, r7
 8004d40:	4622      	mov	r2, r4
 8004d42:	4630      	mov	r0, r6
 8004d44:	f7ff ff1c 	bl	8004b80 <__multiply>
 8004d48:	4680      	mov	r8, r0
 8004d4a:	4639      	mov	r1, r7
 8004d4c:	4630      	mov	r0, r6
 8004d4e:	f7ff fe4b 	bl	80049e8 <_Bfree>
 8004d52:	4647      	mov	r7, r8
 8004d54:	106d      	asrs	r5, r5, #1
 8004d56:	d00b      	beq.n	8004d70 <__pow5mult+0xa0>
 8004d58:	6820      	ldr	r0, [r4, #0]
 8004d5a:	b938      	cbnz	r0, 8004d6c <__pow5mult+0x9c>
 8004d5c:	4622      	mov	r2, r4
 8004d5e:	4621      	mov	r1, r4
 8004d60:	4630      	mov	r0, r6
 8004d62:	f7ff ff0d 	bl	8004b80 <__multiply>
 8004d66:	6020      	str	r0, [r4, #0]
 8004d68:	f8c0 9000 	str.w	r9, [r0]
 8004d6c:	4604      	mov	r4, r0
 8004d6e:	e7e4      	b.n	8004d3a <__pow5mult+0x6a>
 8004d70:	4638      	mov	r0, r7
 8004d72:	e8bd 83f8 	ldmia.w	sp!, {r3, r4, r5, r6, r7, r8, r9, pc}
 8004d76:	bf00      	nop
 8004d78:	08006718 	.word	0x08006718
 8004d7c:	0800654f 	.word	0x0800654f
 8004d80:	080065cf 	.word	0x080065cf

08004d84 <__lshift>:
 8004d84:	e92d 47f0 	stmdb	sp!, {r4, r5, r6, r7, r8, r9, sl, lr}
 8004d88:	460c      	mov	r4, r1
 8004d8a:	4607      	mov	r7, r0
 8004d8c:	4691      	mov	r9, r2
 8004d8e:	6923      	ldr	r3, [r4, #16]
 8004d90:	6849      	ldr	r1, [r1, #4]
 8004d92:	eb03 1862 	add.w	r8, r3, r2, asr #5
 8004d96:	68a3      	ldr	r3, [r4, #8]
 8004d98:	ea4f 1a62 	mov.w	sl, r2, asr #5
 8004d9c:	f108 0601 	add.w	r6, r8, #1
 8004da0:	42b3      	cmp	r3, r6
 8004da2:	db0b      	blt.n	8004dbc <__lshift+0x38>
 8004da4:	4638      	mov	r0, r7
 8004da6:	f7ff fddf 	bl	8004968 <_Balloc>
 8004daa:	4605      	mov	r5, r0
 8004dac:	b948      	cbnz	r0, 8004dc2 <__lshift+0x3e>
 8004dae:	4602      	mov	r2, r0
 8004db0:	f44f 71ef 	mov.w	r1, #478	; 0x1de
 8004db4:	4b27      	ldr	r3, [pc, #156]	; (8004e54 <__lshift+0xd0>)
 8004db6:	4828      	ldr	r0, [pc, #160]	; (8004e58 <__lshift+0xd4>)
 8004db8:	f000 ff18 	bl	8005bec <__assert_func>
 8004dbc:	3101      	adds	r1, #1
 8004dbe:	005b      	lsls	r3, r3, #1
 8004dc0:	e7ee      	b.n	8004da0 <__lshift+0x1c>
 8004dc2:	2300      	movs	r3, #0
 8004dc4:	f100 0114 	add.w	r1, r0, #20
 8004dc8:	f100 0210 	add.w	r2, r0, #16
 8004dcc:	4618      	mov	r0, r3
 8004dce:	4553      	cmp	r3, sl
 8004dd0:	db33      	blt.n	8004e3a <__lshift+0xb6>
 8004dd2:	6920      	ldr	r0, [r4, #16]
 8004dd4:	ea2a 7aea 	bic.w	sl, sl, sl, asr #31
 8004dd8:	f104 0314 	add.w	r3, r4, #20
 8004ddc:	f019 091f 	ands.w	r9, r9, #31
 8004de0:	eb01 018a 	add.w	r1, r1, sl, lsl #2
 8004de4:	eb03 0c80 	add.w	ip, r3, r0, lsl #2
 8004de8:	d02b      	beq.n	8004e42 <__lshift+0xbe>
 8004dea:	468a      	mov	sl, r1
 8004dec:	2200      	movs	r2, #0
 8004dee:	f1c9 0e20 	rsb	lr, r9, #32
 8004df2:	6818      	ldr	r0, [r3, #0]
 8004df4:	fa00 f009 	lsl.w	r0, r0, r9
 8004df8:	4310      	orrs	r0, r2
 8004dfa:	f84a 0b04 	str.w	r0, [sl], #4
 8004dfe:	f853 2b04 	ldr.w	r2, [r3], #4
 8004e02:	459c      	cmp	ip, r3
 8004e04:	fa22 f20e 	lsr.w	r2, r2, lr
 8004e08:	d8f3      	bhi.n	8004df2 <__lshift+0x6e>
 8004e0a:	ebac 0304 	sub.w	r3, ip, r4
 8004e0e:	3b15      	subs	r3, #21
 8004e10:	f023 0303 	bic.w	r3, r3, #3
 8004e14:	3304      	adds	r3, #4
 8004e16:	f104 0015 	add.w	r0, r4, #21
 8004e1a:	4584      	cmp	ip, r0
 8004e1c:	bf38      	it	cc
 8004e1e:	2304      	movcc	r3, #4
 8004e20:	50ca      	str	r2, [r1, r3]
 8004e22:	b10a      	cbz	r2, 8004e28 <__lshift+0xa4>
 8004e24:	f108 0602 	add.w	r6, r8, #2
 8004e28:	3e01      	subs	r6, #1
 8004e2a:	4638      	mov	r0, r7
 8004e2c:	4621      	mov	r1, r4
 8004e2e:	612e      	str	r6, [r5, #16]
 8004e30:	f7ff fdda 	bl	80049e8 <_Bfree>
 8004e34:	4628      	mov	r0, r5
 8004e36:	e8bd 87f0 	ldmia.w	sp!, {r4, r5, r6, r7, r8, r9, sl, pc}
 8004e3a:	f842 0f04 	str.w	r0, [r2, #4]!
 8004e3e:	3301      	adds	r3, #1
 8004e40:	e7c5      	b.n	8004dce <__lshift+0x4a>
 8004e42:	3904      	subs	r1, #4
 8004e44:	f853 2b04 	ldr.w	r2, [r3], #4
 8004e48:	459c      	cmp	ip, r3
 8004e4a:	f841 2f04 	str.w	r2, [r1, #4]!
 8004e4e:	d8f9      	bhi.n	8004e44 <__lshift+0xc0>
 8004e50:	e7ea      	b.n	8004e28 <__lshift+0xa4>
 8004e52:	bf00      	nop
 8004e54:	080065be 	.word	0x080065be
 8004e58:	080065cf 	.word	0x080065cf

08004e5c <__mcmp>:
 8004e5c:	4603      	mov	r3, r0
 8004e5e:	690a      	ldr	r2, [r1, #16]
 8004e60:	6900      	ldr	r0, [r0, #16]
 8004e62:	b530      	push	{r4, r5, lr}
 8004e64:	1a80      	subs	r0, r0, r2
 8004e66:	d10d      	bne.n	8004e84 <__mcmp+0x28>
 8004e68:	3314      	adds	r3, #20
 8004e6a:	3114      	adds	r1, #20
 8004e6c:	eb03 0482 	add.w	r4, r3, r2, lsl #2
 8004e70:	eb01 0182 	add.w	r1, r1, r2, lsl #2
 8004e74:	f854 5d04 	ldr.w	r5, [r4, #-4]!
 8004e78:	f851 2d04 	ldr.w	r2, [r1, #-4]!
 8004e7c:	4295      	cmp	r5, r2
 8004e7e:	d002      	beq.n	8004e86 <__mcmp+0x2a>
 8004e80:	d304      	bcc.n	8004e8c <__mcmp+0x30>
 8004e82:	2001      	movs	r0, #1
 8004e84:	bd30      	pop	{r4, r5, pc}
 8004e86:	42a3      	cmp	r3, r4
 8004e88:	d3f4      	bcc.n	8004e74 <__mcmp+0x18>
 8004e8a:	e7fb      	b.n	8004e84 <__mcmp+0x28>
 8004e8c:	f04f 30ff 	mov.w	r0, #4294967295
 8004e90:	e7f8      	b.n	8004e84 <__mcmp+0x28>
	...

08004e94 <__mdiff>:
 8004e94:	e92d 4ff8 	stmdb	sp!, {r3, r4, r5, r6, r7, r8, r9, sl, fp, lr}
 8004e98:	460d      	mov	r5, r1
 8004e9a:	4607      	mov	r7, r0
 8004e9c:	4611      	mov	r1, r2
 8004e9e:	4628      	mov	r0, r5
 8004ea0:	4614      	mov	r4, r2
 8004ea2:	f7ff ffdb 	bl	8004e5c <__mcmp>
 8004ea6:	1e06      	subs	r6, r0, #0
 8004ea8:	d111      	bne.n	8004ece <__mdiff+0x3a>
 8004eaa:	4631      	mov	r1, r6
 8004eac:	4638      	mov	r0, r7
 8004eae:	f7ff fd5b 	bl	8004968 <_Balloc>
 8004eb2:	4602      	mov	r2, r0
 8004eb4:	b928      	cbnz	r0, 8004ec2 <__mdiff+0x2e>
 8004eb6:	f240 2137 	movw	r1, #567	; 0x237
 8004eba:	4b3a      	ldr	r3, [pc, #232]	; (8004fa4 <__mdiff+0x110>)
 8004ebc:	483a      	ldr	r0, [pc, #232]	; (8004fa8 <__mdiff+0x114>)
 8004ebe:	f000 fe95 	bl	8005bec <__assert_func>
 8004ec2:	2301      	movs	r3, #1
 8004ec4:	e9c0 3604 	strd	r3, r6, [r0, #16]
 8004ec8:	4610      	mov	r0, r2
 8004eca:	e8bd 8ff8 	ldmia.w	sp!, {r3, r4, r5, r6, r7, r8, r9, sl, fp, pc}
 8004ece:	bfa4      	itt	ge
 8004ed0:	4623      	movge	r3, r4
 8004ed2:	462c      	movge	r4, r5
 8004ed4:	4638      	mov	r0, r7
 8004ed6:	6861      	ldr	r1, [r4, #4]
 8004ed8:	bfa6      	itte	ge
 8004eda:	461d      	movge	r5, r3
 8004edc:	2600      	movge	r6, #0
 8004ede:	2601      	movlt	r6, #1
 8004ee0:	f7ff fd42 	bl	8004968 <_Balloc>
 8004ee4:	4602      	mov	r2, r0
 8004ee6:	b918      	cbnz	r0, 8004ef0 <__mdiff+0x5c>
 8004ee8:	f240 2145 	movw	r1, #581	; 0x245
 8004eec:	4b2d      	ldr	r3, [pc, #180]	; (8004fa4 <__mdiff+0x110>)
 8004eee:	e7e5      	b.n	8004ebc <__mdiff+0x28>
 8004ef0:	f102 0814 	add.w	r8, r2, #20
 8004ef4:	46c2      	mov	sl, r8
 8004ef6:	f04f 0c00 	mov.w	ip, #0
 8004efa:	6927      	ldr	r7, [r4, #16]
 8004efc:	60c6      	str	r6, [r0, #12]
 8004efe:	692e      	ldr	r6, [r5, #16]
 8004f00:	f104 0014 	add.w	r0, r4, #20
 8004f04:	f105 0914 	add.w	r9, r5, #20
 8004f08:	eb00 0e87 	add.w	lr, r0, r7, lsl #2
 8004f0c:	eb09 0686 	add.w	r6, r9, r6, lsl #2
 8004f10:	3410      	adds	r4, #16
 8004f12:	f854 bf04 	ldr.w	fp, [r4, #4]!
 8004f16:	f859 3b04 	ldr.w	r3, [r9], #4
 8004f1a:	fa1f f18b 	uxth.w	r1, fp
 8004f1e:	4461      	add	r1, ip
 8004f20:	fa1f fc83 	uxth.w	ip, r3
 8004f24:	0c1b      	lsrs	r3, r3, #16
 8004f26:	eba1 010c 	sub.w	r1, r1, ip
 8004f2a:	ebc3 431b 	rsb	r3, r3, fp, lsr #16
 8004f2e:	eb03 4321 	add.w	r3, r3, r1, asr #16
 8004f32:	b289      	uxth	r1, r1
 8004f34:	ea41 4103 	orr.w	r1, r1, r3, lsl #16
 8004f38:	454e      	cmp	r6, r9
 8004f3a:	ea4f 4c23 	mov.w	ip, r3, asr #16
 8004f3e:	f84a 1b04 	str.w	r1, [sl], #4
 8004f42:	d8e6      	bhi.n	8004f12 <__mdiff+0x7e>
 8004f44:	1b73      	subs	r3, r6, r5
 8004f46:	3b15      	subs	r3, #21
 8004f48:	f023 0303 	bic.w	r3, r3, #3
 8004f4c:	3515      	adds	r5, #21
 8004f4e:	3304      	adds	r3, #4
 8004f50:	42ae      	cmp	r6, r5
 8004f52:	bf38      	it	cc
 8004f54:	2304      	movcc	r3, #4
 8004f56:	4418      	add	r0, r3
 8004f58:	4443      	add	r3, r8
 8004f5a:	461e      	mov	r6, r3
 8004f5c:	4605      	mov	r5, r0
 8004f5e:	4575      	cmp	r5, lr
 8004f60:	d30e      	bcc.n	8004f80 <__mdiff+0xec>
 8004f62:	f10e 0103 	add.w	r1, lr, #3
 8004f66:	1a09      	subs	r1, r1, r0
 8004f68:	f021 0103 	bic.w	r1, r1, #3
 8004f6c:	3803      	subs	r0, #3
 8004f6e:	4586      	cmp	lr, r0
 8004f70:	bf38      	it	cc
 8004f72:	2100      	movcc	r1, #0
 8004f74:	440b      	add	r3, r1
 8004f76:	f853 1d04 	ldr.w	r1, [r3, #-4]!
 8004f7a:	b189      	cbz	r1, 8004fa0 <__mdiff+0x10c>
 8004f7c:	6117      	str	r7, [r2, #16]
 8004f7e:	e7a3      	b.n	8004ec8 <__mdiff+0x34>
 8004f80:	f855 8b04 	ldr.w	r8, [r5], #4
 8004f84:	fa1f f188 	uxth.w	r1, r8
 8004f88:	4461      	add	r1, ip
 8004f8a:	140c      	asrs	r4, r1, #16
 8004f8c:	eb04 4418 	add.w	r4, r4, r8, lsr #16
 8004f90:	b289      	uxth	r1, r1
 8004f92:	ea41 4104 	orr.w	r1, r1, r4, lsl #16
 8004f96:	ea4f 4c24 	mov.w	ip, r4, asr #16
 8004f9a:	f846 1b04 	str.w	r1, [r6], #4
 8004f9e:	e7de      	b.n	8004f5e <__mdiff+0xca>
 8004fa0:	3f01      	subs	r7, #1
 8004fa2:	e7e8      	b.n	8004f76 <__mdiff+0xe2>
 8004fa4:	080065be 	.word	0x080065be
 8004fa8:	080065cf 	.word	0x080065cf

08004fac <__d2b>:
 8004fac:	b5f7      	push	{r0, r1, r2, r4, r5, r6, r7, lr}
 8004fae:	2101      	movs	r1, #1
 8004fb0:	4617      	mov	r7, r2
 8004fb2:	461c      	mov	r4, r3
 8004fb4:	9e08      	ldr	r6, [sp, #32]
 8004fb6:	f7ff fcd7 	bl	8004968 <_Balloc>
 8004fba:	4605      	mov	r5, r0
 8004fbc:	b930      	cbnz	r0, 8004fcc <__d2b+0x20>
 8004fbe:	4602      	mov	r2, r0
 8004fc0:	f240 310f 	movw	r1, #783	; 0x30f
 8004fc4:	4b22      	ldr	r3, [pc, #136]	; (8005050 <__d2b+0xa4>)
 8004fc6:	4823      	ldr	r0, [pc, #140]	; (8005054 <__d2b+0xa8>)
 8004fc8:	f000 fe10 	bl	8005bec <__assert_func>
 8004fcc:	f3c4 0313 	ubfx	r3, r4, #0, #20
 8004fd0:	f3c4 540a 	ubfx	r4, r4, #20, #11
 8004fd4:	bb24      	cbnz	r4, 8005020 <__d2b+0x74>
 8004fd6:	2f00      	cmp	r7, #0
 8004fd8:	9301      	str	r3, [sp, #4]
 8004fda:	d026      	beq.n	800502a <__d2b+0x7e>
 8004fdc:	4668      	mov	r0, sp
 8004fde:	9700      	str	r7, [sp, #0]
 8004fe0:	f7ff fd8a 	bl	8004af8 <__lo0bits>
 8004fe4:	e9dd 1200 	ldrd	r1, r2, [sp]
 8004fe8:	b1e8      	cbz	r0, 8005026 <__d2b+0x7a>
 8004fea:	f1c0 0320 	rsb	r3, r0, #32
 8004fee:	fa02 f303 	lsl.w	r3, r2, r3
 8004ff2:	430b      	orrs	r3, r1
 8004ff4:	40c2      	lsrs	r2, r0
 8004ff6:	616b      	str	r3, [r5, #20]
 8004ff8:	9201      	str	r2, [sp, #4]
 8004ffa:	9b01      	ldr	r3, [sp, #4]
 8004ffc:	2b00      	cmp	r3, #0
 8004ffe:	bf14      	ite	ne
 8005000:	2102      	movne	r1, #2
 8005002:	2101      	moveq	r1, #1
 8005004:	61ab      	str	r3, [r5, #24]
 8005006:	6129      	str	r1, [r5, #16]
 8005008:	b1bc      	cbz	r4, 800503a <__d2b+0x8e>
 800500a:	f2a4 4433 	subw	r4, r4, #1075	; 0x433
 800500e:	4404      	add	r4, r0
 8005010:	6034      	str	r4, [r6, #0]
 8005012:	f1c0 0035 	rsb	r0, r0, #53	; 0x35
 8005016:	9b09      	ldr	r3, [sp, #36]	; 0x24
 8005018:	6018      	str	r0, [r3, #0]
 800501a:	4628      	mov	r0, r5
 800501c:	b003      	add	sp, #12
 800501e:	bdf0      	pop	{r4, r5, r6, r7, pc}
 8005020:	f443 1380 	orr.w	r3, r3, #1048576	; 0x100000
 8005024:	e7d7      	b.n	8004fd6 <__d2b+0x2a>
 8005026:	6169      	str	r1, [r5, #20]
 8005028:	e7e7      	b.n	8004ffa <__d2b+0x4e>
 800502a:	a801      	add	r0, sp, #4
 800502c:	f7ff fd64 	bl	8004af8 <__lo0bits>
 8005030:	9b01      	ldr	r3, [sp, #4]
 8005032:	2101      	movs	r1, #1
 8005034:	616b      	str	r3, [r5, #20]
 8005036:	3020      	adds	r0, #32
 8005038:	e7e5      	b.n	8005006 <__d2b+0x5a>
 800503a:	f2a0 4032 	subw	r0, r0, #1074	; 0x432
 800503e:	eb05 0381 	add.w	r3, r5, r1, lsl #2
 8005042:	6030      	str	r0, [r6, #0]
 8005044:	6918      	ldr	r0, [r3, #16]
 8005046:	f7ff fd37 	bl	8004ab8 <__hi0bits>
 800504a:	ebc0 1041 	rsb	r0, r0, r1, lsl #5
 800504e:	e7e2      	b.n	8005016 <__d2b+0x6a>
 8005050:	080065be 	.word	0x080065be
 8005054:	080065cf 	.word	0x080065cf

08005058 <__ssputs_r>:
 8005058:	e92d 47f0 	stmdb	sp!, {r4, r5, r6, r7, r8, r9, sl, lr}
 800505c:	461f      	mov	r7, r3
 800505e:	688e      	ldr	r6, [r1, #8]
 8005060:	4682      	mov	sl, r0
 8005062:	42be      	cmp	r6, r7
 8005064:	460c      	mov	r4, r1
 8005066:	4690      	mov	r8, r2
 8005068:	680b      	ldr	r3, [r1, #0]
 800506a:	d82c      	bhi.n	80050c6 <__ssputs_r+0x6e>
 800506c:	898a      	ldrh	r2, [r1, #12]
 800506e:	f412 6f90 	tst.w	r2, #1152	; 0x480
 8005072:	d026      	beq.n	80050c2 <__ssputs_r+0x6a>
 8005074:	6965      	ldr	r5, [r4, #20]
 8005076:	6909      	ldr	r1, [r1, #16]
 8005078:	eb05 0545 	add.w	r5, r5, r5, lsl #1
 800507c:	eba3 0901 	sub.w	r9, r3, r1
 8005080:	eb05 75d5 	add.w	r5, r5, r5, lsr #31
 8005084:	1c7b      	adds	r3, r7, #1
 8005086:	444b      	add	r3, r9
 8005088:	106d      	asrs	r5, r5, #1
 800508a:	429d      	cmp	r5, r3
 800508c:	bf38      	it	cc
 800508e:	461d      	movcc	r5, r3
 8005090:	0553      	lsls	r3, r2, #21
 8005092:	d527      	bpl.n	80050e4 <__ssputs_r+0x8c>
 8005094:	4629      	mov	r1, r5
 8005096:	f7ff fbdb 	bl	8004850 <_malloc_r>
 800509a:	4606      	mov	r6, r0
 800509c:	b360      	cbz	r0, 80050f8 <__ssputs_r+0xa0>
 800509e:	464a      	mov	r2, r9
 80050a0:	6921      	ldr	r1, [r4, #16]
 80050a2:	f000 fd95 	bl	8005bd0 <memcpy>
 80050a6:	89a3      	ldrh	r3, [r4, #12]
 80050a8:	f423 6390 	bic.w	r3, r3, #1152	; 0x480
 80050ac:	f043 0380 	orr.w	r3, r3, #128	; 0x80
 80050b0:	81a3      	strh	r3, [r4, #12]
 80050b2:	6126      	str	r6, [r4, #16]
 80050b4:	444e      	add	r6, r9
 80050b6:	6026      	str	r6, [r4, #0]
 80050b8:	463e      	mov	r6, r7
 80050ba:	6165      	str	r5, [r4, #20]
 80050bc:	eba5 0509 	sub.w	r5, r5, r9
 80050c0:	60a5      	str	r5, [r4, #8]
 80050c2:	42be      	cmp	r6, r7
 80050c4:	d900      	bls.n	80050c8 <__ssputs_r+0x70>
 80050c6:	463e      	mov	r6, r7
 80050c8:	4632      	mov	r2, r6
 80050ca:	4641      	mov	r1, r8
 80050cc:	6820      	ldr	r0, [r4, #0]
 80050ce:	f000 fd54 	bl	8005b7a <memmove>
 80050d2:	2000      	movs	r0, #0
 80050d4:	68a3      	ldr	r3, [r4, #8]
 80050d6:	1b9b      	subs	r3, r3, r6
 80050d8:	60a3      	str	r3, [r4, #8]
 80050da:	6823      	ldr	r3, [r4, #0]
 80050dc:	4433      	add	r3, r6
 80050de:	6023      	str	r3, [r4, #0]
 80050e0:	e8bd 87f0 	ldmia.w	sp!, {r4, r5, r6, r7, r8, r9, sl, pc}
 80050e4:	462a      	mov	r2, r5
 80050e6:	f000 fdc5 	bl	8005c74 <_realloc_r>
 80050ea:	4606      	mov	r6, r0
 80050ec:	2800      	cmp	r0, #0
 80050ee:	d1e0      	bne.n	80050b2 <__ssputs_r+0x5a>
 80050f0:	4650      	mov	r0, sl
 80050f2:	6921      	ldr	r1, [r4, #16]
 80050f4:	f7ff fb3c 	bl	8004770 <_free_r>
 80050f8:	230c      	movs	r3, #12
 80050fa:	f8ca 3000 	str.w	r3, [sl]
 80050fe:	89a3      	ldrh	r3, [r4, #12]
 8005100:	f04f 30ff 	mov.w	r0, #4294967295
 8005104:	f043 0340 	orr.w	r3, r3, #64	; 0x40
 8005108:	81a3      	strh	r3, [r4, #12]
 800510a:	e7e9      	b.n	80050e0 <__ssputs_r+0x88>

0800510c <_svfiprintf_r>:
 800510c:	e92d 4ff0 	stmdb	sp!, {r4, r5, r6, r7, r8, r9, sl, fp, lr}
 8005110:	4698      	mov	r8, r3
 8005112:	898b      	ldrh	r3, [r1, #12]
 8005114:	4607      	mov	r7, r0
 8005116:	061b      	lsls	r3, r3, #24
 8005118:	460d      	mov	r5, r1
 800511a:	4614      	mov	r4, r2
 800511c:	b09d      	sub	sp, #116	; 0x74
 800511e:	d50e      	bpl.n	800513e <_svfiprintf_r+0x32>
 8005120:	690b      	ldr	r3, [r1, #16]
 8005122:	b963      	cbnz	r3, 800513e <_svfiprintf_r+0x32>
 8005124:	2140      	movs	r1, #64	; 0x40
 8005126:	f7ff fb93 	bl	8004850 <_malloc_r>
 800512a:	6028      	str	r0, [r5, #0]
 800512c:	6128      	str	r0, [r5, #16]
 800512e:	b920      	cbnz	r0, 800513a <_svfiprintf_r+0x2e>
 8005130:	230c      	movs	r3, #12
 8005132:	603b      	str	r3, [r7, #0]
 8005134:	f04f 30ff 	mov.w	r0, #4294967295
 8005138:	e0d0      	b.n	80052dc <_svfiprintf_r+0x1d0>
 800513a:	2340      	movs	r3, #64	; 0x40
 800513c:	616b      	str	r3, [r5, #20]
 800513e:	2300      	movs	r3, #0
 8005140:	9309      	str	r3, [sp, #36]	; 0x24
 8005142:	2320      	movs	r3, #32
 8005144:	f88d 3029 	strb.w	r3, [sp, #41]	; 0x29
 8005148:	2330      	movs	r3, #48	; 0x30
 800514a:	f04f 0901 	mov.w	r9, #1
 800514e:	f8cd 800c 	str.w	r8, [sp, #12]
 8005152:	f8df 81a0 	ldr.w	r8, [pc, #416]	; 80052f4 <_svfiprintf_r+0x1e8>
 8005156:	f88d 302a 	strb.w	r3, [sp, #42]	; 0x2a
 800515a:	4623      	mov	r3, r4
 800515c:	469a      	mov	sl, r3
 800515e:	f813 2b01 	ldrb.w	r2, [r3], #1
 8005162:	b10a      	cbz	r2, 8005168 <_svfiprintf_r+0x5c>
 8005164:	2a25      	cmp	r2, #37	; 0x25
 8005166:	d1f9      	bne.n	800515c <_svfiprintf_r+0x50>
 8005168:	ebba 0b04 	subs.w	fp, sl, r4
 800516c:	d00b      	beq.n	8005186 <_svfiprintf_r+0x7a>
 800516e:	465b      	mov	r3, fp
 8005170:	4622      	mov	r2, r4
 8005172:	4629      	mov	r1, r5
 8005174:	4638      	mov	r0, r7
 8005176:	f7ff ff6f 	bl	8005058 <__ssputs_r>
 800517a:	3001      	adds	r0, #1
 800517c:	f000 80a9 	beq.w	80052d2 <_svfiprintf_r+0x1c6>
 8005180:	9a09      	ldr	r2, [sp, #36]	; 0x24
 8005182:	445a      	add	r2, fp
 8005184:	9209      	str	r2, [sp, #36]	; 0x24
 8005186:	f89a 3000 	ldrb.w	r3, [sl]
 800518a:	2b00      	cmp	r3, #0
 800518c:	f000 80a1 	beq.w	80052d2 <_svfiprintf_r+0x1c6>
 8005190:	2300      	movs	r3, #0
 8005192:	f04f 32ff 	mov.w	r2, #4294967295
 8005196:	e9cd 2305 	strd	r2, r3, [sp, #20]
 800519a:	f10a 0a01 	add.w	sl, sl, #1
 800519e:	9304      	str	r3, [sp, #16]
 80051a0:	9307      	str	r3, [sp, #28]
 80051a2:	f88d 3053 	strb.w	r3, [sp, #83]	; 0x53
 80051a6:	931a      	str	r3, [sp, #104]	; 0x68
 80051a8:	4654      	mov	r4, sl
 80051aa:	2205      	movs	r2, #5
 80051ac:	f814 1b01 	ldrb.w	r1, [r4], #1
 80051b0:	4850      	ldr	r0, [pc, #320]	; (80052f4 <_svfiprintf_r+0x1e8>)
 80051b2:	f7fe fc61 	bl	8003a78 <memchr>
 80051b6:	9a04      	ldr	r2, [sp, #16]
 80051b8:	b9d8      	cbnz	r0, 80051f2 <_svfiprintf_r+0xe6>
 80051ba:	06d0      	lsls	r0, r2, #27
 80051bc:	bf44      	itt	mi
 80051be:	2320      	movmi	r3, #32
 80051c0:	f88d 3053 	strbmi.w	r3, [sp, #83]	; 0x53
 80051c4:	0711      	lsls	r1, r2, #28
 80051c6:	bf44      	itt	mi
 80051c8:	232b      	movmi	r3, #43	; 0x2b
 80051ca:	f88d 3053 	strbmi.w	r3, [sp, #83]	; 0x53
 80051ce:	f89a 3000 	ldrb.w	r3, [sl]
 80051d2:	2b2a      	cmp	r3, #42	; 0x2a
 80051d4:	d015      	beq.n	8005202 <_svfiprintf_r+0xf6>
 80051d6:	4654      	mov	r4, sl
 80051d8:	2000      	movs	r0, #0
 80051da:	f04f 0c0a 	mov.w	ip, #10
 80051de:	9a07      	ldr	r2, [sp, #28]
 80051e0:	4621      	mov	r1, r4
 80051e2:	f811 3b01 	ldrb.w	r3, [r1], #1
 80051e6:	3b30      	subs	r3, #48	; 0x30
 80051e8:	2b09      	cmp	r3, #9
 80051ea:	d94d      	bls.n	8005288 <_svfiprintf_r+0x17c>
 80051ec:	b1b0      	cbz	r0, 800521c <_svfiprintf_r+0x110>
 80051ee:	9207      	str	r2, [sp, #28]
 80051f0:	e014      	b.n	800521c <_svfiprintf_r+0x110>
 80051f2:	eba0 0308 	sub.w	r3, r0, r8
 80051f6:	fa09 f303 	lsl.w	r3, r9, r3
 80051fa:	4313      	orrs	r3, r2
 80051fc:	46a2      	mov	sl, r4
 80051fe:	9304      	str	r3, [sp, #16]
 8005200:	e7d2      	b.n	80051a8 <_svfiprintf_r+0x9c>
 8005202:	9b03      	ldr	r3, [sp, #12]
 8005204:	1d19      	adds	r1, r3, #4
 8005206:	681b      	ldr	r3, [r3, #0]
 8005208:	9103      	str	r1, [sp, #12]
 800520a:	2b00      	cmp	r3, #0
 800520c:	bfbb      	ittet	lt
 800520e:	425b      	neglt	r3, r3
 8005210:	f042 0202 	orrlt.w	r2, r2, #2
 8005214:	9307      	strge	r3, [sp, #28]
 8005216:	9307      	strlt	r3, [sp, #28]
 8005218:	bfb8      	it	lt
 800521a:	9204      	strlt	r2, [sp, #16]
 800521c:	7823      	ldrb	r3, [r4, #0]
 800521e:	2b2e      	cmp	r3, #46	; 0x2e
 8005220:	d10c      	bne.n	800523c <_svfiprintf_r+0x130>
 8005222:	7863      	ldrb	r3, [r4, #1]
 8005224:	2b2a      	cmp	r3, #42	; 0x2a
 8005226:	d134      	bne.n	8005292 <_svfiprintf_r+0x186>
 8005228:	9b03      	ldr	r3, [sp, #12]
 800522a:	3402      	adds	r4, #2
 800522c:	1d1a      	adds	r2, r3, #4
 800522e:	681b      	ldr	r3, [r3, #0]
 8005230:	9203      	str	r2, [sp, #12]
 8005232:	2b00      	cmp	r3, #0
 8005234:	bfb8      	it	lt
 8005236:	f04f 33ff 	movlt.w	r3, #4294967295
 800523a:	9305      	str	r3, [sp, #20]
 800523c:	f8df a0b8 	ldr.w	sl, [pc, #184]	; 80052f8 <_svfiprintf_r+0x1ec>
 8005240:	2203      	movs	r2, #3
 8005242:	4650      	mov	r0, sl
 8005244:	7821      	ldrb	r1, [r4, #0]
 8005246:	f7fe fc17 	bl	8003a78 <memchr>
 800524a:	b138      	cbz	r0, 800525c <_svfiprintf_r+0x150>
 800524c:	2240      	movs	r2, #64	; 0x40
 800524e:	9b04      	ldr	r3, [sp, #16]
 8005250:	eba0 000a 	sub.w	r0, r0, sl
 8005254:	4082      	lsls	r2, r0
 8005256:	4313      	orrs	r3, r2
 8005258:	3401      	adds	r4, #1
 800525a:	9304      	str	r3, [sp, #16]
 800525c:	f814 1b01 	ldrb.w	r1, [r4], #1
 8005260:	2206      	movs	r2, #6
 8005262:	4826      	ldr	r0, [pc, #152]	; (80052fc <_svfiprintf_r+0x1f0>)
 8005264:	f88d 1028 	strb.w	r1, [sp, #40]	; 0x28
 8005268:	f7fe fc06 	bl	8003a78 <memchr>
 800526c:	2800      	cmp	r0, #0
 800526e:	d038      	beq.n	80052e2 <_svfiprintf_r+0x1d6>
 8005270:	4b23      	ldr	r3, [pc, #140]	; (8005300 <_svfiprintf_r+0x1f4>)
 8005272:	bb1b      	cbnz	r3, 80052bc <_svfiprintf_r+0x1b0>
 8005274:	9b03      	ldr	r3, [sp, #12]
 8005276:	3307      	adds	r3, #7
 8005278:	f023 0307 	bic.w	r3, r3, #7
 800527c:	3308      	adds	r3, #8
 800527e:	9303      	str	r3, [sp, #12]
 8005280:	9b09      	ldr	r3, [sp, #36]	; 0x24
 8005282:	4433      	add	r3, r6
 8005284:	9309      	str	r3, [sp, #36]	; 0x24
 8005286:	e768      	b.n	800515a <_svfiprintf_r+0x4e>
 8005288:	460c      	mov	r4, r1
 800528a:	2001      	movs	r0, #1
 800528c:	fb0c 3202 	mla	r2, ip, r2, r3
 8005290:	e7a6      	b.n	80051e0 <_svfiprintf_r+0xd4>
 8005292:	2300      	movs	r3, #0
 8005294:	f04f 0c0a 	mov.w	ip, #10
 8005298:	4619      	mov	r1, r3
 800529a:	3401      	adds	r4, #1
 800529c:	9305      	str	r3, [sp, #20]
 800529e:	4620      	mov	r0, r4
 80052a0:	f810 2b01 	ldrb.w	r2, [r0], #1
 80052a4:	3a30      	subs	r2, #48	; 0x30
 80052a6:	2a09      	cmp	r2, #9
 80052a8:	d903      	bls.n	80052b2 <_svfiprintf_r+0x1a6>
 80052aa:	2b00      	cmp	r3, #0
 80052ac:	d0c6      	beq.n	800523c <_svfiprintf_r+0x130>
 80052ae:	9105      	str	r1, [sp, #20]
 80052b0:	e7c4      	b.n	800523c <_svfiprintf_r+0x130>
 80052b2:	4604      	mov	r4, r0
 80052b4:	2301      	movs	r3, #1
 80052b6:	fb0c 2101 	mla	r1, ip, r1, r2
 80052ba:	e7f0      	b.n	800529e <_svfiprintf_r+0x192>
 80052bc:	ab03      	add	r3, sp, #12
 80052be:	9300      	str	r3, [sp, #0]
 80052c0:	462a      	mov	r2, r5
 80052c2:	4638      	mov	r0, r7
 80052c4:	4b0f      	ldr	r3, [pc, #60]	; (8005304 <_svfiprintf_r+0x1f8>)
 80052c6:	a904      	add	r1, sp, #16
 80052c8:	f7fd fe10 	bl	8002eec <_printf_float>
 80052cc:	1c42      	adds	r2, r0, #1
 80052ce:	4606      	mov	r6, r0
 80052d0:	d1d6      	bne.n	8005280 <_svfiprintf_r+0x174>
 80052d2:	89ab      	ldrh	r3, [r5, #12]
 80052d4:	065b      	lsls	r3, r3, #25
 80052d6:	f53f af2d 	bmi.w	8005134 <_svfiprintf_r+0x28>
 80052da:	9809      	ldr	r0, [sp, #36]	; 0x24
 80052dc:	b01d      	add	sp, #116	; 0x74
 80052de:	e8bd 8ff0 	ldmia.w	sp!, {r4, r5, r6, r7, r8, r9, sl, fp, pc}
 80052e2:	ab03      	add	r3, sp, #12
 80052e4:	9300      	str	r3, [sp, #0]
 80052e6:	462a      	mov	r2, r5
 80052e8:	4638      	mov	r0, r7
 80052ea:	4b06      	ldr	r3, [pc, #24]	; (8005304 <_svfiprintf_r+0x1f8>)
 80052ec:	a904      	add	r1, sp, #16
 80052ee:	f7fe f89d 	bl	800342c <_printf_i>
 80052f2:	e7eb      	b.n	80052cc <_svfiprintf_r+0x1c0>
 80052f4:	08006724 	.word	0x08006724
 80052f8:	0800672a 	.word	0x0800672a
 80052fc:	0800672e 	.word	0x0800672e
 8005300:	08002eed 	.word	0x08002eed
 8005304:	08005059 	.word	0x08005059

08005308 <_sungetc_r>:
 8005308:	b538      	push	{r3, r4, r5, lr}
 800530a:	1c4b      	adds	r3, r1, #1
 800530c:	4614      	mov	r4, r2
 800530e:	d103      	bne.n	8005318 <_sungetc_r+0x10>
 8005310:	f04f 35ff 	mov.w	r5, #4294967295
 8005314:	4628      	mov	r0, r5
 8005316:	bd38      	pop	{r3, r4, r5, pc}
 8005318:	8993      	ldrh	r3, [r2, #12]
 800531a:	b2cd      	uxtb	r5, r1
 800531c:	f023 0320 	bic.w	r3, r3, #32
 8005320:	8193      	strh	r3, [r2, #12]
 8005322:	6b63      	ldr	r3, [r4, #52]	; 0x34
 8005324:	6852      	ldr	r2, [r2, #4]
 8005326:	b18b      	cbz	r3, 800534c <_sungetc_r+0x44>
 8005328:	6ba3      	ldr	r3, [r4, #56]	; 0x38
 800532a:	4293      	cmp	r3, r2
 800532c:	dd08      	ble.n	8005340 <_sungetc_r+0x38>
 800532e:	6823      	ldr	r3, [r4, #0]
 8005330:	1e5a      	subs	r2, r3, #1
 8005332:	6022      	str	r2, [r4, #0]
 8005334:	f803 5c01 	strb.w	r5, [r3, #-1]
 8005338:	6863      	ldr	r3, [r4, #4]
 800533a:	3301      	adds	r3, #1
 800533c:	6063      	str	r3, [r4, #4]
 800533e:	e7e9      	b.n	8005314 <_sungetc_r+0xc>
 8005340:	4621      	mov	r1, r4
 8005342:	f000 fbe2 	bl	8005b0a <__submore>
 8005346:	2800      	cmp	r0, #0
 8005348:	d0f1      	beq.n	800532e <_sungetc_r+0x26>
 800534a:	e7e1      	b.n	8005310 <_sungetc_r+0x8>
 800534c:	6921      	ldr	r1, [r4, #16]
 800534e:	6823      	ldr	r3, [r4, #0]
 8005350:	b151      	cbz	r1, 8005368 <_sungetc_r+0x60>
 8005352:	4299      	cmp	r1, r3
 8005354:	d208      	bcs.n	8005368 <_sungetc_r+0x60>
 8005356:	f813 1c01 	ldrb.w	r1, [r3, #-1]
 800535a:	42a9      	cmp	r1, r5
 800535c:	d104      	bne.n	8005368 <_sungetc_r+0x60>
 800535e:	3b01      	subs	r3, #1
 8005360:	3201      	adds	r2, #1
 8005362:	6023      	str	r3, [r4, #0]
 8005364:	6062      	str	r2, [r4, #4]
 8005366:	e7d5      	b.n	8005314 <_sungetc_r+0xc>
 8005368:	e9c4 320f 	strd	r3, r2, [r4, #60]	; 0x3c
 800536c:	f104 0344 	add.w	r3, r4, #68	; 0x44
 8005370:	6363      	str	r3, [r4, #52]	; 0x34
 8005372:	2303      	movs	r3, #3
 8005374:	63a3      	str	r3, [r4, #56]	; 0x38
 8005376:	4623      	mov	r3, r4
 8005378:	f803 5f46 	strb.w	r5, [r3, #70]!
 800537c:	6023      	str	r3, [r4, #0]
 800537e:	2301      	movs	r3, #1
 8005380:	e7dc      	b.n	800533c <_sungetc_r+0x34>

08005382 <__ssrefill_r>:
 8005382:	b510      	push	{r4, lr}
 8005384:	460c      	mov	r4, r1
 8005386:	6b49      	ldr	r1, [r1, #52]	; 0x34
 8005388:	b169      	cbz	r1, 80053a6 <__ssrefill_r+0x24>
 800538a:	f104 0344 	add.w	r3, r4, #68	; 0x44
 800538e:	4299      	cmp	r1, r3
 8005390:	d001      	beq.n	8005396 <__ssrefill_r+0x14>
 8005392:	f7ff f9ed 	bl	8004770 <_free_r>
 8005396:	2000      	movs	r0, #0
 8005398:	6c23      	ldr	r3, [r4, #64]	; 0x40
 800539a:	6360      	str	r0, [r4, #52]	; 0x34
 800539c:	6063      	str	r3, [r4, #4]
 800539e:	b113      	cbz	r3, 80053a6 <__ssrefill_r+0x24>
 80053a0:	6be3      	ldr	r3, [r4, #60]	; 0x3c
 80053a2:	6023      	str	r3, [r4, #0]
 80053a4:	bd10      	pop	{r4, pc}
 80053a6:	6923      	ldr	r3, [r4, #16]
 80053a8:	f04f 30ff 	mov.w	r0, #4294967295
 80053ac:	6023      	str	r3, [r4, #0]
 80053ae:	2300      	movs	r3, #0
 80053b0:	6063      	str	r3, [r4, #4]
 80053b2:	89a3      	ldrh	r3, [r4, #12]
 80053b4:	f043 0320 	orr.w	r3, r3, #32
 80053b8:	81a3      	strh	r3, [r4, #12]
 80053ba:	e7f3      	b.n	80053a4 <__ssrefill_r+0x22>

080053bc <__ssvfiscanf_r>:
 80053bc:	e92d 47f0 	stmdb	sp!, {r4, r5, r6, r7, r8, r9, sl, lr}
 80053c0:	460c      	mov	r4, r1
 80053c2:	2100      	movs	r1, #0
 80053c4:	4606      	mov	r6, r0
 80053c6:	f5ad 7d22 	sub.w	sp, sp, #648	; 0x288
 80053ca:	e9cd 1144 	strd	r1, r1, [sp, #272]	; 0x110
 80053ce:	49a6      	ldr	r1, [pc, #664]	; (8005668 <__ssvfiscanf_r+0x2ac>)
 80053d0:	f10d 0804 	add.w	r8, sp, #4
 80053d4:	91a0      	str	r1, [sp, #640]	; 0x280
 80053d6:	49a5      	ldr	r1, [pc, #660]	; (800566c <__ssvfiscanf_r+0x2b0>)
 80053d8:	4fa5      	ldr	r7, [pc, #660]	; (8005670 <__ssvfiscanf_r+0x2b4>)
 80053da:	f8df 9298 	ldr.w	r9, [pc, #664]	; 8005674 <__ssvfiscanf_r+0x2b8>
 80053de:	f8cd 8118 	str.w	r8, [sp, #280]	; 0x118
 80053e2:	91a1      	str	r1, [sp, #644]	; 0x284
 80053e4:	9300      	str	r3, [sp, #0]
 80053e6:	7813      	ldrb	r3, [r2, #0]
 80053e8:	2b00      	cmp	r3, #0
 80053ea:	f000 815a 	beq.w	80056a2 <__ssvfiscanf_r+0x2e6>
 80053ee:	5cf9      	ldrb	r1, [r7, r3]
 80053f0:	1c55      	adds	r5, r2, #1
 80053f2:	f011 0108 	ands.w	r1, r1, #8
 80053f6:	d019      	beq.n	800542c <__ssvfiscanf_r+0x70>
 80053f8:	6863      	ldr	r3, [r4, #4]
 80053fa:	2b00      	cmp	r3, #0
 80053fc:	dd0f      	ble.n	800541e <__ssvfiscanf_r+0x62>
 80053fe:	6823      	ldr	r3, [r4, #0]
 8005400:	781a      	ldrb	r2, [r3, #0]
 8005402:	5cba      	ldrb	r2, [r7, r2]
 8005404:	0712      	lsls	r2, r2, #28
 8005406:	d401      	bmi.n	800540c <__ssvfiscanf_r+0x50>
 8005408:	462a      	mov	r2, r5
 800540a:	e7ec      	b.n	80053e6 <__ssvfiscanf_r+0x2a>
 800540c:	9a45      	ldr	r2, [sp, #276]	; 0x114
 800540e:	3301      	adds	r3, #1
 8005410:	3201      	adds	r2, #1
 8005412:	9245      	str	r2, [sp, #276]	; 0x114
 8005414:	6862      	ldr	r2, [r4, #4]
 8005416:	6023      	str	r3, [r4, #0]
 8005418:	3a01      	subs	r2, #1
 800541a:	6062      	str	r2, [r4, #4]
 800541c:	e7ec      	b.n	80053f8 <__ssvfiscanf_r+0x3c>
 800541e:	4621      	mov	r1, r4
 8005420:	4630      	mov	r0, r6
 8005422:	9ba1      	ldr	r3, [sp, #644]	; 0x284
 8005424:	4798      	blx	r3
 8005426:	2800      	cmp	r0, #0
 8005428:	d0e9      	beq.n	80053fe <__ssvfiscanf_r+0x42>
 800542a:	e7ed      	b.n	8005408 <__ssvfiscanf_r+0x4c>
 800542c:	2b25      	cmp	r3, #37	; 0x25
 800542e:	d012      	beq.n	8005456 <__ssvfiscanf_r+0x9a>
 8005430:	469a      	mov	sl, r3
 8005432:	6863      	ldr	r3, [r4, #4]
 8005434:	2b00      	cmp	r3, #0
 8005436:	f340 8092 	ble.w	800555e <__ssvfiscanf_r+0x1a2>
 800543a:	6822      	ldr	r2, [r4, #0]
 800543c:	7813      	ldrb	r3, [r2, #0]
 800543e:	4553      	cmp	r3, sl
 8005440:	f040 812f 	bne.w	80056a2 <__ssvfiscanf_r+0x2e6>
 8005444:	6863      	ldr	r3, [r4, #4]
 8005446:	3201      	adds	r2, #1
 8005448:	3b01      	subs	r3, #1
 800544a:	6063      	str	r3, [r4, #4]
 800544c:	9b45      	ldr	r3, [sp, #276]	; 0x114
 800544e:	6022      	str	r2, [r4, #0]
 8005450:	3301      	adds	r3, #1
 8005452:	9345      	str	r3, [sp, #276]	; 0x114
 8005454:	e7d8      	b.n	8005408 <__ssvfiscanf_r+0x4c>
 8005456:	9141      	str	r1, [sp, #260]	; 0x104
 8005458:	9143      	str	r1, [sp, #268]	; 0x10c
 800545a:	7853      	ldrb	r3, [r2, #1]
 800545c:	2b2a      	cmp	r3, #42	; 0x2a
 800545e:	bf04      	itt	eq
 8005460:	2310      	moveq	r3, #16
 8005462:	1c95      	addeq	r5, r2, #2
 8005464:	f04f 020a 	mov.w	r2, #10
 8005468:	bf08      	it	eq
 800546a:	9341      	streq	r3, [sp, #260]	; 0x104
 800546c:	46aa      	mov	sl, r5
 800546e:	f81a 1b01 	ldrb.w	r1, [sl], #1
 8005472:	f1a1 0330 	sub.w	r3, r1, #48	; 0x30
 8005476:	2b09      	cmp	r3, #9
 8005478:	d91c      	bls.n	80054b4 <__ssvfiscanf_r+0xf8>
 800547a:	2203      	movs	r2, #3
 800547c:	487d      	ldr	r0, [pc, #500]	; (8005674 <__ssvfiscanf_r+0x2b8>)
 800547e:	f7fe fafb 	bl	8003a78 <memchr>
 8005482:	b138      	cbz	r0, 8005494 <__ssvfiscanf_r+0xd8>
 8005484:	2301      	movs	r3, #1
 8005486:	4655      	mov	r5, sl
 8005488:	9a41      	ldr	r2, [sp, #260]	; 0x104
 800548a:	eba0 0009 	sub.w	r0, r0, r9
 800548e:	4083      	lsls	r3, r0
 8005490:	4313      	orrs	r3, r2
 8005492:	9341      	str	r3, [sp, #260]	; 0x104
 8005494:	f815 3b01 	ldrb.w	r3, [r5], #1
 8005498:	2b78      	cmp	r3, #120	; 0x78
 800549a:	d806      	bhi.n	80054aa <__ssvfiscanf_r+0xee>
 800549c:	2b57      	cmp	r3, #87	; 0x57
 800549e:	d810      	bhi.n	80054c2 <__ssvfiscanf_r+0x106>
 80054a0:	2b25      	cmp	r3, #37	; 0x25
 80054a2:	d0c5      	beq.n	8005430 <__ssvfiscanf_r+0x74>
 80054a4:	d856      	bhi.n	8005554 <__ssvfiscanf_r+0x198>
 80054a6:	2b00      	cmp	r3, #0
 80054a8:	d064      	beq.n	8005574 <__ssvfiscanf_r+0x1b8>
 80054aa:	2303      	movs	r3, #3
 80054ac:	9347      	str	r3, [sp, #284]	; 0x11c
 80054ae:	230a      	movs	r3, #10
 80054b0:	9342      	str	r3, [sp, #264]	; 0x108
 80054b2:	e075      	b.n	80055a0 <__ssvfiscanf_r+0x1e4>
 80054b4:	9b43      	ldr	r3, [sp, #268]	; 0x10c
 80054b6:	4655      	mov	r5, sl
 80054b8:	fb02 1103 	mla	r1, r2, r3, r1
 80054bc:	3930      	subs	r1, #48	; 0x30
 80054be:	9143      	str	r1, [sp, #268]	; 0x10c
 80054c0:	e7d4      	b.n	800546c <__ssvfiscanf_r+0xb0>
 80054c2:	f1a3 0258 	sub.w	r2, r3, #88	; 0x58
 80054c6:	2a20      	cmp	r2, #32
 80054c8:	d8ef      	bhi.n	80054aa <__ssvfiscanf_r+0xee>
 80054ca:	a101      	add	r1, pc, #4	; (adr r1, 80054d0 <__ssvfiscanf_r+0x114>)
 80054cc:	f851 f022 	ldr.w	pc, [r1, r2, lsl #2]
 80054d0:	08005583 	.word	0x08005583
 80054d4:	080054ab 	.word	0x080054ab
 80054d8:	080054ab 	.word	0x080054ab
 80054dc:	080055e1 	.word	0x080055e1
 80054e0:	080054ab 	.word	0x080054ab
 80054e4:	080054ab 	.word	0x080054ab
 80054e8:	080054ab 	.word	0x080054ab
 80054ec:	080054ab 	.word	0x080054ab
 80054f0:	080054ab 	.word	0x080054ab
 80054f4:	080054ab 	.word	0x080054ab
 80054f8:	080054ab 	.word	0x080054ab
 80054fc:	080055f7 	.word	0x080055f7
 8005500:	080055dd 	.word	0x080055dd
 8005504:	0800555b 	.word	0x0800555b
 8005508:	0800555b 	.word	0x0800555b
 800550c:	0800555b 	.word	0x0800555b
 8005510:	080054ab 	.word	0x080054ab
 8005514:	08005599 	.word	0x08005599
 8005518:	080054ab 	.word	0x080054ab
 800551c:	080054ab 	.word	0x080054ab
 8005520:	080054ab 	.word	0x080054ab
 8005524:	080054ab 	.word	0x080054ab
 8005528:	08005607 	.word	0x08005607
 800552c:	080055d5 	.word	0x080055d5
 8005530:	0800557b 	.word	0x0800557b
 8005534:	080054ab 	.word	0x080054ab
 8005538:	080054ab 	.word	0x080054ab
 800553c:	08005603 	.word	0x08005603
 8005540:	080054ab 	.word	0x080054ab
 8005544:	080055dd 	.word	0x080055dd
 8005548:	080054ab 	.word	0x080054ab
 800554c:	080054ab 	.word	0x080054ab
 8005550:	08005583 	.word	0x08005583
 8005554:	3b45      	subs	r3, #69	; 0x45
 8005556:	2b02      	cmp	r3, #2
 8005558:	d8a7      	bhi.n	80054aa <__ssvfiscanf_r+0xee>
 800555a:	2305      	movs	r3, #5
 800555c:	e01f      	b.n	800559e <__ssvfiscanf_r+0x1e2>
 800555e:	4621      	mov	r1, r4
 8005560:	4630      	mov	r0, r6
 8005562:	9ba1      	ldr	r3, [sp, #644]	; 0x284
 8005564:	4798      	blx	r3
 8005566:	2800      	cmp	r0, #0
 8005568:	f43f af67 	beq.w	800543a <__ssvfiscanf_r+0x7e>
 800556c:	9844      	ldr	r0, [sp, #272]	; 0x110
 800556e:	2800      	cmp	r0, #0
 8005570:	f040 808d 	bne.w	800568e <__ssvfiscanf_r+0x2d2>
 8005574:	f04f 30ff 	mov.w	r0, #4294967295
 8005578:	e08f      	b.n	800569a <__ssvfiscanf_r+0x2de>
 800557a:	9a41      	ldr	r2, [sp, #260]	; 0x104
 800557c:	f042 0220 	orr.w	r2, r2, #32
 8005580:	9241      	str	r2, [sp, #260]	; 0x104
 8005582:	9a41      	ldr	r2, [sp, #260]	; 0x104
 8005584:	f442 7200 	orr.w	r2, r2, #512	; 0x200
 8005588:	9241      	str	r2, [sp, #260]	; 0x104
 800558a:	2210      	movs	r2, #16
 800558c:	2b6f      	cmp	r3, #111	; 0x6f
 800558e:	bf34      	ite	cc
 8005590:	2303      	movcc	r3, #3
 8005592:	2304      	movcs	r3, #4
 8005594:	9242      	str	r2, [sp, #264]	; 0x108
 8005596:	e002      	b.n	800559e <__ssvfiscanf_r+0x1e2>
 8005598:	2300      	movs	r3, #0
 800559a:	9342      	str	r3, [sp, #264]	; 0x108
 800559c:	2303      	movs	r3, #3
 800559e:	9347      	str	r3, [sp, #284]	; 0x11c
 80055a0:	6863      	ldr	r3, [r4, #4]
 80055a2:	2b00      	cmp	r3, #0
 80055a4:	dd3d      	ble.n	8005622 <__ssvfiscanf_r+0x266>
 80055a6:	9b41      	ldr	r3, [sp, #260]	; 0x104
 80055a8:	0659      	lsls	r1, r3, #25
 80055aa:	d404      	bmi.n	80055b6 <__ssvfiscanf_r+0x1fa>
 80055ac:	6823      	ldr	r3, [r4, #0]
 80055ae:	781a      	ldrb	r2, [r3, #0]
 80055b0:	5cba      	ldrb	r2, [r7, r2]
 80055b2:	0712      	lsls	r2, r2, #28
 80055b4:	d43c      	bmi.n	8005630 <__ssvfiscanf_r+0x274>
 80055b6:	9b47      	ldr	r3, [sp, #284]	; 0x11c
 80055b8:	2b02      	cmp	r3, #2
 80055ba:	dc4b      	bgt.n	8005654 <__ssvfiscanf_r+0x298>
 80055bc:	466b      	mov	r3, sp
 80055be:	4622      	mov	r2, r4
 80055c0:	4630      	mov	r0, r6
 80055c2:	a941      	add	r1, sp, #260	; 0x104
 80055c4:	f000 f872 	bl	80056ac <_scanf_chars>
 80055c8:	2801      	cmp	r0, #1
 80055ca:	d06a      	beq.n	80056a2 <__ssvfiscanf_r+0x2e6>
 80055cc:	2802      	cmp	r0, #2
 80055ce:	f47f af1b 	bne.w	8005408 <__ssvfiscanf_r+0x4c>
 80055d2:	e7cb      	b.n	800556c <__ssvfiscanf_r+0x1b0>
 80055d4:	2308      	movs	r3, #8
 80055d6:	9342      	str	r3, [sp, #264]	; 0x108
 80055d8:	2304      	movs	r3, #4
 80055da:	e7e0      	b.n	800559e <__ssvfiscanf_r+0x1e2>
 80055dc:	220a      	movs	r2, #10
 80055de:	e7d5      	b.n	800558c <__ssvfiscanf_r+0x1d0>
 80055e0:	4629      	mov	r1, r5
 80055e2:	4640      	mov	r0, r8
 80055e4:	f000 fa58 	bl	8005a98 <__sccl>
 80055e8:	9b41      	ldr	r3, [sp, #260]	; 0x104
 80055ea:	4605      	mov	r5, r0
 80055ec:	f043 0340 	orr.w	r3, r3, #64	; 0x40
 80055f0:	9341      	str	r3, [sp, #260]	; 0x104
 80055f2:	2301      	movs	r3, #1
 80055f4:	e7d3      	b.n	800559e <__ssvfiscanf_r+0x1e2>
 80055f6:	9b41      	ldr	r3, [sp, #260]	; 0x104
 80055f8:	f043 0340 	orr.w	r3, r3, #64	; 0x40
 80055fc:	9341      	str	r3, [sp, #260]	; 0x104
 80055fe:	2300      	movs	r3, #0
 8005600:	e7cd      	b.n	800559e <__ssvfiscanf_r+0x1e2>
 8005602:	2302      	movs	r3, #2
 8005604:	e7cb      	b.n	800559e <__ssvfiscanf_r+0x1e2>
 8005606:	9841      	ldr	r0, [sp, #260]	; 0x104
 8005608:	06c3      	lsls	r3, r0, #27
 800560a:	f53f aefd 	bmi.w	8005408 <__ssvfiscanf_r+0x4c>
 800560e:	9b00      	ldr	r3, [sp, #0]
 8005610:	9a45      	ldr	r2, [sp, #276]	; 0x114
 8005612:	1d19      	adds	r1, r3, #4
 8005614:	9100      	str	r1, [sp, #0]
 8005616:	681b      	ldr	r3, [r3, #0]
 8005618:	07c0      	lsls	r0, r0, #31
 800561a:	bf4c      	ite	mi
 800561c:	801a      	strhmi	r2, [r3, #0]
 800561e:	601a      	strpl	r2, [r3, #0]
 8005620:	e6f2      	b.n	8005408 <__ssvfiscanf_r+0x4c>
 8005622:	4621      	mov	r1, r4
 8005624:	4630      	mov	r0, r6
 8005626:	9ba1      	ldr	r3, [sp, #644]	; 0x284
 8005628:	4798      	blx	r3
 800562a:	2800      	cmp	r0, #0
 800562c:	d0bb      	beq.n	80055a6 <__ssvfiscanf_r+0x1ea>
 800562e:	e79d      	b.n	800556c <__ssvfiscanf_r+0x1b0>
 8005630:	9a45      	ldr	r2, [sp, #276]	; 0x114
 8005632:	3201      	adds	r2, #1
 8005634:	9245      	str	r2, [sp, #276]	; 0x114
 8005636:	6862      	ldr	r2, [r4, #4]
 8005638:	3a01      	subs	r2, #1
 800563a:	2a00      	cmp	r2, #0
 800563c:	6062      	str	r2, [r4, #4]
 800563e:	dd02      	ble.n	8005646 <__ssvfiscanf_r+0x28a>
 8005640:	3301      	adds	r3, #1
 8005642:	6023      	str	r3, [r4, #0]
 8005644:	e7b2      	b.n	80055ac <__ssvfiscanf_r+0x1f0>
 8005646:	4621      	mov	r1, r4
 8005648:	4630      	mov	r0, r6
 800564a:	9ba1      	ldr	r3, [sp, #644]	; 0x284
 800564c:	4798      	blx	r3
 800564e:	2800      	cmp	r0, #0
 8005650:	d0ac      	beq.n	80055ac <__ssvfiscanf_r+0x1f0>
 8005652:	e78b      	b.n	800556c <__ssvfiscanf_r+0x1b0>
 8005654:	2b04      	cmp	r3, #4
 8005656:	dc0f      	bgt.n	8005678 <__ssvfiscanf_r+0x2bc>
 8005658:	466b      	mov	r3, sp
 800565a:	4622      	mov	r2, r4
 800565c:	4630      	mov	r0, r6
 800565e:	a941      	add	r1, sp, #260	; 0x104
 8005660:	f000 f87e 	bl	8005760 <_scanf_i>
 8005664:	e7b0      	b.n	80055c8 <__ssvfiscanf_r+0x20c>
 8005666:	bf00      	nop
 8005668:	08005309 	.word	0x08005309
 800566c:	08005383 	.word	0x08005383
 8005670:	08006797 	.word	0x08006797
 8005674:	0800672a 	.word	0x0800672a
 8005678:	4b0b      	ldr	r3, [pc, #44]	; (80056a8 <__ssvfiscanf_r+0x2ec>)
 800567a:	2b00      	cmp	r3, #0
 800567c:	f43f aec4 	beq.w	8005408 <__ssvfiscanf_r+0x4c>
 8005680:	466b      	mov	r3, sp
 8005682:	4622      	mov	r2, r4
 8005684:	4630      	mov	r0, r6
 8005686:	a941      	add	r1, sp, #260	; 0x104
 8005688:	f3af 8000 	nop.w
 800568c:	e79c      	b.n	80055c8 <__ssvfiscanf_r+0x20c>
 800568e:	89a3      	ldrh	r3, [r4, #12]
 8005690:	f013 0f40 	tst.w	r3, #64	; 0x40
 8005694:	bf18      	it	ne
 8005696:	f04f 30ff 	movne.w	r0, #4294967295
 800569a:	f50d 7d22 	add.w	sp, sp, #648	; 0x288
 800569e:	e8bd 87f0 	ldmia.w	sp!, {r4, r5, r6, r7, r8, r9, sl, pc}
 80056a2:	9844      	ldr	r0, [sp, #272]	; 0x110
 80056a4:	e7f9      	b.n	800569a <__ssvfiscanf_r+0x2de>
 80056a6:	bf00      	nop
 80056a8:	00000000 	.word	0x00000000

080056ac <_scanf_chars>:
 80056ac:	e92d 43f8 	stmdb	sp!, {r3, r4, r5, r6, r7, r8, r9, lr}
 80056b0:	4615      	mov	r5, r2
 80056b2:	688a      	ldr	r2, [r1, #8]
 80056b4:	4680      	mov	r8, r0
 80056b6:	460c      	mov	r4, r1
 80056b8:	b932      	cbnz	r2, 80056c8 <_scanf_chars+0x1c>
 80056ba:	698a      	ldr	r2, [r1, #24]
 80056bc:	2a00      	cmp	r2, #0
 80056be:	bf0c      	ite	eq
 80056c0:	2201      	moveq	r2, #1
 80056c2:	f04f 32ff 	movne.w	r2, #4294967295
 80056c6:	608a      	str	r2, [r1, #8]
 80056c8:	2700      	movs	r7, #0
 80056ca:	6822      	ldr	r2, [r4, #0]
 80056cc:	f8df 908c 	ldr.w	r9, [pc, #140]	; 800575c <_scanf_chars+0xb0>
 80056d0:	06d1      	lsls	r1, r2, #27
 80056d2:	bf5f      	itttt	pl
 80056d4:	681a      	ldrpl	r2, [r3, #0]
 80056d6:	1d11      	addpl	r1, r2, #4
 80056d8:	6019      	strpl	r1, [r3, #0]
 80056da:	6816      	ldrpl	r6, [r2, #0]
 80056dc:	69a0      	ldr	r0, [r4, #24]
 80056de:	b188      	cbz	r0, 8005704 <_scanf_chars+0x58>
 80056e0:	2801      	cmp	r0, #1
 80056e2:	d107      	bne.n	80056f4 <_scanf_chars+0x48>
 80056e4:	682b      	ldr	r3, [r5, #0]
 80056e6:	781a      	ldrb	r2, [r3, #0]
 80056e8:	6963      	ldr	r3, [r4, #20]
 80056ea:	5c9b      	ldrb	r3, [r3, r2]
 80056ec:	b953      	cbnz	r3, 8005704 <_scanf_chars+0x58>
 80056ee:	2f00      	cmp	r7, #0
 80056f0:	d031      	beq.n	8005756 <_scanf_chars+0xaa>
 80056f2:	e022      	b.n	800573a <_scanf_chars+0x8e>
 80056f4:	2802      	cmp	r0, #2
 80056f6:	d120      	bne.n	800573a <_scanf_chars+0x8e>
 80056f8:	682b      	ldr	r3, [r5, #0]
 80056fa:	781b      	ldrb	r3, [r3, #0]
 80056fc:	f819 3003 	ldrb.w	r3, [r9, r3]
 8005700:	071b      	lsls	r3, r3, #28
 8005702:	d41a      	bmi.n	800573a <_scanf_chars+0x8e>
 8005704:	6823      	ldr	r3, [r4, #0]
 8005706:	3701      	adds	r7, #1
 8005708:	06da      	lsls	r2, r3, #27
 800570a:	bf5e      	ittt	pl
 800570c:	682b      	ldrpl	r3, [r5, #0]
 800570e:	781b      	ldrbpl	r3, [r3, #0]
 8005710:	f806 3b01 	strbpl.w	r3, [r6], #1
 8005714:	682a      	ldr	r2, [r5, #0]
 8005716:	686b      	ldr	r3, [r5, #4]
 8005718:	3201      	adds	r2, #1
 800571a:	602a      	str	r2, [r5, #0]
 800571c:	68a2      	ldr	r2, [r4, #8]
 800571e:	3b01      	subs	r3, #1
 8005720:	3a01      	subs	r2, #1
 8005722:	606b      	str	r3, [r5, #4]
 8005724:	60a2      	str	r2, [r4, #8]
 8005726:	b142      	cbz	r2, 800573a <_scanf_chars+0x8e>
 8005728:	2b00      	cmp	r3, #0
 800572a:	dcd7      	bgt.n	80056dc <_scanf_chars+0x30>
 800572c:	4629      	mov	r1, r5
 800572e:	4640      	mov	r0, r8
 8005730:	f8d4 3180 	ldr.w	r3, [r4, #384]	; 0x180
 8005734:	4798      	blx	r3
 8005736:	2800      	cmp	r0, #0
 8005738:	d0d0      	beq.n	80056dc <_scanf_chars+0x30>
 800573a:	6823      	ldr	r3, [r4, #0]
 800573c:	f013 0310 	ands.w	r3, r3, #16
 8005740:	d105      	bne.n	800574e <_scanf_chars+0xa2>
 8005742:	68e2      	ldr	r2, [r4, #12]
 8005744:	3201      	adds	r2, #1
 8005746:	60e2      	str	r2, [r4, #12]
 8005748:	69a2      	ldr	r2, [r4, #24]
 800574a:	b102      	cbz	r2, 800574e <_scanf_chars+0xa2>
 800574c:	7033      	strb	r3, [r6, #0]
 800574e:	2000      	movs	r0, #0
 8005750:	6923      	ldr	r3, [r4, #16]
 8005752:	443b      	add	r3, r7
 8005754:	6123      	str	r3, [r4, #16]
 8005756:	e8bd 83f8 	ldmia.w	sp!, {r3, r4, r5, r6, r7, r8, r9, pc}
 800575a:	bf00      	nop
 800575c:	08006797 	.word	0x08006797

08005760 <_scanf_i>:
 8005760:	e92d 4ff0 	stmdb	sp!, {r4, r5, r6, r7, r8, r9, sl, fp, lr}
 8005764:	460c      	mov	r4, r1
 8005766:	4698      	mov	r8, r3
 8005768:	4b72      	ldr	r3, [pc, #456]	; (8005934 <_scanf_i+0x1d4>)
 800576a:	b087      	sub	sp, #28
 800576c:	4682      	mov	sl, r0
 800576e:	4616      	mov	r6, r2
 8005770:	e893 0007 	ldmia.w	r3, {r0, r1, r2}
 8005774:	ab03      	add	r3, sp, #12
 8005776:	e883 0007 	stmia.w	r3, {r0, r1, r2}
 800577a:	4b6f      	ldr	r3, [pc, #444]	; (8005938 <_scanf_i+0x1d8>)
 800577c:	69a1      	ldr	r1, [r4, #24]
 800577e:	4a6f      	ldr	r2, [pc, #444]	; (800593c <_scanf_i+0x1dc>)
 8005780:	4627      	mov	r7, r4
 8005782:	2903      	cmp	r1, #3
 8005784:	bf18      	it	ne
 8005786:	461a      	movne	r2, r3
 8005788:	68a3      	ldr	r3, [r4, #8]
 800578a:	9201      	str	r2, [sp, #4]
 800578c:	1e5a      	subs	r2, r3, #1
 800578e:	f5b2 7fae 	cmp.w	r2, #348	; 0x15c
 8005792:	bf81      	itttt	hi
 8005794:	f46f 75ae 	mvnhi.w	r5, #348	; 0x15c
 8005798:	eb03 0905 	addhi.w	r9, r3, r5
 800579c:	f240 135d 	movwhi	r3, #349	; 0x15d
 80057a0:	60a3      	strhi	r3, [r4, #8]
 80057a2:	f857 3b1c 	ldr.w	r3, [r7], #28
 80057a6:	bf98      	it	ls
 80057a8:	f04f 0900 	movls.w	r9, #0
 80057ac:	463d      	mov	r5, r7
 80057ae:	f04f 0b00 	mov.w	fp, #0
 80057b2:	f443 6350 	orr.w	r3, r3, #3328	; 0xd00
 80057b6:	6023      	str	r3, [r4, #0]
 80057b8:	6831      	ldr	r1, [r6, #0]
 80057ba:	ab03      	add	r3, sp, #12
 80057bc:	2202      	movs	r2, #2
 80057be:	7809      	ldrb	r1, [r1, #0]
 80057c0:	f853 002b 	ldr.w	r0, [r3, fp, lsl #2]
 80057c4:	f7fe f958 	bl	8003a78 <memchr>
 80057c8:	b328      	cbz	r0, 8005816 <_scanf_i+0xb6>
 80057ca:	f1bb 0f01 	cmp.w	fp, #1
 80057ce:	d159      	bne.n	8005884 <_scanf_i+0x124>
 80057d0:	6862      	ldr	r2, [r4, #4]
 80057d2:	b92a      	cbnz	r2, 80057e0 <_scanf_i+0x80>
 80057d4:	2308      	movs	r3, #8
 80057d6:	6822      	ldr	r2, [r4, #0]
 80057d8:	6063      	str	r3, [r4, #4]
 80057da:	f442 7200 	orr.w	r2, r2, #512	; 0x200
 80057de:	6022      	str	r2, [r4, #0]
 80057e0:	6822      	ldr	r2, [r4, #0]
 80057e2:	f422 62a0 	bic.w	r2, r2, #1280	; 0x500
 80057e6:	6022      	str	r2, [r4, #0]
 80057e8:	68a2      	ldr	r2, [r4, #8]
 80057ea:	1e51      	subs	r1, r2, #1
 80057ec:	60a1      	str	r1, [r4, #8]
 80057ee:	b192      	cbz	r2, 8005816 <_scanf_i+0xb6>
 80057f0:	6832      	ldr	r2, [r6, #0]
 80057f2:	1c51      	adds	r1, r2, #1
 80057f4:	6031      	str	r1, [r6, #0]
 80057f6:	7812      	ldrb	r2, [r2, #0]
 80057f8:	f805 2b01 	strb.w	r2, [r5], #1
 80057fc:	6872      	ldr	r2, [r6, #4]
 80057fe:	3a01      	subs	r2, #1
 8005800:	2a00      	cmp	r2, #0
 8005802:	6072      	str	r2, [r6, #4]
 8005804:	dc07      	bgt.n	8005816 <_scanf_i+0xb6>
 8005806:	4631      	mov	r1, r6
 8005808:	4650      	mov	r0, sl
 800580a:	f8d4 2180 	ldr.w	r2, [r4, #384]	; 0x180
 800580e:	4790      	blx	r2
 8005810:	2800      	cmp	r0, #0
 8005812:	f040 8085 	bne.w	8005920 <_scanf_i+0x1c0>
 8005816:	f10b 0b01 	add.w	fp, fp, #1
 800581a:	f1bb 0f03 	cmp.w	fp, #3
 800581e:	d1cb      	bne.n	80057b8 <_scanf_i+0x58>
 8005820:	6863      	ldr	r3, [r4, #4]
 8005822:	b90b      	cbnz	r3, 8005828 <_scanf_i+0xc8>
 8005824:	230a      	movs	r3, #10
 8005826:	6063      	str	r3, [r4, #4]
 8005828:	6863      	ldr	r3, [r4, #4]
 800582a:	4945      	ldr	r1, [pc, #276]	; (8005940 <_scanf_i+0x1e0>)
 800582c:	6960      	ldr	r0, [r4, #20]
 800582e:	1ac9      	subs	r1, r1, r3
 8005830:	f000 f932 	bl	8005a98 <__sccl>
 8005834:	f04f 0b00 	mov.w	fp, #0
 8005838:	68a3      	ldr	r3, [r4, #8]
 800583a:	6822      	ldr	r2, [r4, #0]
 800583c:	2b00      	cmp	r3, #0
 800583e:	d03d      	beq.n	80058bc <_scanf_i+0x15c>
 8005840:	6831      	ldr	r1, [r6, #0]
 8005842:	6960      	ldr	r0, [r4, #20]
 8005844:	f891 c000 	ldrb.w	ip, [r1]
 8005848:	f810 000c 	ldrb.w	r0, [r0, ip]
 800584c:	2800      	cmp	r0, #0
 800584e:	d035      	beq.n	80058bc <_scanf_i+0x15c>
 8005850:	f1bc 0f30 	cmp.w	ip, #48	; 0x30
 8005854:	d124      	bne.n	80058a0 <_scanf_i+0x140>
 8005856:	0510      	lsls	r0, r2, #20
 8005858:	d522      	bpl.n	80058a0 <_scanf_i+0x140>
 800585a:	f10b 0b01 	add.w	fp, fp, #1
 800585e:	f1b9 0f00 	cmp.w	r9, #0
 8005862:	d003      	beq.n	800586c <_scanf_i+0x10c>
 8005864:	3301      	adds	r3, #1
 8005866:	f109 39ff 	add.w	r9, r9, #4294967295
 800586a:	60a3      	str	r3, [r4, #8]
 800586c:	6873      	ldr	r3, [r6, #4]
 800586e:	3b01      	subs	r3, #1
 8005870:	2b00      	cmp	r3, #0
 8005872:	6073      	str	r3, [r6, #4]
 8005874:	dd1b      	ble.n	80058ae <_scanf_i+0x14e>
 8005876:	6833      	ldr	r3, [r6, #0]
 8005878:	3301      	adds	r3, #1
 800587a:	6033      	str	r3, [r6, #0]
 800587c:	68a3      	ldr	r3, [r4, #8]
 800587e:	3b01      	subs	r3, #1
 8005880:	60a3      	str	r3, [r4, #8]
 8005882:	e7d9      	b.n	8005838 <_scanf_i+0xd8>
 8005884:	f1bb 0f02 	cmp.w	fp, #2
 8005888:	d1ae      	bne.n	80057e8 <_scanf_i+0x88>
 800588a:	6822      	ldr	r2, [r4, #0]
 800588c:	f402 61c0 	and.w	r1, r2, #1536	; 0x600
 8005890:	f5b1 7f00 	cmp.w	r1, #512	; 0x200
 8005894:	d1bf      	bne.n	8005816 <_scanf_i+0xb6>
 8005896:	2310      	movs	r3, #16
 8005898:	f442 7280 	orr.w	r2, r2, #256	; 0x100
 800589c:	6063      	str	r3, [r4, #4]
 800589e:	e7a2      	b.n	80057e6 <_scanf_i+0x86>
 80058a0:	f422 6210 	bic.w	r2, r2, #2304	; 0x900
 80058a4:	6022      	str	r2, [r4, #0]
 80058a6:	780b      	ldrb	r3, [r1, #0]
 80058a8:	f805 3b01 	strb.w	r3, [r5], #1
 80058ac:	e7de      	b.n	800586c <_scanf_i+0x10c>
 80058ae:	4631      	mov	r1, r6
 80058b0:	4650      	mov	r0, sl
 80058b2:	f8d4 3180 	ldr.w	r3, [r4, #384]	; 0x180
 80058b6:	4798      	blx	r3
 80058b8:	2800      	cmp	r0, #0
 80058ba:	d0df      	beq.n	800587c <_scanf_i+0x11c>
 80058bc:	6823      	ldr	r3, [r4, #0]
 80058be:	05d9      	lsls	r1, r3, #23
 80058c0:	d50d      	bpl.n	80058de <_scanf_i+0x17e>
 80058c2:	42bd      	cmp	r5, r7
 80058c4:	d909      	bls.n	80058da <_scanf_i+0x17a>
 80058c6:	f815 1c01 	ldrb.w	r1, [r5, #-1]
 80058ca:	4632      	mov	r2, r6
 80058cc:	4650      	mov	r0, sl
 80058ce:	f8d4 317c 	ldr.w	r3, [r4, #380]	; 0x17c
 80058d2:	f105 39ff 	add.w	r9, r5, #4294967295
 80058d6:	4798      	blx	r3
 80058d8:	464d      	mov	r5, r9
 80058da:	42bd      	cmp	r5, r7
 80058dc:	d028      	beq.n	8005930 <_scanf_i+0x1d0>
 80058de:	6822      	ldr	r2, [r4, #0]
 80058e0:	f012 0210 	ands.w	r2, r2, #16
 80058e4:	d113      	bne.n	800590e <_scanf_i+0x1ae>
 80058e6:	702a      	strb	r2, [r5, #0]
 80058e8:	4639      	mov	r1, r7
 80058ea:	6863      	ldr	r3, [r4, #4]
 80058ec:	4650      	mov	r0, sl
 80058ee:	9e01      	ldr	r6, [sp, #4]
 80058f0:	47b0      	blx	r6
 80058f2:	f8d8 3000 	ldr.w	r3, [r8]
 80058f6:	6821      	ldr	r1, [r4, #0]
 80058f8:	1d1a      	adds	r2, r3, #4
 80058fa:	f8c8 2000 	str.w	r2, [r8]
 80058fe:	f011 0f20 	tst.w	r1, #32
 8005902:	681b      	ldr	r3, [r3, #0]
 8005904:	d00f      	beq.n	8005926 <_scanf_i+0x1c6>
 8005906:	6018      	str	r0, [r3, #0]
 8005908:	68e3      	ldr	r3, [r4, #12]
 800590a:	3301      	adds	r3, #1
 800590c:	60e3      	str	r3, [r4, #12]
 800590e:	2000      	movs	r0, #0
 8005910:	6923      	ldr	r3, [r4, #16]
 8005912:	1bed      	subs	r5, r5, r7
 8005914:	445d      	add	r5, fp
 8005916:	442b      	add	r3, r5
 8005918:	6123      	str	r3, [r4, #16]
 800591a:	b007      	add	sp, #28
 800591c:	e8bd 8ff0 	ldmia.w	sp!, {r4, r5, r6, r7, r8, r9, sl, fp, pc}
 8005920:	f04f 0b00 	mov.w	fp, #0
 8005924:	e7ca      	b.n	80058bc <_scanf_i+0x15c>
 8005926:	07ca      	lsls	r2, r1, #31
 8005928:	bf4c      	ite	mi
 800592a:	8018      	strhmi	r0, [r3, #0]
 800592c:	6018      	strpl	r0, [r3, #0]
 800592e:	e7eb      	b.n	8005908 <_scanf_i+0x1a8>
 8005930:	2001      	movs	r0, #1
 8005932:	e7f2      	b.n	800591a <_scanf_i+0x1ba>
 8005934:	08006470 	.word	0x08006470
 8005938:	08005eb9 	.word	0x08005eb9
 800593c:	08005dd1 	.word	0x08005dd1
 8005940:	08006745 	.word	0x08006745

08005944 <__sflush_r>:
 8005944:	898a      	ldrh	r2, [r1, #12]
 8005946:	b5f8      	push	{r3, r4, r5, r6, r7, lr}
 8005948:	4605      	mov	r5, r0
 800594a:	0710      	lsls	r0, r2, #28
 800594c:	460c      	mov	r4, r1
 800594e:	d457      	bmi.n	8005a00 <__sflush_r+0xbc>
 8005950:	684b      	ldr	r3, [r1, #4]
 8005952:	2b00      	cmp	r3, #0
 8005954:	dc04      	bgt.n	8005960 <__sflush_r+0x1c>
 8005956:	6c0b      	ldr	r3, [r1, #64]	; 0x40
 8005958:	2b00      	cmp	r3, #0
 800595a:	dc01      	bgt.n	8005960 <__sflush_r+0x1c>
 800595c:	2000      	movs	r0, #0
 800595e:	bdf8      	pop	{r3, r4, r5, r6, r7, pc}
 8005960:	6ae6      	ldr	r6, [r4, #44]	; 0x2c
 8005962:	2e00      	cmp	r6, #0
 8005964:	d0fa      	beq.n	800595c <__sflush_r+0x18>
 8005966:	2300      	movs	r3, #0
 8005968:	f412 5280 	ands.w	r2, r2, #4096	; 0x1000
 800596c:	682f      	ldr	r7, [r5, #0]
 800596e:	6a21      	ldr	r1, [r4, #32]
 8005970:	602b      	str	r3, [r5, #0]
 8005972:	d032      	beq.n	80059da <__sflush_r+0x96>
 8005974:	6d60      	ldr	r0, [r4, #84]	; 0x54
 8005976:	89a3      	ldrh	r3, [r4, #12]
 8005978:	075a      	lsls	r2, r3, #29
 800597a:	d505      	bpl.n	8005988 <__sflush_r+0x44>
 800597c:	6863      	ldr	r3, [r4, #4]
 800597e:	1ac0      	subs	r0, r0, r3
 8005980:	6b63      	ldr	r3, [r4, #52]	; 0x34
 8005982:	b10b      	cbz	r3, 8005988 <__sflush_r+0x44>
 8005984:	6c23      	ldr	r3, [r4, #64]	; 0x40
 8005986:	1ac0      	subs	r0, r0, r3
 8005988:	2300      	movs	r3, #0
 800598a:	4602      	mov	r2, r0
 800598c:	6ae6      	ldr	r6, [r4, #44]	; 0x2c
 800598e:	4628      	mov	r0, r5
 8005990:	6a21      	ldr	r1, [r4, #32]
 8005992:	47b0      	blx	r6
 8005994:	1c43      	adds	r3, r0, #1
 8005996:	89a3      	ldrh	r3, [r4, #12]
 8005998:	d106      	bne.n	80059a8 <__sflush_r+0x64>
 800599a:	6829      	ldr	r1, [r5, #0]
 800599c:	291d      	cmp	r1, #29
 800599e:	d82b      	bhi.n	80059f8 <__sflush_r+0xb4>
 80059a0:	4a28      	ldr	r2, [pc, #160]	; (8005a44 <__sflush_r+0x100>)
 80059a2:	410a      	asrs	r2, r1
 80059a4:	07d6      	lsls	r6, r2, #31
 80059a6:	d427      	bmi.n	80059f8 <__sflush_r+0xb4>
 80059a8:	2200      	movs	r2, #0
 80059aa:	6062      	str	r2, [r4, #4]
 80059ac:	6922      	ldr	r2, [r4, #16]
 80059ae:	04d9      	lsls	r1, r3, #19
 80059b0:	6022      	str	r2, [r4, #0]
 80059b2:	d504      	bpl.n	80059be <__sflush_r+0x7a>
 80059b4:	1c42      	adds	r2, r0, #1
 80059b6:	d101      	bne.n	80059bc <__sflush_r+0x78>
 80059b8:	682b      	ldr	r3, [r5, #0]
 80059ba:	b903      	cbnz	r3, 80059be <__sflush_r+0x7a>
 80059bc:	6560      	str	r0, [r4, #84]	; 0x54
 80059be:	6b61      	ldr	r1, [r4, #52]	; 0x34
 80059c0:	602f      	str	r7, [r5, #0]
 80059c2:	2900      	cmp	r1, #0
 80059c4:	d0ca      	beq.n	800595c <__sflush_r+0x18>
 80059c6:	f104 0344 	add.w	r3, r4, #68	; 0x44
 80059ca:	4299      	cmp	r1, r3
 80059cc:	d002      	beq.n	80059d4 <__sflush_r+0x90>
 80059ce:	4628      	mov	r0, r5
 80059d0:	f7fe fece 	bl	8004770 <_free_r>
 80059d4:	2000      	movs	r0, #0
 80059d6:	6360      	str	r0, [r4, #52]	; 0x34
 80059d8:	e7c1      	b.n	800595e <__sflush_r+0x1a>
 80059da:	2301      	movs	r3, #1
 80059dc:	4628      	mov	r0, r5
 80059de:	47b0      	blx	r6
 80059e0:	1c41      	adds	r1, r0, #1
 80059e2:	d1c8      	bne.n	8005976 <__sflush_r+0x32>
 80059e4:	682b      	ldr	r3, [r5, #0]
 80059e6:	2b00      	cmp	r3, #0
 80059e8:	d0c5      	beq.n	8005976 <__sflush_r+0x32>
 80059ea:	2b1d      	cmp	r3, #29
 80059ec:	d001      	beq.n	80059f2 <__sflush_r+0xae>
 80059ee:	2b16      	cmp	r3, #22
 80059f0:	d101      	bne.n	80059f6 <__sflush_r+0xb2>
 80059f2:	602f      	str	r7, [r5, #0]
 80059f4:	e7b2      	b.n	800595c <__sflush_r+0x18>
 80059f6:	89a3      	ldrh	r3, [r4, #12]
 80059f8:	f043 0340 	orr.w	r3, r3, #64	; 0x40
 80059fc:	81a3      	strh	r3, [r4, #12]
 80059fe:	e7ae      	b.n	800595e <__sflush_r+0x1a>
 8005a00:	690f      	ldr	r7, [r1, #16]
 8005a02:	2f00      	cmp	r7, #0
 8005a04:	d0aa      	beq.n	800595c <__sflush_r+0x18>
 8005a06:	0793      	lsls	r3, r2, #30
 8005a08:	bf18      	it	ne
 8005a0a:	2300      	movne	r3, #0
 8005a0c:	680e      	ldr	r6, [r1, #0]
 8005a0e:	bf08      	it	eq
 8005a10:	694b      	ldreq	r3, [r1, #20]
 8005a12:	1bf6      	subs	r6, r6, r7
 8005a14:	600f      	str	r7, [r1, #0]
 8005a16:	608b      	str	r3, [r1, #8]
 8005a18:	2e00      	cmp	r6, #0
 8005a1a:	dd9f      	ble.n	800595c <__sflush_r+0x18>
 8005a1c:	4633      	mov	r3, r6
 8005a1e:	463a      	mov	r2, r7
 8005a20:	4628      	mov	r0, r5
 8005a22:	6a21      	ldr	r1, [r4, #32]
 8005a24:	f8d4 c028 	ldr.w	ip, [r4, #40]	; 0x28
 8005a28:	47e0      	blx	ip
 8005a2a:	2800      	cmp	r0, #0
 8005a2c:	dc06      	bgt.n	8005a3c <__sflush_r+0xf8>
 8005a2e:	89a3      	ldrh	r3, [r4, #12]
 8005a30:	f04f 30ff 	mov.w	r0, #4294967295
 8005a34:	f043 0340 	orr.w	r3, r3, #64	; 0x40
 8005a38:	81a3      	strh	r3, [r4, #12]
 8005a3a:	e790      	b.n	800595e <__sflush_r+0x1a>
 8005a3c:	4407      	add	r7, r0
 8005a3e:	1a36      	subs	r6, r6, r0
 8005a40:	e7ea      	b.n	8005a18 <__sflush_r+0xd4>
 8005a42:	bf00      	nop
 8005a44:	dfbffffe 	.word	0xdfbffffe

08005a48 <_fflush_r>:
 8005a48:	b538      	push	{r3, r4, r5, lr}
 8005a4a:	690b      	ldr	r3, [r1, #16]
 8005a4c:	4605      	mov	r5, r0
 8005a4e:	460c      	mov	r4, r1
 8005a50:	b913      	cbnz	r3, 8005a58 <_fflush_r+0x10>
 8005a52:	2500      	movs	r5, #0
 8005a54:	4628      	mov	r0, r5
 8005a56:	bd38      	pop	{r3, r4, r5, pc}
 8005a58:	b118      	cbz	r0, 8005a62 <_fflush_r+0x1a>
 8005a5a:	6a03      	ldr	r3, [r0, #32]
 8005a5c:	b90b      	cbnz	r3, 8005a62 <_fflush_r+0x1a>
 8005a5e:	f7fd fe81 	bl	8003764 <__sinit>
 8005a62:	f9b4 300c 	ldrsh.w	r3, [r4, #12]
 8005a66:	2b00      	cmp	r3, #0
 8005a68:	d0f3      	beq.n	8005a52 <_fflush_r+0xa>
 8005a6a:	6e62      	ldr	r2, [r4, #100]	; 0x64
 8005a6c:	07d0      	lsls	r0, r2, #31
 8005a6e:	d404      	bmi.n	8005a7a <_fflush_r+0x32>
 8005a70:	0599      	lsls	r1, r3, #22
 8005a72:	d402      	bmi.n	8005a7a <_fflush_r+0x32>
 8005a74:	6da0      	ldr	r0, [r4, #88]	; 0x58
 8005a76:	f7fd fffd 	bl	8003a74 <__retarget_lock_acquire_recursive>
 8005a7a:	4628      	mov	r0, r5
 8005a7c:	4621      	mov	r1, r4
 8005a7e:	f7ff ff61 	bl	8005944 <__sflush_r>
 8005a82:	6e63      	ldr	r3, [r4, #100]	; 0x64
 8005a84:	4605      	mov	r5, r0
 8005a86:	07da      	lsls	r2, r3, #31
 8005a88:	d4e4      	bmi.n	8005a54 <_fflush_r+0xc>
 8005a8a:	89a3      	ldrh	r3, [r4, #12]
 8005a8c:	059b      	lsls	r3, r3, #22
 8005a8e:	d4e1      	bmi.n	8005a54 <_fflush_r+0xc>
 8005a90:	6da0      	ldr	r0, [r4, #88]	; 0x58
 8005a92:	f7fd fff0 	bl	8003a76 <__retarget_lock_release_recursive>
 8005a96:	e7dd      	b.n	8005a54 <_fflush_r+0xc>

08005a98 <__sccl>:
 8005a98:	b570      	push	{r4, r5, r6, lr}
 8005a9a:	780b      	ldrb	r3, [r1, #0]
 8005a9c:	4604      	mov	r4, r0
 8005a9e:	2b5e      	cmp	r3, #94	; 0x5e
 8005aa0:	bf0b      	itete	eq
 8005aa2:	784b      	ldrbeq	r3, [r1, #1]
 8005aa4:	1c4a      	addne	r2, r1, #1
 8005aa6:	1c8a      	addeq	r2, r1, #2
 8005aa8:	2100      	movne	r1, #0
 8005aaa:	bf08      	it	eq
 8005aac:	2101      	moveq	r1, #1
 8005aae:	3801      	subs	r0, #1
 8005ab0:	f104 05ff 	add.w	r5, r4, #255	; 0xff
 8005ab4:	f800 1f01 	strb.w	r1, [r0, #1]!
 8005ab8:	42a8      	cmp	r0, r5
 8005aba:	d1fb      	bne.n	8005ab4 <__sccl+0x1c>
 8005abc:	b90b      	cbnz	r3, 8005ac2 <__sccl+0x2a>
 8005abe:	1e50      	subs	r0, r2, #1
 8005ac0:	bd70      	pop	{r4, r5, r6, pc}
 8005ac2:	f081 0101 	eor.w	r1, r1, #1
 8005ac6:	4610      	mov	r0, r2
 8005ac8:	54e1      	strb	r1, [r4, r3]
 8005aca:	4602      	mov	r2, r0
 8005acc:	f812 5b01 	ldrb.w	r5, [r2], #1
 8005ad0:	2d2d      	cmp	r5, #45	; 0x2d
 8005ad2:	d005      	beq.n	8005ae0 <__sccl+0x48>
 8005ad4:	2d5d      	cmp	r5, #93	; 0x5d
 8005ad6:	d016      	beq.n	8005b06 <__sccl+0x6e>
 8005ad8:	2d00      	cmp	r5, #0
 8005ada:	d0f1      	beq.n	8005ac0 <__sccl+0x28>
 8005adc:	462b      	mov	r3, r5
 8005ade:	e7f2      	b.n	8005ac6 <__sccl+0x2e>
 8005ae0:	7846      	ldrb	r6, [r0, #1]
 8005ae2:	2e5d      	cmp	r6, #93	; 0x5d
 8005ae4:	d0fa      	beq.n	8005adc <__sccl+0x44>
 8005ae6:	42b3      	cmp	r3, r6
 8005ae8:	dcf8      	bgt.n	8005adc <__sccl+0x44>
 8005aea:	461a      	mov	r2, r3
 8005aec:	3002      	adds	r0, #2
 8005aee:	3201      	adds	r2, #1
 8005af0:	4296      	cmp	r6, r2
 8005af2:	54a1      	strb	r1, [r4, r2]
 8005af4:	dcfb      	bgt.n	8005aee <__sccl+0x56>
 8005af6:	1af2      	subs	r2, r6, r3
 8005af8:	3a01      	subs	r2, #1
 8005afa:	42b3      	cmp	r3, r6
 8005afc:	bfa8      	it	ge
 8005afe:	2200      	movge	r2, #0
 8005b00:	1c5d      	adds	r5, r3, #1
 8005b02:	18ab      	adds	r3, r5, r2
 8005b04:	e7e1      	b.n	8005aca <__sccl+0x32>
 8005b06:	4610      	mov	r0, r2
 8005b08:	e7da      	b.n	8005ac0 <__sccl+0x28>

08005b0a <__submore>:
 8005b0a:	e92d 41f0 	stmdb	sp!, {r4, r5, r6, r7, r8, lr}
 8005b0e:	460c      	mov	r4, r1
 8005b10:	6b49      	ldr	r1, [r1, #52]	; 0x34
 8005b12:	f104 0344 	add.w	r3, r4, #68	; 0x44
 8005b16:	4299      	cmp	r1, r3
 8005b18:	d11b      	bne.n	8005b52 <__submore+0x48>
 8005b1a:	f44f 6180 	mov.w	r1, #1024	; 0x400
 8005b1e:	f7fe fe97 	bl	8004850 <_malloc_r>
 8005b22:	b918      	cbnz	r0, 8005b2c <__submore+0x22>
 8005b24:	f04f 30ff 	mov.w	r0, #4294967295
 8005b28:	e8bd 81f0 	ldmia.w	sp!, {r4, r5, r6, r7, r8, pc}
 8005b2c:	f44f 6380 	mov.w	r3, #1024	; 0x400
 8005b30:	63a3      	str	r3, [r4, #56]	; 0x38
 8005b32:	f894 3046 	ldrb.w	r3, [r4, #70]	; 0x46
 8005b36:	6360      	str	r0, [r4, #52]	; 0x34
 8005b38:	f880 33ff 	strb.w	r3, [r0, #1023]	; 0x3ff
 8005b3c:	f894 3045 	ldrb.w	r3, [r4, #69]	; 0x45
 8005b40:	f200 30fd 	addw	r0, r0, #1021	; 0x3fd
 8005b44:	7043      	strb	r3, [r0, #1]
 8005b46:	f894 3044 	ldrb.w	r3, [r4, #68]	; 0x44
 8005b4a:	7003      	strb	r3, [r0, #0]
 8005b4c:	6020      	str	r0, [r4, #0]
 8005b4e:	2000      	movs	r0, #0
 8005b50:	e7ea      	b.n	8005b28 <__submore+0x1e>
 8005b52:	6ba6      	ldr	r6, [r4, #56]	; 0x38
 8005b54:	0077      	lsls	r7, r6, #1
 8005b56:	463a      	mov	r2, r7
 8005b58:	f000 f88c 	bl	8005c74 <_realloc_r>
 8005b5c:	4605      	mov	r5, r0
 8005b5e:	2800      	cmp	r0, #0
 8005b60:	d0e0      	beq.n	8005b24 <__submore+0x1a>
 8005b62:	eb00 0806 	add.w	r8, r0, r6
 8005b66:	4601      	mov	r1, r0
 8005b68:	4632      	mov	r2, r6
 8005b6a:	4640      	mov	r0, r8
 8005b6c:	f000 f830 	bl	8005bd0 <memcpy>
 8005b70:	e9c4 570d 	strd	r5, r7, [r4, #52]	; 0x34
 8005b74:	f8c4 8000 	str.w	r8, [r4]
 8005b78:	e7e9      	b.n	8005b4e <__submore+0x44>

08005b7a <memmove>:
 8005b7a:	4288      	cmp	r0, r1
 8005b7c:	b510      	push	{r4, lr}
 8005b7e:	eb01 0402 	add.w	r4, r1, r2
 8005b82:	d902      	bls.n	8005b8a <memmove+0x10>
 8005b84:	4284      	cmp	r4, r0
 8005b86:	4623      	mov	r3, r4
 8005b88:	d807      	bhi.n	8005b9a <memmove+0x20>
 8005b8a:	1e43      	subs	r3, r0, #1
 8005b8c:	42a1      	cmp	r1, r4
 8005b8e:	d008      	beq.n	8005ba2 <memmove+0x28>
 8005b90:	f811 2b01 	ldrb.w	r2, [r1], #1
 8005b94:	f803 2f01 	strb.w	r2, [r3, #1]!
 8005b98:	e7f8      	b.n	8005b8c <memmove+0x12>
 8005b9a:	4601      	mov	r1, r0
 8005b9c:	4402      	add	r2, r0
 8005b9e:	428a      	cmp	r2, r1
 8005ba0:	d100      	bne.n	8005ba4 <memmove+0x2a>
 8005ba2:	bd10      	pop	{r4, pc}
 8005ba4:	f813 4d01 	ldrb.w	r4, [r3, #-1]!
 8005ba8:	f802 4d01 	strb.w	r4, [r2, #-1]!
 8005bac:	e7f7      	b.n	8005b9e <memmove+0x24>
	...

08005bb0 <_sbrk_r>:
 8005bb0:	b538      	push	{r3, r4, r5, lr}
 8005bb2:	2300      	movs	r3, #0
 8005bb4:	4d05      	ldr	r5, [pc, #20]	; (8005bcc <_sbrk_r+0x1c>)
 8005bb6:	4604      	mov	r4, r0
 8005bb8:	4608      	mov	r0, r1
 8005bba:	602b      	str	r3, [r5, #0]
 8005bbc:	f7fb fb30 	bl	8001220 <_sbrk>
 8005bc0:	1c43      	adds	r3, r0, #1
 8005bc2:	d102      	bne.n	8005bca <_sbrk_r+0x1a>
 8005bc4:	682b      	ldr	r3, [r5, #0]
 8005bc6:	b103      	cbz	r3, 8005bca <_sbrk_r+0x1a>
 8005bc8:	6023      	str	r3, [r4, #0]
 8005bca:	bd38      	pop	{r3, r4, r5, pc}
 8005bcc:	20000470 	.word	0x20000470

08005bd0 <memcpy>:
 8005bd0:	440a      	add	r2, r1
 8005bd2:	4291      	cmp	r1, r2
 8005bd4:	f100 33ff 	add.w	r3, r0, #4294967295
 8005bd8:	d100      	bne.n	8005bdc <memcpy+0xc>
 8005bda:	4770      	bx	lr
 8005bdc:	b510      	push	{r4, lr}
 8005bde:	f811 4b01 	ldrb.w	r4, [r1], #1
 8005be2:	4291      	cmp	r1, r2
 8005be4:	f803 4f01 	strb.w	r4, [r3, #1]!
 8005be8:	d1f9      	bne.n	8005bde <memcpy+0xe>
 8005bea:	bd10      	pop	{r4, pc}

08005bec <__assert_func>:
 8005bec:	b51f      	push	{r0, r1, r2, r3, r4, lr}
 8005bee:	4614      	mov	r4, r2
 8005bf0:	461a      	mov	r2, r3
 8005bf2:	4b09      	ldr	r3, [pc, #36]	; (8005c18 <__assert_func+0x2c>)
 8005bf4:	4605      	mov	r5, r0
 8005bf6:	681b      	ldr	r3, [r3, #0]
 8005bf8:	68d8      	ldr	r0, [r3, #12]
 8005bfa:	b14c      	cbz	r4, 8005c10 <__assert_func+0x24>
 8005bfc:	4b07      	ldr	r3, [pc, #28]	; (8005c1c <__assert_func+0x30>)
 8005bfe:	e9cd 3401 	strd	r3, r4, [sp, #4]
 8005c02:	9100      	str	r1, [sp, #0]
 8005c04:	462b      	mov	r3, r5
 8005c06:	4906      	ldr	r1, [pc, #24]	; (8005c20 <__assert_func+0x34>)
 8005c08:	f000 f966 	bl	8005ed8 <fiprintf>
 8005c0c:	f000 f976 	bl	8005efc <abort>
 8005c10:	4b04      	ldr	r3, [pc, #16]	; (8005c24 <__assert_func+0x38>)
 8005c12:	461c      	mov	r4, r3
 8005c14:	e7f3      	b.n	8005bfe <__assert_func+0x12>
 8005c16:	bf00      	nop
 8005c18:	20000064 	.word	0x20000064
 8005c1c:	0800675a 	.word	0x0800675a
 8005c20:	08006767 	.word	0x08006767
 8005c24:	080064b6 	.word	0x080064b6

08005c28 <_calloc_r>:
 8005c28:	b570      	push	{r4, r5, r6, lr}
 8005c2a:	fba1 5402 	umull	r5, r4, r1, r2
 8005c2e:	b934      	cbnz	r4, 8005c3e <_calloc_r+0x16>
 8005c30:	4629      	mov	r1, r5
 8005c32:	f7fe fe0d 	bl	8004850 <_malloc_r>
 8005c36:	4606      	mov	r6, r0
 8005c38:	b928      	cbnz	r0, 8005c46 <_calloc_r+0x1e>
 8005c3a:	4630      	mov	r0, r6
 8005c3c:	bd70      	pop	{r4, r5, r6, pc}
 8005c3e:	220c      	movs	r2, #12
 8005c40:	2600      	movs	r6, #0
 8005c42:	6002      	str	r2, [r0, #0]
 8005c44:	e7f9      	b.n	8005c3a <_calloc_r+0x12>
 8005c46:	462a      	mov	r2, r5
 8005c48:	4621      	mov	r1, r4
 8005c4a:	f7fd fe84 	bl	8003956 <memset>
 8005c4e:	e7f4      	b.n	8005c3a <_calloc_r+0x12>

08005c50 <__ascii_mbtowc>:
 8005c50:	b082      	sub	sp, #8
 8005c52:	b901      	cbnz	r1, 8005c56 <__ascii_mbtowc+0x6>
 8005c54:	a901      	add	r1, sp, #4
 8005c56:	b142      	cbz	r2, 8005c6a <__ascii_mbtowc+0x1a>
 8005c58:	b14b      	cbz	r3, 8005c6e <__ascii_mbtowc+0x1e>
 8005c5a:	7813      	ldrb	r3, [r2, #0]
 8005c5c:	600b      	str	r3, [r1, #0]
 8005c5e:	7812      	ldrb	r2, [r2, #0]
 8005c60:	1e10      	subs	r0, r2, #0
 8005c62:	bf18      	it	ne
 8005c64:	2001      	movne	r0, #1
 8005c66:	b002      	add	sp, #8
 8005c68:	4770      	bx	lr
 8005c6a:	4610      	mov	r0, r2
 8005c6c:	e7fb      	b.n	8005c66 <__ascii_mbtowc+0x16>
 8005c6e:	f06f 0001 	mvn.w	r0, #1
 8005c72:	e7f8      	b.n	8005c66 <__ascii_mbtowc+0x16>

08005c74 <_realloc_r>:
 8005c74:	e92d 41f0 	stmdb	sp!, {r4, r5, r6, r7, r8, lr}
 8005c78:	4680      	mov	r8, r0
 8005c7a:	4614      	mov	r4, r2
 8005c7c:	460e      	mov	r6, r1
 8005c7e:	b921      	cbnz	r1, 8005c8a <_realloc_r+0x16>
 8005c80:	4611      	mov	r1, r2
 8005c82:	e8bd 41f0 	ldmia.w	sp!, {r4, r5, r6, r7, r8, lr}
 8005c86:	f7fe bde3 	b.w	8004850 <_malloc_r>
 8005c8a:	b92a      	cbnz	r2, 8005c98 <_realloc_r+0x24>
 8005c8c:	f7fe fd70 	bl	8004770 <_free_r>
 8005c90:	4625      	mov	r5, r4
 8005c92:	4628      	mov	r0, r5
 8005c94:	e8bd 81f0 	ldmia.w	sp!, {r4, r5, r6, r7, r8, pc}
 8005c98:	f000 f937 	bl	8005f0a <_malloc_usable_size_r>
 8005c9c:	4284      	cmp	r4, r0
 8005c9e:	4607      	mov	r7, r0
 8005ca0:	d802      	bhi.n	8005ca8 <_realloc_r+0x34>
 8005ca2:	ebb4 0f50 	cmp.w	r4, r0, lsr #1
 8005ca6:	d812      	bhi.n	8005cce <_realloc_r+0x5a>
 8005ca8:	4621      	mov	r1, r4
 8005caa:	4640      	mov	r0, r8
 8005cac:	f7fe fdd0 	bl	8004850 <_malloc_r>
 8005cb0:	4605      	mov	r5, r0
 8005cb2:	2800      	cmp	r0, #0
 8005cb4:	d0ed      	beq.n	8005c92 <_realloc_r+0x1e>
 8005cb6:	42bc      	cmp	r4, r7
 8005cb8:	4622      	mov	r2, r4
 8005cba:	4631      	mov	r1, r6
 8005cbc:	bf28      	it	cs
 8005cbe:	463a      	movcs	r2, r7
 8005cc0:	f7ff ff86 	bl	8005bd0 <memcpy>
 8005cc4:	4631      	mov	r1, r6
 8005cc6:	4640      	mov	r0, r8
 8005cc8:	f7fe fd52 	bl	8004770 <_free_r>
 8005ccc:	e7e1      	b.n	8005c92 <_realloc_r+0x1e>
 8005cce:	4635      	mov	r5, r6
 8005cd0:	e7df      	b.n	8005c92 <_realloc_r+0x1e>
	...

08005cd4 <_strtol_l.constprop.0>:
 8005cd4:	2b01      	cmp	r3, #1
 8005cd6:	e92d 47f0 	stmdb	sp!, {r4, r5, r6, r7, r8, r9, sl, lr}
 8005cda:	4686      	mov	lr, r0
 8005cdc:	4690      	mov	r8, r2
 8005cde:	d001      	beq.n	8005ce4 <_strtol_l.constprop.0+0x10>
 8005ce0:	2b24      	cmp	r3, #36	; 0x24
 8005ce2:	d906      	bls.n	8005cf2 <_strtol_l.constprop.0+0x1e>
 8005ce4:	f7fd fe9c 	bl	8003a20 <__errno>
 8005ce8:	2316      	movs	r3, #22
 8005cea:	6003      	str	r3, [r0, #0]
 8005cec:	2000      	movs	r0, #0
 8005cee:	e8bd 87f0 	ldmia.w	sp!, {r4, r5, r6, r7, r8, r9, sl, pc}
 8005cf2:	460d      	mov	r5, r1
 8005cf4:	4835      	ldr	r0, [pc, #212]	; (8005dcc <_strtol_l.constprop.0+0xf8>)
 8005cf6:	462a      	mov	r2, r5
 8005cf8:	f815 4b01 	ldrb.w	r4, [r5], #1
 8005cfc:	5d06      	ldrb	r6, [r0, r4]
 8005cfe:	f016 0608 	ands.w	r6, r6, #8
 8005d02:	d1f8      	bne.n	8005cf6 <_strtol_l.constprop.0+0x22>
 8005d04:	2c2d      	cmp	r4, #45	; 0x2d
 8005d06:	d12e      	bne.n	8005d66 <_strtol_l.constprop.0+0x92>
 8005d08:	2601      	movs	r6, #1
 8005d0a:	782c      	ldrb	r4, [r5, #0]
 8005d0c:	1c95      	adds	r5, r2, #2
 8005d0e:	2b00      	cmp	r3, #0
 8005d10:	d057      	beq.n	8005dc2 <_strtol_l.constprop.0+0xee>
 8005d12:	2b10      	cmp	r3, #16
 8005d14:	d109      	bne.n	8005d2a <_strtol_l.constprop.0+0x56>
 8005d16:	2c30      	cmp	r4, #48	; 0x30
 8005d18:	d107      	bne.n	8005d2a <_strtol_l.constprop.0+0x56>
 8005d1a:	782a      	ldrb	r2, [r5, #0]
 8005d1c:	f002 02df 	and.w	r2, r2, #223	; 0xdf
 8005d20:	2a58      	cmp	r2, #88	; 0x58
 8005d22:	d149      	bne.n	8005db8 <_strtol_l.constprop.0+0xe4>
 8005d24:	2310      	movs	r3, #16
 8005d26:	786c      	ldrb	r4, [r5, #1]
 8005d28:	3502      	adds	r5, #2
 8005d2a:	2200      	movs	r2, #0
 8005d2c:	f106 4c00 	add.w	ip, r6, #2147483648	; 0x80000000
 8005d30:	f10c 3cff 	add.w	ip, ip, #4294967295
 8005d34:	fbbc f9f3 	udiv	r9, ip, r3
 8005d38:	4610      	mov	r0, r2
 8005d3a:	fb03 ca19 	mls	sl, r3, r9, ip
 8005d3e:	f1a4 0730 	sub.w	r7, r4, #48	; 0x30
 8005d42:	2f09      	cmp	r7, #9
 8005d44:	d814      	bhi.n	8005d70 <_strtol_l.constprop.0+0x9c>
 8005d46:	463c      	mov	r4, r7
 8005d48:	42a3      	cmp	r3, r4
 8005d4a:	dd20      	ble.n	8005d8e <_strtol_l.constprop.0+0xba>
 8005d4c:	1c57      	adds	r7, r2, #1
 8005d4e:	d007      	beq.n	8005d60 <_strtol_l.constprop.0+0x8c>
 8005d50:	4581      	cmp	r9, r0
 8005d52:	d319      	bcc.n	8005d88 <_strtol_l.constprop.0+0xb4>
 8005d54:	d101      	bne.n	8005d5a <_strtol_l.constprop.0+0x86>
 8005d56:	45a2      	cmp	sl, r4
 8005d58:	db16      	blt.n	8005d88 <_strtol_l.constprop.0+0xb4>
 8005d5a:	2201      	movs	r2, #1
 8005d5c:	fb00 4003 	mla	r0, r0, r3, r4
 8005d60:	f815 4b01 	ldrb.w	r4, [r5], #1
 8005d64:	e7eb      	b.n	8005d3e <_strtol_l.constprop.0+0x6a>
 8005d66:	2c2b      	cmp	r4, #43	; 0x2b
 8005d68:	bf04      	itt	eq
 8005d6a:	782c      	ldrbeq	r4, [r5, #0]
 8005d6c:	1c95      	addeq	r5, r2, #2
 8005d6e:	e7ce      	b.n	8005d0e <_strtol_l.constprop.0+0x3a>
 8005d70:	f1a4 0741 	sub.w	r7, r4, #65	; 0x41
 8005d74:	2f19      	cmp	r7, #25
 8005d76:	d801      	bhi.n	8005d7c <_strtol_l.constprop.0+0xa8>
 8005d78:	3c37      	subs	r4, #55	; 0x37
 8005d7a:	e7e5      	b.n	8005d48 <_strtol_l.constprop.0+0x74>
 8005d7c:	f1a4 0761 	sub.w	r7, r4, #97	; 0x61
 8005d80:	2f19      	cmp	r7, #25
 8005d82:	d804      	bhi.n	8005d8e <_strtol_l.constprop.0+0xba>
 8005d84:	3c57      	subs	r4, #87	; 0x57
 8005d86:	e7df      	b.n	8005d48 <_strtol_l.constprop.0+0x74>
 8005d88:	f04f 32ff 	mov.w	r2, #4294967295
 8005d8c:	e7e8      	b.n	8005d60 <_strtol_l.constprop.0+0x8c>
 8005d8e:	1c53      	adds	r3, r2, #1
 8005d90:	d108      	bne.n	8005da4 <_strtol_l.constprop.0+0xd0>
 8005d92:	2322      	movs	r3, #34	; 0x22
 8005d94:	4660      	mov	r0, ip
 8005d96:	f8ce 3000 	str.w	r3, [lr]
 8005d9a:	f1b8 0f00 	cmp.w	r8, #0
 8005d9e:	d0a6      	beq.n	8005cee <_strtol_l.constprop.0+0x1a>
 8005da0:	1e69      	subs	r1, r5, #1
 8005da2:	e006      	b.n	8005db2 <_strtol_l.constprop.0+0xde>
 8005da4:	b106      	cbz	r6, 8005da8 <_strtol_l.constprop.0+0xd4>
 8005da6:	4240      	negs	r0, r0
 8005da8:	f1b8 0f00 	cmp.w	r8, #0
 8005dac:	d09f      	beq.n	8005cee <_strtol_l.constprop.0+0x1a>
 8005dae:	2a00      	cmp	r2, #0
 8005db0:	d1f6      	bne.n	8005da0 <_strtol_l.constprop.0+0xcc>
 8005db2:	f8c8 1000 	str.w	r1, [r8]
 8005db6:	e79a      	b.n	8005cee <_strtol_l.constprop.0+0x1a>
 8005db8:	2430      	movs	r4, #48	; 0x30
 8005dba:	2b00      	cmp	r3, #0
 8005dbc:	d1b5      	bne.n	8005d2a <_strtol_l.constprop.0+0x56>
 8005dbe:	2308      	movs	r3, #8
 8005dc0:	e7b3      	b.n	8005d2a <_strtol_l.constprop.0+0x56>
 8005dc2:	2c30      	cmp	r4, #48	; 0x30
 8005dc4:	d0a9      	beq.n	8005d1a <_strtol_l.constprop.0+0x46>
 8005dc6:	230a      	movs	r3, #10
 8005dc8:	e7af      	b.n	8005d2a <_strtol_l.constprop.0+0x56>
 8005dca:	bf00      	nop
 8005dcc:	08006797 	.word	0x08006797

08005dd0 <_strtol_r>:
 8005dd0:	f7ff bf80 	b.w	8005cd4 <_strtol_l.constprop.0>

08005dd4 <_strtoul_l.constprop.0>:
 8005dd4:	e92d 43f0 	stmdb	sp!, {r4, r5, r6, r7, r8, r9, lr}
 8005dd8:	4686      	mov	lr, r0
 8005dda:	460d      	mov	r5, r1
 8005ddc:	4f35      	ldr	r7, [pc, #212]	; (8005eb4 <_strtoul_l.constprop.0+0xe0>)
 8005dde:	4628      	mov	r0, r5
 8005de0:	f815 4b01 	ldrb.w	r4, [r5], #1
 8005de4:	5d3e      	ldrb	r6, [r7, r4]
 8005de6:	f016 0608 	ands.w	r6, r6, #8
 8005dea:	d1f8      	bne.n	8005dde <_strtoul_l.constprop.0+0xa>
 8005dec:	2c2d      	cmp	r4, #45	; 0x2d
 8005dee:	d130      	bne.n	8005e52 <_strtoul_l.constprop.0+0x7e>
 8005df0:	2601      	movs	r6, #1
 8005df2:	782c      	ldrb	r4, [r5, #0]
 8005df4:	1c85      	adds	r5, r0, #2
 8005df6:	2b00      	cmp	r3, #0
 8005df8:	d057      	beq.n	8005eaa <_strtoul_l.constprop.0+0xd6>
 8005dfa:	2b10      	cmp	r3, #16
 8005dfc:	d109      	bne.n	8005e12 <_strtoul_l.constprop.0+0x3e>
 8005dfe:	2c30      	cmp	r4, #48	; 0x30
 8005e00:	d107      	bne.n	8005e12 <_strtoul_l.constprop.0+0x3e>
 8005e02:	7828      	ldrb	r0, [r5, #0]
 8005e04:	f000 00df 	and.w	r0, r0, #223	; 0xdf
 8005e08:	2858      	cmp	r0, #88	; 0x58
 8005e0a:	d149      	bne.n	8005ea0 <_strtoul_l.constprop.0+0xcc>
 8005e0c:	2310      	movs	r3, #16
 8005e0e:	786c      	ldrb	r4, [r5, #1]
 8005e10:	3502      	adds	r5, #2
 8005e12:	f04f 38ff 	mov.w	r8, #4294967295
 8005e16:	fbb8 f8f3 	udiv	r8, r8, r3
 8005e1a:	2700      	movs	r7, #0
 8005e1c:	fb03 f908 	mul.w	r9, r3, r8
 8005e20:	4638      	mov	r0, r7
 8005e22:	ea6f 0909 	mvn.w	r9, r9
 8005e26:	f1a4 0c30 	sub.w	ip, r4, #48	; 0x30
 8005e2a:	f1bc 0f09 	cmp.w	ip, #9
 8005e2e:	d815      	bhi.n	8005e5c <_strtoul_l.constprop.0+0x88>
 8005e30:	4664      	mov	r4, ip
 8005e32:	42a3      	cmp	r3, r4
 8005e34:	dd23      	ble.n	8005e7e <_strtoul_l.constprop.0+0xaa>
 8005e36:	f1b7 3fff 	cmp.w	r7, #4294967295
 8005e3a:	d007      	beq.n	8005e4c <_strtoul_l.constprop.0+0x78>
 8005e3c:	4580      	cmp	r8, r0
 8005e3e:	d31b      	bcc.n	8005e78 <_strtoul_l.constprop.0+0xa4>
 8005e40:	d101      	bne.n	8005e46 <_strtoul_l.constprop.0+0x72>
 8005e42:	45a1      	cmp	r9, r4
 8005e44:	db18      	blt.n	8005e78 <_strtoul_l.constprop.0+0xa4>
 8005e46:	2701      	movs	r7, #1
 8005e48:	fb00 4003 	mla	r0, r0, r3, r4
 8005e4c:	f815 4b01 	ldrb.w	r4, [r5], #1
 8005e50:	e7e9      	b.n	8005e26 <_strtoul_l.constprop.0+0x52>
 8005e52:	2c2b      	cmp	r4, #43	; 0x2b
 8005e54:	bf04      	itt	eq
 8005e56:	782c      	ldrbeq	r4, [r5, #0]
 8005e58:	1c85      	addeq	r5, r0, #2
 8005e5a:	e7cc      	b.n	8005df6 <_strtoul_l.constprop.0+0x22>
 8005e5c:	f1a4 0c41 	sub.w	ip, r4, #65	; 0x41
 8005e60:	f1bc 0f19 	cmp.w	ip, #25
 8005e64:	d801      	bhi.n	8005e6a <_strtoul_l.constprop.0+0x96>
 8005e66:	3c37      	subs	r4, #55	; 0x37
 8005e68:	e7e3      	b.n	8005e32 <_strtoul_l.constprop.0+0x5e>
 8005e6a:	f1a4 0c61 	sub.w	ip, r4, #97	; 0x61
 8005e6e:	f1bc 0f19 	cmp.w	ip, #25
 8005e72:	d804      	bhi.n	8005e7e <_strtoul_l.constprop.0+0xaa>
 8005e74:	3c57      	subs	r4, #87	; 0x57
 8005e76:	e7dc      	b.n	8005e32 <_strtoul_l.constprop.0+0x5e>
 8005e78:	f04f 37ff 	mov.w	r7, #4294967295
 8005e7c:	e7e6      	b.n	8005e4c <_strtoul_l.constprop.0+0x78>
 8005e7e:	1c7b      	adds	r3, r7, #1
 8005e80:	d106      	bne.n	8005e90 <_strtoul_l.constprop.0+0xbc>
 8005e82:	2322      	movs	r3, #34	; 0x22
 8005e84:	4638      	mov	r0, r7
 8005e86:	f8ce 3000 	str.w	r3, [lr]
 8005e8a:	b932      	cbnz	r2, 8005e9a <_strtoul_l.constprop.0+0xc6>
 8005e8c:	e8bd 83f0 	ldmia.w	sp!, {r4, r5, r6, r7, r8, r9, pc}
 8005e90:	b106      	cbz	r6, 8005e94 <_strtoul_l.constprop.0+0xc0>
 8005e92:	4240      	negs	r0, r0
 8005e94:	2a00      	cmp	r2, #0
 8005e96:	d0f9      	beq.n	8005e8c <_strtoul_l.constprop.0+0xb8>
 8005e98:	b107      	cbz	r7, 8005e9c <_strtoul_l.constprop.0+0xc8>
 8005e9a:	1e69      	subs	r1, r5, #1
 8005e9c:	6011      	str	r1, [r2, #0]
 8005e9e:	e7f5      	b.n	8005e8c <_strtoul_l.constprop.0+0xb8>
 8005ea0:	2430      	movs	r4, #48	; 0x30
 8005ea2:	2b00      	cmp	r3, #0
 8005ea4:	d1b5      	bne.n	8005e12 <_strtoul_l.constprop.0+0x3e>
 8005ea6:	2308      	movs	r3, #8
 8005ea8:	e7b3      	b.n	8005e12 <_strtoul_l.constprop.0+0x3e>
 8005eaa:	2c30      	cmp	r4, #48	; 0x30
 8005eac:	d0a9      	beq.n	8005e02 <_strtoul_l.constprop.0+0x2e>
 8005eae:	230a      	movs	r3, #10
 8005eb0:	e7af      	b.n	8005e12 <_strtoul_l.constprop.0+0x3e>
 8005eb2:	bf00      	nop
 8005eb4:	08006797 	.word	0x08006797

08005eb8 <_strtoul_r>:
 8005eb8:	f7ff bf8c 	b.w	8005dd4 <_strtoul_l.constprop.0>

08005ebc <__ascii_wctomb>:
 8005ebc:	4603      	mov	r3, r0
 8005ebe:	4608      	mov	r0, r1
 8005ec0:	b141      	cbz	r1, 8005ed4 <__ascii_wctomb+0x18>
 8005ec2:	2aff      	cmp	r2, #255	; 0xff
 8005ec4:	d904      	bls.n	8005ed0 <__ascii_wctomb+0x14>
 8005ec6:	228a      	movs	r2, #138	; 0x8a
 8005ec8:	f04f 30ff 	mov.w	r0, #4294967295
 8005ecc:	601a      	str	r2, [r3, #0]
 8005ece:	4770      	bx	lr
 8005ed0:	2001      	movs	r0, #1
 8005ed2:	700a      	strb	r2, [r1, #0]
 8005ed4:	4770      	bx	lr
	...

08005ed8 <fiprintf>:
 8005ed8:	b40e      	push	{r1, r2, r3}
 8005eda:	b503      	push	{r0, r1, lr}
 8005edc:	4601      	mov	r1, r0
 8005ede:	ab03      	add	r3, sp, #12
 8005ee0:	4805      	ldr	r0, [pc, #20]	; (8005ef8 <fiprintf+0x20>)
 8005ee2:	f853 2b04 	ldr.w	r2, [r3], #4
 8005ee6:	6800      	ldr	r0, [r0, #0]
 8005ee8:	9301      	str	r3, [sp, #4]
 8005eea:	f000 f83d 	bl	8005f68 <_vfiprintf_r>
 8005eee:	b002      	add	sp, #8
 8005ef0:	f85d eb04 	ldr.w	lr, [sp], #4
 8005ef4:	b003      	add	sp, #12
 8005ef6:	4770      	bx	lr
 8005ef8:	20000064 	.word	0x20000064

08005efc <abort>:
 8005efc:	2006      	movs	r0, #6
 8005efe:	b508      	push	{r3, lr}
 8005f00:	f000 fa0a 	bl	8006318 <raise>
 8005f04:	2001      	movs	r0, #1
 8005f06:	f7fb f95d 	bl	80011c4 <_exit>

08005f0a <_malloc_usable_size_r>:
 8005f0a:	f851 3c04 	ldr.w	r3, [r1, #-4]
 8005f0e:	1f18      	subs	r0, r3, #4
 8005f10:	2b00      	cmp	r3, #0
 8005f12:	bfbc      	itt	lt
 8005f14:	580b      	ldrlt	r3, [r1, r0]
 8005f16:	18c0      	addlt	r0, r0, r3
 8005f18:	4770      	bx	lr

08005f1a <__sfputc_r>:
 8005f1a:	6893      	ldr	r3, [r2, #8]
 8005f1c:	b410      	push	{r4}
 8005f1e:	3b01      	subs	r3, #1
 8005f20:	2b00      	cmp	r3, #0
 8005f22:	6093      	str	r3, [r2, #8]
 8005f24:	da07      	bge.n	8005f36 <__sfputc_r+0x1c>
 8005f26:	6994      	ldr	r4, [r2, #24]
 8005f28:	42a3      	cmp	r3, r4
 8005f2a:	db01      	blt.n	8005f30 <__sfputc_r+0x16>
 8005f2c:	290a      	cmp	r1, #10
 8005f2e:	d102      	bne.n	8005f36 <__sfputc_r+0x1c>
 8005f30:	bc10      	pop	{r4}
 8005f32:	f000 b933 	b.w	800619c <__swbuf_r>
 8005f36:	6813      	ldr	r3, [r2, #0]
 8005f38:	1c58      	adds	r0, r3, #1
 8005f3a:	6010      	str	r0, [r2, #0]
 8005f3c:	7019      	strb	r1, [r3, #0]
 8005f3e:	4608      	mov	r0, r1
 8005f40:	bc10      	pop	{r4}
 8005f42:	4770      	bx	lr

08005f44 <__sfputs_r>:
 8005f44:	b5f8      	push	{r3, r4, r5, r6, r7, lr}
 8005f46:	4606      	mov	r6, r0
 8005f48:	460f      	mov	r7, r1
 8005f4a:	4614      	mov	r4, r2
 8005f4c:	18d5      	adds	r5, r2, r3
 8005f4e:	42ac      	cmp	r4, r5
 8005f50:	d101      	bne.n	8005f56 <__sfputs_r+0x12>
 8005f52:	2000      	movs	r0, #0
 8005f54:	e007      	b.n	8005f66 <__sfputs_r+0x22>
 8005f56:	463a      	mov	r2, r7
 8005f58:	4630      	mov	r0, r6
 8005f5a:	f814 1b01 	ldrb.w	r1, [r4], #1
 8005f5e:	f7ff ffdc 	bl	8005f1a <__sfputc_r>
 8005f62:	1c43      	adds	r3, r0, #1
 8005f64:	d1f3      	bne.n	8005f4e <__sfputs_r+0xa>
 8005f66:	bdf8      	pop	{r3, r4, r5, r6, r7, pc}

08005f68 <_vfiprintf_r>:
 8005f68:	e92d 4ff0 	stmdb	sp!, {r4, r5, r6, r7, r8, r9, sl, fp, lr}
 8005f6c:	460d      	mov	r5, r1
 8005f6e:	4614      	mov	r4, r2
 8005f70:	4698      	mov	r8, r3
 8005f72:	4606      	mov	r6, r0
 8005f74:	b09d      	sub	sp, #116	; 0x74
 8005f76:	b118      	cbz	r0, 8005f80 <_vfiprintf_r+0x18>
 8005f78:	6a03      	ldr	r3, [r0, #32]
 8005f7a:	b90b      	cbnz	r3, 8005f80 <_vfiprintf_r+0x18>
 8005f7c:	f7fd fbf2 	bl	8003764 <__sinit>
 8005f80:	6e6b      	ldr	r3, [r5, #100]	; 0x64
 8005f82:	07d9      	lsls	r1, r3, #31
 8005f84:	d405      	bmi.n	8005f92 <_vfiprintf_r+0x2a>
 8005f86:	89ab      	ldrh	r3, [r5, #12]
 8005f88:	059a      	lsls	r2, r3, #22
 8005f8a:	d402      	bmi.n	8005f92 <_vfiprintf_r+0x2a>
 8005f8c:	6da8      	ldr	r0, [r5, #88]	; 0x58
 8005f8e:	f7fd fd71 	bl	8003a74 <__retarget_lock_acquire_recursive>
 8005f92:	89ab      	ldrh	r3, [r5, #12]
 8005f94:	071b      	lsls	r3, r3, #28
 8005f96:	d501      	bpl.n	8005f9c <_vfiprintf_r+0x34>
 8005f98:	692b      	ldr	r3, [r5, #16]
 8005f9a:	b99b      	cbnz	r3, 8005fc4 <_vfiprintf_r+0x5c>
 8005f9c:	4629      	mov	r1, r5
 8005f9e:	4630      	mov	r0, r6
 8005fa0:	f000 f93a 	bl	8006218 <__swsetup_r>
 8005fa4:	b170      	cbz	r0, 8005fc4 <_vfiprintf_r+0x5c>
 8005fa6:	6e6b      	ldr	r3, [r5, #100]	; 0x64
 8005fa8:	07dc      	lsls	r4, r3, #31
 8005faa:	d504      	bpl.n	8005fb6 <_vfiprintf_r+0x4e>
 8005fac:	f04f 30ff 	mov.w	r0, #4294967295
 8005fb0:	b01d      	add	sp, #116	; 0x74
 8005fb2:	e8bd 8ff0 	ldmia.w	sp!, {r4, r5, r6, r7, r8, r9, sl, fp, pc}
 8005fb6:	89ab      	ldrh	r3, [r5, #12]
 8005fb8:	0598      	lsls	r0, r3, #22
 8005fba:	d4f7      	bmi.n	8005fac <_vfiprintf_r+0x44>
 8005fbc:	6da8      	ldr	r0, [r5, #88]	; 0x58
 8005fbe:	f7fd fd5a 	bl	8003a76 <__retarget_lock_release_recursive>
 8005fc2:	e7f3      	b.n	8005fac <_vfiprintf_r+0x44>
 8005fc4:	2300      	movs	r3, #0
 8005fc6:	9309      	str	r3, [sp, #36]	; 0x24
 8005fc8:	2320      	movs	r3, #32
 8005fca:	f88d 3029 	strb.w	r3, [sp, #41]	; 0x29
 8005fce:	2330      	movs	r3, #48	; 0x30
 8005fd0:	f04f 0901 	mov.w	r9, #1
 8005fd4:	f8cd 800c 	str.w	r8, [sp, #12]
 8005fd8:	f8df 81ac 	ldr.w	r8, [pc, #428]	; 8006188 <_vfiprintf_r+0x220>
 8005fdc:	f88d 302a 	strb.w	r3, [sp, #42]	; 0x2a
 8005fe0:	4623      	mov	r3, r4
 8005fe2:	469a      	mov	sl, r3
 8005fe4:	f813 2b01 	ldrb.w	r2, [r3], #1
 8005fe8:	b10a      	cbz	r2, 8005fee <_vfiprintf_r+0x86>
 8005fea:	2a25      	cmp	r2, #37	; 0x25
 8005fec:	d1f9      	bne.n	8005fe2 <_vfiprintf_r+0x7a>
 8005fee:	ebba 0b04 	subs.w	fp, sl, r4
 8005ff2:	d00b      	beq.n	800600c <_vfiprintf_r+0xa4>
 8005ff4:	465b      	mov	r3, fp
 8005ff6:	4622      	mov	r2, r4
 8005ff8:	4629      	mov	r1, r5
 8005ffa:	4630      	mov	r0, r6
 8005ffc:	f7ff ffa2 	bl	8005f44 <__sfputs_r>
 8006000:	3001      	adds	r0, #1
 8006002:	f000 80a9 	beq.w	8006158 <_vfiprintf_r+0x1f0>
 8006006:	9a09      	ldr	r2, [sp, #36]	; 0x24
 8006008:	445a      	add	r2, fp
 800600a:	9209      	str	r2, [sp, #36]	; 0x24
 800600c:	f89a 3000 	ldrb.w	r3, [sl]
 8006010:	2b00      	cmp	r3, #0
 8006012:	f000 80a1 	beq.w	8006158 <_vfiprintf_r+0x1f0>
 8006016:	2300      	movs	r3, #0
 8006018:	f04f 32ff 	mov.w	r2, #4294967295
 800601c:	e9cd 2305 	strd	r2, r3, [sp, #20]
 8006020:	f10a 0a01 	add.w	sl, sl, #1
 8006024:	9304      	str	r3, [sp, #16]
 8006026:	9307      	str	r3, [sp, #28]
 8006028:	f88d 3053 	strb.w	r3, [sp, #83]	; 0x53
 800602c:	931a      	str	r3, [sp, #104]	; 0x68
 800602e:	4654      	mov	r4, sl
 8006030:	2205      	movs	r2, #5
 8006032:	f814 1b01 	ldrb.w	r1, [r4], #1
 8006036:	4854      	ldr	r0, [pc, #336]	; (8006188 <_vfiprintf_r+0x220>)
 8006038:	f7fd fd1e 	bl	8003a78 <memchr>
 800603c:	9a04      	ldr	r2, [sp, #16]
 800603e:	b9d8      	cbnz	r0, 8006078 <_vfiprintf_r+0x110>
 8006040:	06d1      	lsls	r1, r2, #27
 8006042:	bf44      	itt	mi
 8006044:	2320      	movmi	r3, #32
 8006046:	f88d 3053 	strbmi.w	r3, [sp, #83]	; 0x53
 800604a:	0713      	lsls	r3, r2, #28
 800604c:	bf44      	itt	mi
 800604e:	232b      	movmi	r3, #43	; 0x2b
 8006050:	f88d 3053 	strbmi.w	r3, [sp, #83]	; 0x53
 8006054:	f89a 3000 	ldrb.w	r3, [sl]
 8006058:	2b2a      	cmp	r3, #42	; 0x2a
 800605a:	d015      	beq.n	8006088 <_vfiprintf_r+0x120>
 800605c:	4654      	mov	r4, sl
 800605e:	2000      	movs	r0, #0
 8006060:	f04f 0c0a 	mov.w	ip, #10
 8006064:	9a07      	ldr	r2, [sp, #28]
 8006066:	4621      	mov	r1, r4
 8006068:	f811 3b01 	ldrb.w	r3, [r1], #1
 800606c:	3b30      	subs	r3, #48	; 0x30
 800606e:	2b09      	cmp	r3, #9
 8006070:	d94d      	bls.n	800610e <_vfiprintf_r+0x1a6>
 8006072:	b1b0      	cbz	r0, 80060a2 <_vfiprintf_r+0x13a>
 8006074:	9207      	str	r2, [sp, #28]
 8006076:	e014      	b.n	80060a2 <_vfiprintf_r+0x13a>
 8006078:	eba0 0308 	sub.w	r3, r0, r8
 800607c:	fa09 f303 	lsl.w	r3, r9, r3
 8006080:	4313      	orrs	r3, r2
 8006082:	46a2      	mov	sl, r4
 8006084:	9304      	str	r3, [sp, #16]
 8006086:	e7d2      	b.n	800602e <_vfiprintf_r+0xc6>
 8006088:	9b03      	ldr	r3, [sp, #12]
 800608a:	1d19      	adds	r1, r3, #4
 800608c:	681b      	ldr	r3, [r3, #0]
 800608e:	9103      	str	r1, [sp, #12]
 8006090:	2b00      	cmp	r3, #0
 8006092:	bfbb      	ittet	lt
 8006094:	425b      	neglt	r3, r3
 8006096:	f042 0202 	orrlt.w	r2, r2, #2
 800609a:	9307      	strge	r3, [sp, #28]
 800609c:	9307      	strlt	r3, [sp, #28]
 800609e:	bfb8      	it	lt
 80060a0:	9204      	strlt	r2, [sp, #16]
 80060a2:	7823      	ldrb	r3, [r4, #0]
 80060a4:	2b2e      	cmp	r3, #46	; 0x2e
 80060a6:	d10c      	bne.n	80060c2 <_vfiprintf_r+0x15a>
 80060a8:	7863      	ldrb	r3, [r4, #1]
 80060aa:	2b2a      	cmp	r3, #42	; 0x2a
 80060ac:	d134      	bne.n	8006118 <_vfiprintf_r+0x1b0>
 80060ae:	9b03      	ldr	r3, [sp, #12]
 80060b0:	3402      	adds	r4, #2
 80060b2:	1d1a      	adds	r2, r3, #4
 80060b4:	681b      	ldr	r3, [r3, #0]
 80060b6:	9203      	str	r2, [sp, #12]
 80060b8:	2b00      	cmp	r3, #0
 80060ba:	bfb8      	it	lt
 80060bc:	f04f 33ff 	movlt.w	r3, #4294967295
 80060c0:	9305      	str	r3, [sp, #20]
 80060c2:	f8df a0c8 	ldr.w	sl, [pc, #200]	; 800618c <_vfiprintf_r+0x224>
 80060c6:	2203      	movs	r2, #3
 80060c8:	4650      	mov	r0, sl
 80060ca:	7821      	ldrb	r1, [r4, #0]
 80060cc:	f7fd fcd4 	bl	8003a78 <memchr>
 80060d0:	b138      	cbz	r0, 80060e2 <_vfiprintf_r+0x17a>
 80060d2:	2240      	movs	r2, #64	; 0x40
 80060d4:	9b04      	ldr	r3, [sp, #16]
 80060d6:	eba0 000a 	sub.w	r0, r0, sl
 80060da:	4082      	lsls	r2, r0
 80060dc:	4313      	orrs	r3, r2
 80060de:	3401      	adds	r4, #1
 80060e0:	9304      	str	r3, [sp, #16]
 80060e2:	f814 1b01 	ldrb.w	r1, [r4], #1
 80060e6:	2206      	movs	r2, #6
 80060e8:	4829      	ldr	r0, [pc, #164]	; (8006190 <_vfiprintf_r+0x228>)
 80060ea:	f88d 1028 	strb.w	r1, [sp, #40]	; 0x28
 80060ee:	f7fd fcc3 	bl	8003a78 <memchr>
 80060f2:	2800      	cmp	r0, #0
 80060f4:	d03f      	beq.n	8006176 <_vfiprintf_r+0x20e>
 80060f6:	4b27      	ldr	r3, [pc, #156]	; (8006194 <_vfiprintf_r+0x22c>)
 80060f8:	bb1b      	cbnz	r3, 8006142 <_vfiprintf_r+0x1da>
 80060fa:	9b03      	ldr	r3, [sp, #12]
 80060fc:	3307      	adds	r3, #7
 80060fe:	f023 0307 	bic.w	r3, r3, #7
 8006102:	3308      	adds	r3, #8
 8006104:	9303      	str	r3, [sp, #12]
 8006106:	9b09      	ldr	r3, [sp, #36]	; 0x24
 8006108:	443b      	add	r3, r7
 800610a:	9309      	str	r3, [sp, #36]	; 0x24
 800610c:	e768      	b.n	8005fe0 <_vfiprintf_r+0x78>
 800610e:	460c      	mov	r4, r1
 8006110:	2001      	movs	r0, #1
 8006112:	fb0c 3202 	mla	r2, ip, r2, r3
 8006116:	e7a6      	b.n	8006066 <_vfiprintf_r+0xfe>
 8006118:	2300      	movs	r3, #0
 800611a:	f04f 0c0a 	mov.w	ip, #10
 800611e:	4619      	mov	r1, r3
 8006120:	3401      	adds	r4, #1
 8006122:	9305      	str	r3, [sp, #20]
 8006124:	4620      	mov	r0, r4
 8006126:	f810 2b01 	ldrb.w	r2, [r0], #1
 800612a:	3a30      	subs	r2, #48	; 0x30
 800612c:	2a09      	cmp	r2, #9
 800612e:	d903      	bls.n	8006138 <_vfiprintf_r+0x1d0>
 8006130:	2b00      	cmp	r3, #0
 8006132:	d0c6      	beq.n	80060c2 <_vfiprintf_r+0x15a>
 8006134:	9105      	str	r1, [sp, #20]
 8006136:	e7c4      	b.n	80060c2 <_vfiprintf_r+0x15a>
 8006138:	4604      	mov	r4, r0
 800613a:	2301      	movs	r3, #1
 800613c:	fb0c 2101 	mla	r1, ip, r1, r2
 8006140:	e7f0      	b.n	8006124 <_vfiprintf_r+0x1bc>
 8006142:	ab03      	add	r3, sp, #12
 8006144:	9300      	str	r3, [sp, #0]
 8006146:	462a      	mov	r2, r5
 8006148:	4630      	mov	r0, r6
 800614a:	4b13      	ldr	r3, [pc, #76]	; (8006198 <_vfiprintf_r+0x230>)
 800614c:	a904      	add	r1, sp, #16
 800614e:	f7fc fecd 	bl	8002eec <_printf_float>
 8006152:	4607      	mov	r7, r0
 8006154:	1c78      	adds	r0, r7, #1
 8006156:	d1d6      	bne.n	8006106 <_vfiprintf_r+0x19e>
 8006158:	6e6b      	ldr	r3, [r5, #100]	; 0x64
 800615a:	07d9      	lsls	r1, r3, #31
 800615c:	d405      	bmi.n	800616a <_vfiprintf_r+0x202>
 800615e:	89ab      	ldrh	r3, [r5, #12]
 8006160:	059a      	lsls	r2, r3, #22
 8006162:	d402      	bmi.n	800616a <_vfiprintf_r+0x202>
 8006164:	6da8      	ldr	r0, [r5, #88]	; 0x58
 8006166:	f7fd fc86 	bl	8003a76 <__retarget_lock_release_recursive>
 800616a:	89ab      	ldrh	r3, [r5, #12]
 800616c:	065b      	lsls	r3, r3, #25
 800616e:	f53f af1d 	bmi.w	8005fac <_vfiprintf_r+0x44>
 8006172:	9809      	ldr	r0, [sp, #36]	; 0x24
 8006174:	e71c      	b.n	8005fb0 <_vfiprintf_r+0x48>
 8006176:	ab03      	add	r3, sp, #12
 8006178:	9300      	str	r3, [sp, #0]
 800617a:	462a      	mov	r2, r5
 800617c:	4630      	mov	r0, r6
 800617e:	4b06      	ldr	r3, [pc, #24]	; (8006198 <_vfiprintf_r+0x230>)
 8006180:	a904      	add	r1, sp, #16
 8006182:	f7fd f953 	bl	800342c <_printf_i>
 8006186:	e7e4      	b.n	8006152 <_vfiprintf_r+0x1ea>
 8006188:	08006724 	.word	0x08006724
 800618c:	0800672a 	.word	0x0800672a
 8006190:	0800672e 	.word	0x0800672e
 8006194:	08002eed 	.word	0x08002eed
 8006198:	08005f45 	.word	0x08005f45

0800619c <__swbuf_r>:
 800619c:	b5f8      	push	{r3, r4, r5, r6, r7, lr}
 800619e:	460e      	mov	r6, r1
 80061a0:	4614      	mov	r4, r2
 80061a2:	4605      	mov	r5, r0
 80061a4:	b118      	cbz	r0, 80061ae <__swbuf_r+0x12>
 80061a6:	6a03      	ldr	r3, [r0, #32]
 80061a8:	b90b      	cbnz	r3, 80061ae <__swbuf_r+0x12>
 80061aa:	f7fd fadb 	bl	8003764 <__sinit>
 80061ae:	69a3      	ldr	r3, [r4, #24]
 80061b0:	60a3      	str	r3, [r4, #8]
 80061b2:	89a3      	ldrh	r3, [r4, #12]
 80061b4:	071a      	lsls	r2, r3, #28
 80061b6:	d525      	bpl.n	8006204 <__swbuf_r+0x68>
 80061b8:	6923      	ldr	r3, [r4, #16]
 80061ba:	b31b      	cbz	r3, 8006204 <__swbuf_r+0x68>
 80061bc:	6823      	ldr	r3, [r4, #0]
 80061be:	6922      	ldr	r2, [r4, #16]
 80061c0:	b2f6      	uxtb	r6, r6
 80061c2:	1a98      	subs	r0, r3, r2
 80061c4:	6963      	ldr	r3, [r4, #20]
 80061c6:	4637      	mov	r7, r6
 80061c8:	4283      	cmp	r3, r0
 80061ca:	dc04      	bgt.n	80061d6 <__swbuf_r+0x3a>
 80061cc:	4621      	mov	r1, r4
 80061ce:	4628      	mov	r0, r5
 80061d0:	f7ff fc3a 	bl	8005a48 <_fflush_r>
 80061d4:	b9e0      	cbnz	r0, 8006210 <__swbuf_r+0x74>
 80061d6:	68a3      	ldr	r3, [r4, #8]
 80061d8:	3b01      	subs	r3, #1
 80061da:	60a3      	str	r3, [r4, #8]
 80061dc:	6823      	ldr	r3, [r4, #0]
 80061de:	1c5a      	adds	r2, r3, #1
 80061e0:	6022      	str	r2, [r4, #0]
 80061e2:	701e      	strb	r6, [r3, #0]
 80061e4:	6962      	ldr	r2, [r4, #20]
 80061e6:	1c43      	adds	r3, r0, #1
 80061e8:	429a      	cmp	r2, r3
 80061ea:	d004      	beq.n	80061f6 <__swbuf_r+0x5a>
 80061ec:	89a3      	ldrh	r3, [r4, #12]
 80061ee:	07db      	lsls	r3, r3, #31
 80061f0:	d506      	bpl.n	8006200 <__swbuf_r+0x64>
 80061f2:	2e0a      	cmp	r6, #10
 80061f4:	d104      	bne.n	8006200 <__swbuf_r+0x64>
 80061f6:	4621      	mov	r1, r4
 80061f8:	4628      	mov	r0, r5
 80061fa:	f7ff fc25 	bl	8005a48 <_fflush_r>
 80061fe:	b938      	cbnz	r0, 8006210 <__swbuf_r+0x74>
 8006200:	4638      	mov	r0, r7
 8006202:	bdf8      	pop	{r3, r4, r5, r6, r7, pc}
 8006204:	4621      	mov	r1, r4
 8006206:	4628      	mov	r0, r5
 8006208:	f000 f806 	bl	8006218 <__swsetup_r>
 800620c:	2800      	cmp	r0, #0
 800620e:	d0d5      	beq.n	80061bc <__swbuf_r+0x20>
 8006210:	f04f 37ff 	mov.w	r7, #4294967295
 8006214:	e7f4      	b.n	8006200 <__swbuf_r+0x64>
	...

08006218 <__swsetup_r>:
 8006218:	b538      	push	{r3, r4, r5, lr}
 800621a:	4b2a      	ldr	r3, [pc, #168]	; (80062c4 <__swsetup_r+0xac>)
 800621c:	4605      	mov	r5, r0
 800621e:	6818      	ldr	r0, [r3, #0]
 8006220:	460c      	mov	r4, r1
 8006222:	b118      	cbz	r0, 800622c <__swsetup_r+0x14>
 8006224:	6a03      	ldr	r3, [r0, #32]
 8006226:	b90b      	cbnz	r3, 800622c <__swsetup_r+0x14>
 8006228:	f7fd fa9c 	bl	8003764 <__sinit>
 800622c:	89a3      	ldrh	r3, [r4, #12]
 800622e:	f9b4 200c 	ldrsh.w	r2, [r4, #12]
 8006232:	0718      	lsls	r0, r3, #28
 8006234:	d422      	bmi.n	800627c <__swsetup_r+0x64>
 8006236:	06d9      	lsls	r1, r3, #27
 8006238:	d407      	bmi.n	800624a <__swsetup_r+0x32>
 800623a:	2309      	movs	r3, #9
 800623c:	602b      	str	r3, [r5, #0]
 800623e:	f042 0340 	orr.w	r3, r2, #64	; 0x40
 8006242:	f04f 30ff 	mov.w	r0, #4294967295
 8006246:	81a3      	strh	r3, [r4, #12]
 8006248:	e034      	b.n	80062b4 <__swsetup_r+0x9c>
 800624a:	0758      	lsls	r0, r3, #29
 800624c:	d512      	bpl.n	8006274 <__swsetup_r+0x5c>
 800624e:	6b61      	ldr	r1, [r4, #52]	; 0x34
 8006250:	b141      	cbz	r1, 8006264 <__swsetup_r+0x4c>
 8006252:	f104 0344 	add.w	r3, r4, #68	; 0x44
 8006256:	4299      	cmp	r1, r3
 8006258:	d002      	beq.n	8006260 <__swsetup_r+0x48>
 800625a:	4628      	mov	r0, r5
 800625c:	f7fe fa88 	bl	8004770 <_free_r>
 8006260:	2300      	movs	r3, #0
 8006262:	6363      	str	r3, [r4, #52]	; 0x34
 8006264:	89a3      	ldrh	r3, [r4, #12]
 8006266:	f023 0324 	bic.w	r3, r3, #36	; 0x24
 800626a:	81a3      	strh	r3, [r4, #12]
 800626c:	2300      	movs	r3, #0
 800626e:	6063      	str	r3, [r4, #4]
 8006270:	6923      	ldr	r3, [r4, #16]
 8006272:	6023      	str	r3, [r4, #0]
 8006274:	89a3      	ldrh	r3, [r4, #12]
 8006276:	f043 0308 	orr.w	r3, r3, #8
 800627a:	81a3      	strh	r3, [r4, #12]
 800627c:	6923      	ldr	r3, [r4, #16]
 800627e:	b94b      	cbnz	r3, 8006294 <__swsetup_r+0x7c>
 8006280:	89a3      	ldrh	r3, [r4, #12]
 8006282:	f403 7320 	and.w	r3, r3, #640	; 0x280
 8006286:	f5b3 7f00 	cmp.w	r3, #512	; 0x200
 800628a:	d003      	beq.n	8006294 <__swsetup_r+0x7c>
 800628c:	4621      	mov	r1, r4
 800628e:	4628      	mov	r0, r5
 8006290:	f000 f883 	bl	800639a <__smakebuf_r>
 8006294:	89a0      	ldrh	r0, [r4, #12]
 8006296:	f9b4 200c 	ldrsh.w	r2, [r4, #12]
 800629a:	f010 0301 	ands.w	r3, r0, #1
 800629e:	d00a      	beq.n	80062b6 <__swsetup_r+0x9e>
 80062a0:	2300      	movs	r3, #0
 80062a2:	60a3      	str	r3, [r4, #8]
 80062a4:	6963      	ldr	r3, [r4, #20]
 80062a6:	425b      	negs	r3, r3
 80062a8:	61a3      	str	r3, [r4, #24]
 80062aa:	6923      	ldr	r3, [r4, #16]
 80062ac:	b943      	cbnz	r3, 80062c0 <__swsetup_r+0xa8>
 80062ae:	f010 0080 	ands.w	r0, r0, #128	; 0x80
 80062b2:	d1c4      	bne.n	800623e <__swsetup_r+0x26>
 80062b4:	bd38      	pop	{r3, r4, r5, pc}
 80062b6:	0781      	lsls	r1, r0, #30
 80062b8:	bf58      	it	pl
 80062ba:	6963      	ldrpl	r3, [r4, #20]
 80062bc:	60a3      	str	r3, [r4, #8]
 80062be:	e7f4      	b.n	80062aa <__swsetup_r+0x92>
 80062c0:	2000      	movs	r0, #0
 80062c2:	e7f7      	b.n	80062b4 <__swsetup_r+0x9c>
 80062c4:	20000064 	.word	0x20000064

080062c8 <_raise_r>:
 80062c8:	291f      	cmp	r1, #31
 80062ca:	b538      	push	{r3, r4, r5, lr}
 80062cc:	4604      	mov	r4, r0
 80062ce:	460d      	mov	r5, r1
 80062d0:	d904      	bls.n	80062dc <_raise_r+0x14>
 80062d2:	2316      	movs	r3, #22
 80062d4:	6003      	str	r3, [r0, #0]
 80062d6:	f04f 30ff 	mov.w	r0, #4294967295
 80062da:	bd38      	pop	{r3, r4, r5, pc}
 80062dc:	6bc2      	ldr	r2, [r0, #60]	; 0x3c
 80062de:	b112      	cbz	r2, 80062e6 <_raise_r+0x1e>
 80062e0:	f852 3021 	ldr.w	r3, [r2, r1, lsl #2]
 80062e4:	b94b      	cbnz	r3, 80062fa <_raise_r+0x32>
 80062e6:	4620      	mov	r0, r4
 80062e8:	f000 f830 	bl	800634c <_getpid_r>
 80062ec:	462a      	mov	r2, r5
 80062ee:	4601      	mov	r1, r0
 80062f0:	4620      	mov	r0, r4
 80062f2:	e8bd 4038 	ldmia.w	sp!, {r3, r4, r5, lr}
 80062f6:	f000 b817 	b.w	8006328 <_kill_r>
 80062fa:	2b01      	cmp	r3, #1
 80062fc:	d00a      	beq.n	8006314 <_raise_r+0x4c>
 80062fe:	1c59      	adds	r1, r3, #1
 8006300:	d103      	bne.n	800630a <_raise_r+0x42>
 8006302:	2316      	movs	r3, #22
 8006304:	6003      	str	r3, [r0, #0]
 8006306:	2001      	movs	r0, #1
 8006308:	e7e7      	b.n	80062da <_raise_r+0x12>
 800630a:	2400      	movs	r4, #0
 800630c:	4628      	mov	r0, r5
 800630e:	f842 4025 	str.w	r4, [r2, r5, lsl #2]
 8006312:	4798      	blx	r3
 8006314:	2000      	movs	r0, #0
 8006316:	e7e0      	b.n	80062da <_raise_r+0x12>

08006318 <raise>:
 8006318:	4b02      	ldr	r3, [pc, #8]	; (8006324 <raise+0xc>)
 800631a:	4601      	mov	r1, r0
 800631c:	6818      	ldr	r0, [r3, #0]
 800631e:	f7ff bfd3 	b.w	80062c8 <_raise_r>
 8006322:	bf00      	nop
 8006324:	20000064 	.word	0x20000064

08006328 <_kill_r>:
 8006328:	b538      	push	{r3, r4, r5, lr}
 800632a:	2300      	movs	r3, #0
 800632c:	4d06      	ldr	r5, [pc, #24]	; (8006348 <_kill_r+0x20>)
 800632e:	4604      	mov	r4, r0
 8006330:	4608      	mov	r0, r1
 8006332:	4611      	mov	r1, r2
 8006334:	602b      	str	r3, [r5, #0]
 8006336:	f7fa ff3d 	bl	80011b4 <_kill>
 800633a:	1c43      	adds	r3, r0, #1
 800633c:	d102      	bne.n	8006344 <_kill_r+0x1c>
 800633e:	682b      	ldr	r3, [r5, #0]
 8006340:	b103      	cbz	r3, 8006344 <_kill_r+0x1c>
 8006342:	6023      	str	r3, [r4, #0]
 8006344:	bd38      	pop	{r3, r4, r5, pc}
 8006346:	bf00      	nop
 8006348:	20000470 	.word	0x20000470

0800634c <_getpid_r>:
 800634c:	f7fa bf30 	b.w	80011b0 <_getpid>

08006350 <__swhatbuf_r>:
 8006350:	b570      	push	{r4, r5, r6, lr}
 8006352:	460c      	mov	r4, r1
 8006354:	f9b1 100e 	ldrsh.w	r1, [r1, #14]
 8006358:	4615      	mov	r5, r2
 800635a:	2900      	cmp	r1, #0
 800635c:	461e      	mov	r6, r3
 800635e:	b096      	sub	sp, #88	; 0x58
 8006360:	da0c      	bge.n	800637c <__swhatbuf_r+0x2c>
 8006362:	89a3      	ldrh	r3, [r4, #12]
 8006364:	2100      	movs	r1, #0
 8006366:	f013 0f80 	tst.w	r3, #128	; 0x80
 800636a:	bf0c      	ite	eq
 800636c:	f44f 6380 	moveq.w	r3, #1024	; 0x400
 8006370:	2340      	movne	r3, #64	; 0x40
 8006372:	2000      	movs	r0, #0
 8006374:	6031      	str	r1, [r6, #0]
 8006376:	602b      	str	r3, [r5, #0]
 8006378:	b016      	add	sp, #88	; 0x58
 800637a:	bd70      	pop	{r4, r5, r6, pc}
 800637c:	466a      	mov	r2, sp
 800637e:	f000 f849 	bl	8006414 <_fstat_r>
 8006382:	2800      	cmp	r0, #0
 8006384:	dbed      	blt.n	8006362 <__swhatbuf_r+0x12>
 8006386:	9901      	ldr	r1, [sp, #4]
 8006388:	f401 4170 	and.w	r1, r1, #61440	; 0xf000
 800638c:	f5a1 5300 	sub.w	r3, r1, #8192	; 0x2000
 8006390:	4259      	negs	r1, r3
 8006392:	4159      	adcs	r1, r3
 8006394:	f44f 6380 	mov.w	r3, #1024	; 0x400
 8006398:	e7eb      	b.n	8006372 <__swhatbuf_r+0x22>

0800639a <__smakebuf_r>:
 800639a:	898b      	ldrh	r3, [r1, #12]
 800639c:	b573      	push	{r0, r1, r4, r5, r6, lr}
 800639e:	079d      	lsls	r5, r3, #30
 80063a0:	4606      	mov	r6, r0
 80063a2:	460c      	mov	r4, r1
 80063a4:	d507      	bpl.n	80063b6 <__smakebuf_r+0x1c>
 80063a6:	f104 0347 	add.w	r3, r4, #71	; 0x47
 80063aa:	6023      	str	r3, [r4, #0]
 80063ac:	6123      	str	r3, [r4, #16]
 80063ae:	2301      	movs	r3, #1
 80063b0:	6163      	str	r3, [r4, #20]
 80063b2:	b002      	add	sp, #8
 80063b4:	bd70      	pop	{r4, r5, r6, pc}
 80063b6:	466a      	mov	r2, sp
 80063b8:	ab01      	add	r3, sp, #4
 80063ba:	f7ff ffc9 	bl	8006350 <__swhatbuf_r>
 80063be:	9900      	ldr	r1, [sp, #0]
 80063c0:	4605      	mov	r5, r0
 80063c2:	4630      	mov	r0, r6
 80063c4:	f7fe fa44 	bl	8004850 <_malloc_r>
 80063c8:	b948      	cbnz	r0, 80063de <__smakebuf_r+0x44>
 80063ca:	f9b4 300c 	ldrsh.w	r3, [r4, #12]
 80063ce:	059a      	lsls	r2, r3, #22
 80063d0:	d4ef      	bmi.n	80063b2 <__smakebuf_r+0x18>
 80063d2:	f023 0303 	bic.w	r3, r3, #3
 80063d6:	f043 0302 	orr.w	r3, r3, #2
 80063da:	81a3      	strh	r3, [r4, #12]
 80063dc:	e7e3      	b.n	80063a6 <__smakebuf_r+0xc>
 80063de:	89a3      	ldrh	r3, [r4, #12]
 80063e0:	6020      	str	r0, [r4, #0]
 80063e2:	f043 0380 	orr.w	r3, r3, #128	; 0x80
 80063e6:	81a3      	strh	r3, [r4, #12]
 80063e8:	9b00      	ldr	r3, [sp, #0]
 80063ea:	6120      	str	r0, [r4, #16]
 80063ec:	6163      	str	r3, [r4, #20]
 80063ee:	9b01      	ldr	r3, [sp, #4]
 80063f0:	b15b      	cbz	r3, 800640a <__smakebuf_r+0x70>
 80063f2:	4630      	mov	r0, r6
 80063f4:	f9b4 100e 	ldrsh.w	r1, [r4, #14]
 80063f8:	f000 f81e 	bl	8006438 <_isatty_r>
 80063fc:	b128      	cbz	r0, 800640a <__smakebuf_r+0x70>
 80063fe:	89a3      	ldrh	r3, [r4, #12]
 8006400:	f023 0303 	bic.w	r3, r3, #3
 8006404:	f043 0301 	orr.w	r3, r3, #1
 8006408:	81a3      	strh	r3, [r4, #12]
 800640a:	89a3      	ldrh	r3, [r4, #12]
 800640c:	431d      	orrs	r5, r3
 800640e:	81a5      	strh	r5, [r4, #12]
 8006410:	e7cf      	b.n	80063b2 <__smakebuf_r+0x18>
	...

08006414 <_fstat_r>:
 8006414:	b538      	push	{r3, r4, r5, lr}
 8006416:	2300      	movs	r3, #0
 8006418:	4d06      	ldr	r5, [pc, #24]	; (8006434 <_fstat_r+0x20>)
 800641a:	4604      	mov	r4, r0
 800641c:	4608      	mov	r0, r1
 800641e:	4611      	mov	r1, r2
 8006420:	602b      	str	r3, [r5, #0]
 8006422:	f7fa fef4 	bl	800120e <_fstat>
 8006426:	1c43      	adds	r3, r0, #1
 8006428:	d102      	bne.n	8006430 <_fstat_r+0x1c>
 800642a:	682b      	ldr	r3, [r5, #0]
 800642c:	b103      	cbz	r3, 8006430 <_fstat_r+0x1c>
 800642e:	6023      	str	r3, [r4, #0]
 8006430:	bd38      	pop	{r3, r4, r5, pc}
 8006432:	bf00      	nop
 8006434:	20000470 	.word	0x20000470

08006438 <_isatty_r>:
 8006438:	b538      	push	{r3, r4, r5, lr}
 800643a:	2300      	movs	r3, #0
 800643c:	4d05      	ldr	r5, [pc, #20]	; (8006454 <_isatty_r+0x1c>)
 800643e:	4604      	mov	r4, r0
 8006440:	4608      	mov	r0, r1
 8006442:	602b      	str	r3, [r5, #0]
 8006444:	f7fa fee8 	bl	8001218 <_isatty>
 8006448:	1c43      	adds	r3, r0, #1
 800644a:	d102      	bne.n	8006452 <_isatty_r+0x1a>
 800644c:	682b      	ldr	r3, [r5, #0]
 800644e:	b103      	cbz	r3, 8006452 <_isatty_r+0x1a>
 8006450:	6023      	str	r3, [r4, #0]
 8006452:	bd38      	pop	{r3, r4, r5, pc}
 8006454:	20000470 	.word	0x20000470

08006458 <_init>:
 8006458:	b5f8      	push	{r3, r4, r5, r6, r7, lr}
 800645a:	bf00      	nop
 800645c:	bcf8      	pop	{r3, r4, r5, r6, r7}
 800645e:	bc08      	pop	{r3}
 8006460:	469e      	mov	lr, r3
 8006462:	4770      	bx	lr

08006464 <_fini>:
 8006464:	b5f8      	push	{r3, r4, r5, r6, r7, lr}
 8006466:	bf00      	nop
 8006468:	bcf8      	pop	{r3, r4, r5, r6, r7}
 800646a:	bc08      	pop	{r3}
 800646c:	469e      	mov	lr, r3
 800646e:	4770      	bx	lr
